(dp1
I1
(dp2
S'potential_gateway'
p3
(dp4
I5
(dp5
I2
I1
ssI6
(dp6
I2
I1
sssS'subnets'
p7
(lp8
V192.168.0.0/16
p9
aV10.0.0.0/16
p10
asS'tenant_level'
p11
(dp12
I1
I2
ssS'host_mac'
p13
(dp14
S'00:00:00:00:00:4f'
p15
I1
sS'00:00:00:00:00:4e'
p16
I1
sS'00:00:00:00:00:4d'
p17
I1
sS'00:00:00:00:00:4a'
p18
I1
sS'00:00:00:00:00:2c'
p19
I1
sS'00:00:00:00:00:50'
p20
I1
sS'00:00:00:00:00:38'
p21
I1
sS'00:00:00:00:00:36'
p22
I1
sS'00:00:00:00:00:34'
p23
I1
sS'00:00:00:00:00:32'
p24
I1
sS'00:00:00:00:00:33'
p25
I1
sS'00:00:00:00:00:30'
p26
I1
sS'00:00:00:00:00:31'
p27
I1
sS'00:00:00:00:00:03'
p28
I1
sS'00:00:00:00:00:01'
p29
I1
sS'00:00:00:00:00:07'
p30
I1
sS'00:00:00:00:00:06'
p31
I1
sS'00:00:00:00:00:05'
p32
I1
sS'00:00:00:00:00:04'
p33
I1
sS'00:00:00:00:00:09'
p34
I1
sS'00:00:00:00:00:55'
p35
I1
sS'00:00:00:00:00:1d'
p36
I1
sS'00:00:00:00:00:1e'
p37
I1
sS'00:00:00:00:00:56'
p38
I1
sS'00:00:00:00:00:1c'
p39
I1
sS'00:00:00:00:00:5c'
p40
I1
sS'00:00:00:00:00:5d'
p41
I1
sS'00:00:00:00:00:5b'
p42
I1
sS'00:00:00:00:00:3e'
p43
I1
sS'00:00:00:00:00:3b'
p44
I1
sS'00:00:00:00:00:3c'
p45
I1
sS'00:00:00:00:00:3a'
p46
I1
sS'00:00:00:00:00:47'
p47
I1
sS'00:00:00:00:00:60'
p48
I1
sS'00:00:00:00:00:62'
p49
I1
sS'00:00:00:00:00:28'
p50
I1
sS'00:00:00:00:00:41'
p51
I1
sS'00:00:00:00:00:27'
p52
I1
sS'00:00:00:00:00:21'
p53
I1
sS'00:00:00:00:00:22'
p54
I1
sS'00:00:00:00:00:14'
p55
I1
sS'00:00:00:00:00:15'
p56
I1
sS'00:00:00:00:00:18'
p57
I1
sS'00:00:00:00:00:19'
p58
I1
sS'00:00:00:00:00:61'
p59
I1
sS'00:00:00:00:00:0a'
p60
I1
sS'00:00:00:00:00:5e'
p61
I1
sS'00:00:00:00:00:52'
p62
I1
sS'00:00:00:00:00:64'
p63
I1
ssS'arp_table'
p64
(dp65
I1
(dp66
S'10.0.0.48'
p67
g42
sS'10.0.0.49'
p68
g40
sS'10.0.0.42'
p69
g18
sS'192.168.0.47'
p70
g61
sS'192.168.0.36'
p71
g16
sS'10.0.0.47'
p72
g62
sS'10.0.0.44'
p73
g17
sS'10.0.0.45'
p74
g15
sS'192.168.0.32'
p75
g47
sS'10.0.0.6'
p76
g32
sS'192.168.0.14'
p77
g52
sS'192.168.0.15'
p78
g50
sS'10.0.0.39'
p79
g43
sS'192.168.0.10'
p80
g57
sS'192.168.0.11'
p81
g36
sS'10.0.0.32'
p82
g23
sS'10.0.0.31'
p83
g27
sS'10.0.0.30'
p84
g26
sS'10.0.0.37'
p85
g45
sS'10.0.0.36'
p86
g44
sS'10.0.0.35'
p87
g46
sS'192.168.0.37'
p88
g20
sS'10.0.0.14'
p89
g56
sS'10.0.0.17'
p90
g58
sS'10.0.0.51'
p91
g48
sS'10.0.0.53'
p92
g49
sS'10.0.0.52'
p93
g59
sS'10.0.0.55'
p94
g63
sS'192.168.0.2'
p95
g30
sS'192.168.0.3'
p96
g60
sS'10.0.0.9'
p97
g34
sS'10.0.0.5'
p98
g33
sS'10.0.0.4'
p99
g28
sS'10.0.0.7'
p100
g31
sS'192.168.0.9'
p101
g55
sS'10.0.0.2'
p102
g29
sS'192.168.0.28'
p103
g51
sS'192.168.0.25'
p104
g21
sS'192.168.0.24'
p105
g22
sS'192.168.0.41'
p106
g38
sS'192.168.0.40'
p107
g35
sS'192.168.0.21'
p108
g24
sS'192.168.0.46'
p109
g41
sS'192.168.0.22'
p110
g25
sS'10.0.0.28'
p111
g19
sS'10.0.0.24'
p112
g54
sS'10.0.0.20'
p113
g39
sS'10.0.0.21'
p114
g37
sS'10.0.0.23'
p115
g53
sssS'all_datacenter_id'
p116
(lp117
I1
aI2
asS'gateway_datacenter_port'
p118
(dp119
I2
(dp120
I5
I5
sI6
I6
sssS'gateway_ip'
p121
(lp122
V10.0.0.1
p123
aV192.168.0.1
p124
asS'tenant_speed'
p125
(dp126
ssI2
(dp127
g3
(dp128
I5
(dp129
I1
I1
ssI6
(dp130
I1
I1
sssg7
(lp131
g9
ag10
asg11
(dp132
I1
I2
ssg13
(dp133
S'00:00:00:00:00:4c'
p134
I1
sS'00:00:00:00:00:4b'
p135
I1
sS'00:00:00:00:00:2e'
p136
I1
sS'00:00:00:00:00:2d'
p137
I1
sS'00:00:00:00:00:2f'
p138
I1
sS'00:00:00:00:00:2a'
p139
I1
sS'00:00:00:00:00:2b'
p140
I1
sS'00:00:00:00:00:58'
p141
I1
sS'00:00:00:00:00:59'
p142
I1
sS'00:00:00:00:00:39'
p143
I1
sS'00:00:00:00:00:37'
p144
I1
sS'00:00:00:00:00:35'
p145
I1
sS'00:00:00:00:00:54'
p146
I1
sS'00:00:00:00:00:57'
p147
I1
sS'00:00:00:00:00:02'
p148
I1
sS'00:00:00:00:00:53'
p149
I1
sS'00:00:00:00:00:08'
p150
I1
sS'00:00:00:00:00:1f'
p151
I1
sS'00:00:00:00:00:1a'
p152
I1
sS'00:00:00:00:00:1b'
p153
I1
sS'00:00:00:00:00:3f'
p154
I1
sS'00:00:00:00:00:5a'
p155
I1
sS'00:00:00:00:00:3d'
p156
I1
sS'00:00:00:00:00:5f'
p157
I1
sS'00:00:00:00:00:46'
p158
I1
sS'00:00:00:00:00:45'
p159
I1
sS'00:00:00:00:00:44'
p160
I1
sS'00:00:00:00:00:29'
p161
I1
sS'00:00:00:00:00:42'
p162
I1
sS'00:00:00:00:00:40'
p163
I1
sS'00:00:00:00:00:25'
p164
I1
sS'00:00:00:00:00:24'
p165
I1
sS'00:00:00:00:00:26'
p166
I1
sS'00:00:00:00:00:51'
p167
I1
sS'00:00:00:00:00:20'
p168
I1
sS'00:00:00:00:00:23'
p169
I1
sS'00:00:00:00:00:48'
p170
I1
sS'00:00:00:00:00:49'
p171
I1
sS'00:00:00:00:00:16'
p172
I1
sS'00:00:00:00:00:17'
p173
I1
sS'00:00:00:00:00:10'
p174
I1
sS'00:00:00:00:00:11'
p175
I1
sS'00:00:00:00:00:12'
p176
I1
sS'00:00:00:00:00:13'
p177
I1
sS'00:00:00:00:00:63'
p178
I1
sS'00:00:00:00:00:0c'
p179
I1
sS'00:00:00:00:00:0b'
p180
I1
sS'00:00:00:00:00:0f'
p181
I1
sS'00:00:00:00:00:0e'
p182
I1
sS'00:00:00:00:00:0d'
p183
I1
sS'00:00:00:00:00:43'
p184
I1
ssg64
(dp185
I1
(dp186
S'10.0.0.43'
p187
g135
sS'10.0.0.40'
p188
g162
sS'10.0.0.41'
p189
g159
sS'10.0.0.46'
p190
g167
sS'10.0.0.38'
p191
g156
sS'192.168.0.45'
p192
g155
sS'192.168.0.30'
p193
g160
sS'192.168.0.34'
p194
g171
sS'192.168.0.33'
p195
g170
sS'192.168.0.16'
p196
g161
sS'192.168.0.17'
p197
g139
sS'192.168.0.12'
p198
g168
sS'192.168.0.13'
p199
g169
sS'10.0.0.33'
p200
g144
sS'192.168.0.38'
p201
g149
sS'192.168.0.39'
p202
g146
sS'192.168.0.18'
p203
g140
sS'192.168.0.19'
p204
g136
sS'10.0.0.34'
p205
g143
sS'10.0.0.15'
p206
g172
sS'10.0.0.16'
p207
g173
sS'10.0.0.11'
p208
g183
sS'10.0.0.10'
p209
g179
sS'10.0.0.13'
p210
g177
sS'10.0.0.12'
p211
g176
sS'10.0.0.50'
p212
g157
sS'192.168.0.35'
p213
g134
sS'10.0.0.19'
p214
g153
sS'10.0.0.18'
p215
g152
sS'10.0.0.54'
p216
g178
sS'192.168.0.6'
p217
g181
sS'10.0.0.8'
p218
g150
sS'192.168.0.4'
p219
g180
sS'192.168.0.5'
p220
g182
sS'192.168.0.8'
p221
g175
sS'10.0.0.3'
p222
g148
sS'192.168.0.29'
p223
g184
sS'192.168.0.43'
p224
g141
sS'192.168.0.42'
p225
g147
sS'192.168.0.27'
p226
g163
sS'192.168.0.26'
p227
g154
sS'192.168.0.20'
p228
g138
sS'192.168.0.23'
p229
g145
sS'192.168.0.44'
p230
g142
sS'192.168.0.31'
p231
g158
sS'10.0.0.29'
p232
g137
sS'10.0.0.25'
p233
g165
sS'10.0.0.26'
p234
g164
sS'10.0.0.27'
p235
g166
sS'10.0.0.22'
p236
g151
sS'192.168.0.7'
p237
g174
sssg116
(lp238
I1
aI2
asg118
(dp239
I1
(dp240
I5
I5
sI6
I6
sssg121
(lp241
V10.0.0.1
p242
aV192.168.0.1
p243
asg125
(dp244
ss.