(dp1
I1
(dp2
S'potential_gateway'
p3
(dp4
I10
(dp5
I2
I1
ssI11
(dp6
I2
I1
ssI12
(dp7
I2
I1
ssI13
(dp8
I2
I1
ssI14
(dp9
I2
I1
sssS'subnets'
p10
(lp11
V192.168.0.0/16
p12
aV10.0.0.0/16
p13
asS'tenant_level'
p14
(dp15
I1
I2
sI2
I1
sI3
I2
ssS'host_mac'
p16
(dp17
S'00:00:00:00:00:6b'
p18
I3
sS'00:00:00:00:00:6e'
p19
I3
sS'00:00:00:00:00:6d'
p20
I3
sS'00:00:00:00:00:6f'
p21
I3
sS'00:00:00:00:00:03'
p22
I1
sS'00:00:00:00:00:01'
p23
I1
sS'00:00:00:00:00:06'
p24
I1
sS'00:00:00:00:00:05'
p25
I1
sS'00:00:00:00:00:04'
p26
I1
sS'00:00:00:00:00:9d'
p27
I3
sS'00:00:00:00:00:09'
p28
I1
sS'00:00:00:00:00:08'
p29
I1
sS'00:00:00:00:00:9b'
p30
I3
sS'00:00:00:00:00:9c'
p31
I3
sS'00:00:00:00:00:1e'
p32
I1
sS'00:00:00:00:00:89'
p33
I3
sS'00:00:00:00:00:88'
p34
I3
sS'00:00:00:00:00:1b'
p35
I1
sS'00:00:00:00:00:1c'
p36
I1
sS'00:00:00:00:00:83'
p37
I3
sS'00:00:00:00:00:82'
p38
I3
sS'00:00:00:00:00:81'
p39
I3
sS'00:00:00:00:00:87'
p40
I3
sS'00:00:00:00:00:86'
p41
I3
sS'00:00:00:00:00:60'
p42
I1
sS'00:00:00:00:00:63'
p43
I1
sS'00:00:00:00:00:62'
p44
I1
sS'00:00:00:00:00:65'
p45
I3
sS'00:00:00:00:00:67'
p46
I3
sS'00:00:00:00:00:66'
p47
I3
sS'00:00:00:00:00:69'
p48
I3
sS'00:00:00:00:00:68'
p49
I3
sS'00:00:00:00:00:15'
p50
I1
sS'00:00:00:00:00:10'
p51
I1
sS'00:00:00:00:00:13'
p52
I1
sS'00:00:00:00:00:8c'
p53
I3
sS'00:00:00:00:00:8b'
p54
I3
sS'00:00:00:00:00:e2'
p55
I2
sS'00:00:00:00:00:18'
p56
I1
sS'00:00:00:00:00:19'
p57
I1
sS'00:00:00:00:00:0c'
p58
I1
sS'00:00:00:00:00:0b'
p59
I1
sS'00:00:00:00:00:0a'
p60
I1
sS'00:00:00:00:00:dd'
p61
I2
sS'00:00:00:00:00:98'
p62
I3
sS'00:00:00:00:00:0f'
p63
I1
sS'00:00:00:00:00:0e'
p64
I1
sS'00:00:00:00:00:94'
p65
I3
sS'00:00:00:00:00:96'
p66
I3
sS'00:00:00:00:00:97'
p67
I3
sS'00:00:00:00:00:93'
p68
I3
sS'00:00:00:00:00:4e'
p69
I1
sS'00:00:00:00:00:4c'
p70
I1
sS'00:00:00:00:00:4b'
p71
I1
sS'00:00:00:00:00:4a'
p72
I1
sS'00:00:00:00:00:73'
p73
I3
sS'00:00:00:00:00:70'
p74
I3
sS'00:00:00:00:00:71'
p75
I3
sS'00:00:00:00:00:76'
p76
I3
sS'00:00:00:00:00:77'
p77
I3
sS'00:00:00:00:00:74'
p78
I3
sS'00:00:00:00:00:78'
p79
I3
sS'00:00:00:00:00:b9'
p80
I2
sS'00:00:00:00:00:b8'
p81
I2
sS'00:00:00:00:00:df'
p82
I2
sS'00:00:00:00:00:b6'
p83
I2
sS'00:00:00:00:00:de'
p84
I2
sS'00:00:00:00:00:cf'
p85
I2
sS'00:00:00:00:00:db'
p86
I2
sS'00:00:00:00:00:ce'
p87
I2
sS'00:00:00:00:00:ca'
p88
I2
sS'00:00:00:00:00:7c'
p89
I3
sS'00:00:00:00:00:7a'
p90
I3
sS'00:00:00:00:00:7f'
p91
I3
sS'00:00:00:00:00:7d'
p92
I3
sS'00:00:00:00:00:d5'
p93
I2
sS'00:00:00:00:00:46'
p94
I1
sS'00:00:00:00:00:45'
p95
I1
sS'00:00:00:00:00:41'
p96
I1
sS'00:00:00:00:00:40'
p97
I1
sS'00:00:00:00:00:d1'
p98
I2
sS'00:00:00:00:00:c9'
p99
I2
sS'00:00:00:00:00:c7'
p100
I2
sS'00:00:00:00:00:c5'
p101
I2
sS'00:00:00:00:00:c2'
p102
I2
sS'00:00:00:00:00:c1'
p103
I2
sS'00:00:00:00:00:bd'
p104
I2
sS'00:00:00:00:00:bf'
p105
I2
sS'00:00:00:00:00:ba'
p106
I2
sS'00:00:00:00:00:9f'
p107
I3
sS'00:00:00:00:00:2a'
p108
I1
sS'00:00:00:00:00:2c'
p109
I1
sS'00:00:00:00:00:59'
p110
I1
sS'00:00:00:00:00:d9'
p111
I2
sS'00:00:00:00:00:50'
p112
I1
sS'00:00:00:00:00:51'
p113
I1
sS'00:00:00:00:00:52'
p114
I1
sS'00:00:00:00:00:55'
p115
I1
sS'00:00:00:00:00:56'
p116
I1
sS'00:00:00:00:00:57'
p117
I1
sS'00:00:00:00:00:ad'
p118
I2
sS'00:00:00:00:00:ae'
p119
I2
sS'00:00:00:00:00:af'
p120
I2
sS'00:00:00:00:00:aa'
p121
I3
sS'00:00:00:00:00:ac'
p122
I2
sS'00:00:00:00:00:5a'
p123
I1
sS'00:00:00:00:00:5e'
p124
I1
sS'00:00:00:00:00:5f'
p125
I1
sS'00:00:00:00:00:29'
p126
I1
sS'00:00:00:00:00:20'
p127
I1
sS'00:00:00:00:00:22'
p128
I1
sS'00:00:00:00:00:a7'
p129
I3
sS'00:00:00:00:00:a0'
p130
I3
sS'00:00:00:00:00:a1'
p131
I3
sS'00:00:00:00:00:a2'
p132
I3
sS'00:00:00:00:00:a3'
p133
I3
sS'00:00:00:00:00:e0'
p134
I2
sS'00:00:00:00:00:a8'
p135
I3
sS'00:00:00:00:00:a9'
p136
I3
sS'00:00:00:00:00:38'
p137
I1
sS'00:00:00:00:00:39'
p138
I1
sS'00:00:00:00:00:34'
p139
I1
sS'00:00:00:00:00:35'
p140
I1
sS'00:00:00:00:00:32'
p141
I1
sS'00:00:00:00:00:33'
p142
I1
sS'00:00:00:00:00:30'
p143
I1
sS'00:00:00:00:00:31'
p144
I1
sS'00:00:00:00:00:3f'
p145
I1
sS'00:00:00:00:00:3d'
p146
I1
ssS'arp_table'
p147
(dp148
I1
(dp149
S'10.0.0.48'
p150
g125
sS'10.0.0.49'
p151
g42
sS'10.0.0.42'
p152
g70
sS'192.168.0.47'
p153
g123
sS'10.0.0.47'
p154
g124
sS'10.0.0.44'
p155
g116
sS'192.168.0.45'
p156
g117
sS'192.168.0.44'
p157
g115
sS'192.168.0.8'
p158
g50
sS'192.168.0.50'
p159
g44
sS'192.168.0.37'
p160
g69
sS'192.168.0.30'
p161
g96
sS'192.168.0.32'
p162
g95
sS'192.168.0.33'
p163
g94
sS'192.168.0.16'
p164
g126
sS'192.168.0.17'
p165
g108
sS'192.168.0.36'
p166
g71
sS'192.168.0.11'
p167
g35
sS'192.168.0.35'
p168
g72
sS'10.0.0.32'
p169
g142
sS'10.0.0.31'
p170
g141
sS'10.0.0.30'
p171
g143
sS'192.168.0.18'
p172
g109
sS'10.0.0.36'
p173
g146
sS'10.0.0.34'
p174
g137
sS'10.0.0.15'
p175
g52
sS'10.0.0.17'
p176
g57
sS'10.0.0.16'
p177
g56
sS'10.0.0.10'
p178
g59
sS'10.0.0.12'
p179
g63
sS'10.0.0.19'
p180
g36
sS'192.168.0.2'
p181
g24
sS'192.168.0.6'
p182
g51
sS'10.0.0.8'
p183
g28
sS'192.168.0.4'
p184
g58
sS'192.168.0.5'
p185
g64
sS'10.0.0.5'
p186
g26
sS'10.0.0.4'
p187
g22
sS'10.0.0.7'
p188
g29
sS'10.0.0.6'
p189
g25
sS'10.0.0.2'
p190
g23
sS'192.168.0.39'
p191
g112
sS'192.168.0.29'
p192
g97
sS'192.168.0.28'
p193
g145
sS'192.168.0.25'
p194
g138
sS'192.168.0.41'
p195
g114
sS'192.168.0.40'
p196
g113
sS'192.168.0.21'
p197
g144
sS'192.168.0.46'
p198
g110
sS'192.168.0.23'
p199
g140
sS'192.168.0.22'
p200
g139
sS'192.168.0.51'
p201
g43
sS'10.0.0.24'
p202
g128
sS'10.0.0.9'
p203
g60
sS'10.0.0.20'
p204
g32
sS'10.0.0.22'
p205
g127
ssI2
(dp206
S'10.0.0.48'
p207
g111
sS'10.0.0.40'
p208
g98
sS'10.0.0.44'
p209
g93
sS'10.0.0.38'
p210
g85
sS'10.0.0.33'
p211
g88
sS'10.0.0.32'
p212
g99
sS'10.0.0.30'
p213
g100
sS'10.0.0.37'
p214
g87
sS'10.0.0.15'
p215
g81
sS'10.0.0.17'
p216
g106
sS'10.0.0.16'
p217
g80
sS'10.0.0.13'
p218
g83
sS'10.0.0.50'
p219
g86
sS'10.0.0.53'
p220
g84
sS'10.0.0.52'
p221
g61
sS'10.0.0.55'
p222
g134
sS'10.0.0.54'
p223
g82
sS'10.0.0.57'
p224
g55
sS'10.0.0.5'
p225
g119
sS'10.0.0.4'
p226
g118
sS'10.0.0.6'
p227
g120
sS'10.0.0.3'
p228
g122
sS'10.0.0.28'
p229
g101
sS'10.0.0.24'
p230
g103
sS'10.0.0.25'
p231
g102
sS'10.0.0.20'
p232
g104
sS'10.0.0.22'
p233
g105
ssI3
(dp234
S'10.0.0.43'
p235
g121
sS'10.0.0.38'
p236
g132
sS'192.168.0.8'
p237
g73
sS'10.0.0.37'
p238
g131
sS'10.0.0.6'
p239
g21
sS'10.0.0.39'
p240
g133
sS'192.168.0.14'
p241
g38
sS'192.168.0.16'
p242
g41
sS'192.168.0.17'
p243
g34
sS'192.168.0.10'
p244
g76
sS'192.168.0.11'
p245
g79
sS'192.168.0.12'
p246
g91
sS'10.0.0.33'
p247
g31
sS'10.0.0.32'
p248
g30
sS'192.168.0.18'
p249
g33
sS'192.168.0.19'
p250
g54
sS'10.0.0.34'
p251
g27
sS'10.0.0.15'
p252
g89
sS'10.0.0.16'
p253
g92
sS'10.0.0.11'
p254
g77
sS'10.0.0.13'
p255
g90
sS'10.0.0.19'
p256
g37
sS'10.0.0.18'
p257
g39
sS'192.168.0.2'
p258
g45
sS'192.168.0.6'
p259
g20
sS'10.0.0.8'
p260
g75
sS'192.168.0.4'
p261
g18
sS'10.0.0.5'
p262
g48
sS'10.0.0.4'
p263
g49
sS'10.0.0.7'
p264
g74
sS'192.168.0.9'
p265
g78
sS'10.0.0.3'
p266
g46
sS'10.0.0.2'
p267
g47
sS'192.168.0.29'
p268
g136
sS'192.168.0.28'
p269
g135
sS'192.168.0.25'
p270
g62
sS'192.168.0.24'
p271
g66
sS'192.168.0.27'
p272
g129
sS'192.168.0.26'
p273
g107
sS'192.168.0.20'
p274
g53
sS'192.168.0.23'
p275
g68
sS'10.0.0.36'
p276
g130
sS'10.0.0.29'
p277
g67
sS'10.0.0.27'
p278
g65
sS'10.0.0.21'
p279
g40
sS'192.168.0.7'
p280
g19
sssS'all_datacenter_id'
p281
(lp282
I1
aI2
asS'gateway_datacenter_port'
p283
(dp284
I2
(dp285
I10
I8
sI11
I9
sI12
I10
sI13
I11
sI14
I8
sssS'gateway_ip'
p286
(lp287
V10.0.0.1
p288
aV192.168.0.1
p289
asS'tenant_speed'
p290
(dp291
ssI2
(dp292
g3
(dp293
I8
(dp294
I1
I1
ssI9
(dp295
I1
I1
ssI10
(dp296
I1
I1
ssI11
(dp297
I1
I1
sssg10
(lp298
g12
ag13
asg14
(dp299
I1
I2
sI2
I1
sI3
I2
ssg16
(dp300
S'00:00:00:00:00:6a'
p301
I3
sS'00:00:00:00:00:6c'
p302
I3
sS'00:00:00:00:00:d7'
p303
I2
sS'00:00:00:00:00:02'
p304
I1
sS'00:00:00:00:00:d4'
p305
I2
sS'00:00:00:00:00:07'
p306
I1
sS'00:00:00:00:00:d2'
p307
I2
sS'00:00:00:00:00:d0'
p308
I2
sS'00:00:00:00:00:9e'
p309
I3
sS'00:00:00:00:00:9a'
p310
I3
sS'00:00:00:00:00:d8'
p311
I2
sS'00:00:00:00:00:1d'
p312
I1
sS'00:00:00:00:00:1f'
p313
I1
sS'00:00:00:00:00:1a'
p314
I1
sS'00:00:00:00:00:80'
p315
I3
sS'00:00:00:00:00:85'
p316
I3
sS'00:00:00:00:00:84'
p317
I3
sS'00:00:00:00:00:61'
p318
I1
sS'00:00:00:00:00:64'
p319
I1
sS'00:00:00:00:00:14'
p320
I1
sS'00:00:00:00:00:16'
p321
I1
sS'00:00:00:00:00:17'
p322
I1
sS'00:00:00:00:00:11'
p323
I1
sS'00:00:00:00:00:12'
p324
I1
sS'00:00:00:00:00:e1'
p325
I2
sS'00:00:00:00:00:8a'
p326
I3
sS'00:00:00:00:00:8f'
p327
I3
sS'00:00:00:00:00:8e'
p328
I3
sS'00:00:00:00:00:8d'
p329
I3
sS'00:00:00:00:00:dc'
p330
I2
sS'00:00:00:00:00:99'
p331
I3
sS'00:00:00:00:00:da'
p332
I2
sS'00:00:00:00:00:0d'
p333
I1
sS'00:00:00:00:00:95'
p334
I3
sS'00:00:00:00:00:90'
p335
I3
sS'00:00:00:00:00:91'
p336
I3
sS'00:00:00:00:00:92'
p337
I3
sS'00:00:00:00:00:4f'
p338
I1
sS'00:00:00:00:00:4d'
p339
I1
sS'00:00:00:00:00:72'
p340
I3
sS'00:00:00:00:00:75'
p341
I3
sS'00:00:00:00:00:79'
p342
I3
sS'00:00:00:00:00:b5'
p343
I2
sS'00:00:00:00:00:b4'
p344
I2
sS'00:00:00:00:00:b7'
p345
I2
sS'00:00:00:00:00:b1'
p346
I2
sS'00:00:00:00:00:b0'
p347
I2
sS'00:00:00:00:00:b3'
p348
I2
sS'00:00:00:00:00:b2'
p349
I2
sS'00:00:00:00:00:cd'
p350
I2
sS'00:00:00:00:00:cb'
p351
I2
sS'00:00:00:00:00:cc'
p352
I2
sS'00:00:00:00:00:7b'
p353
I3
sS'00:00:00:00:00:7e'
p354
I3
sS'00:00:00:00:00:47'
p355
I1
sS'00:00:00:00:00:44'
p356
I1
sS'00:00:00:00:00:43'
p357
I1
sS'00:00:00:00:00:42'
p358
I1
sS'00:00:00:00:00:d3'
p359
I2
sS'00:00:00:00:00:49'
p360
I1
sS'00:00:00:00:00:48'
p361
I1
sS'00:00:00:00:00:c8'
p362
I2
sS'00:00:00:00:00:c6'
p363
I2
sS'00:00:00:00:00:c4'
p364
I2
sS'00:00:00:00:00:c3'
p365
I2
sS'00:00:00:00:00:c0'
p366
I2
sS'00:00:00:00:00:be'
p367
I2
sS'00:00:00:00:00:bc'
p368
I2
sS'00:00:00:00:00:bb'
p369
I2
sS'00:00:00:00:00:2e'
p370
I1
sS'00:00:00:00:00:2d'
p371
I1
sS'00:00:00:00:00:2f'
p372
I1
sS'00:00:00:00:00:2b'
p373
I1
sS'00:00:00:00:00:58'
p374
I1
sS'00:00:00:00:00:d6'
p375
I2
sS'00:00:00:00:00:53'
p376
I1
sS'00:00:00:00:00:54'
p377
I1
sS'00:00:00:00:00:ab'
p378
I2
sS'00:00:00:00:00:5b'
p379
I1
sS'00:00:00:00:00:5c'
p380
I1
sS'00:00:00:00:00:5d'
p381
I1
sS'00:00:00:00:00:28'
p382
I1
sS'00:00:00:00:00:25'
p383
I1
sS'00:00:00:00:00:24'
p384
I1
sS'00:00:00:00:00:27'
p385
I1
sS'00:00:00:00:00:26'
p386
I1
sS'00:00:00:00:00:21'
p387
I1
sS'00:00:00:00:00:23'
p388
I1
sS'00:00:00:00:00:a4'
p389
I3
sS'00:00:00:00:00:a5'
p390
I3
sS'00:00:00:00:00:a6'
p391
I3
sS'00:00:00:00:00:36'
p392
I1
sS'00:00:00:00:00:37'
p393
I1
sS'00:00:00:00:00:3e'
p394
I1
sS'00:00:00:00:00:3b'
p395
I1
sS'00:00:00:00:00:3c'
p396
I1
sS'00:00:00:00:00:3a'
p397
I1
ssg147
(dp398
I1
(dp399
S'10.0.0.43'
p400
g339
sS'10.0.0.40'
p401
g361
sS'10.0.0.41'
p402
g360
sS'10.0.0.46'
p403
g380
sS'10.0.0.45'
p404
g374
sS'10.0.0.38'
p405
g357
sS'192.168.0.52'
p406
g319
sS'192.168.0.14'
p407
g385
sS'192.168.0.15'
p408
g382
sS'10.0.0.39'
p409
g356
sS'192.168.0.31'
p410
g358
sS'192.168.0.10'
p411
g322
sS'192.168.0.12'
p412
g312
sS'192.168.0.13'
p413
g383
sS'10.0.0.33'
p414
g392
sS'192.168.0.38'
p415
g338
sS'10.0.0.37'
p416
g394
sS'192.168.0.19'
p417
g371
sS'10.0.0.35'
p418
g397
sS'10.0.0.14'
p419
g324
sS'10.0.0.11'
p420
g333
sS'192.168.0.34'
p421
g355
sS'10.0.0.13'
p422
g323
sS'10.0.0.50'
p423
g318
sS'10.0.0.18'
p424
g314
sS'192.168.0.3'
p425
g306
sS'192.168.0.7'
p426
g320
sS'192.168.0.9'
p427
g321
sS'10.0.0.3'
p428
g304
sS'192.168.0.49'
p429
g381
sS'192.168.0.48'
p430
g379
sS'192.168.0.43'
p431
g377
sS'192.168.0.24'
p432
g393
sS'192.168.0.27'
p433
g396
sS'192.168.0.26'
p434
g395
sS'192.168.0.20'
p435
g372
sS'10.0.0.28'
p436
g373
sS'10.0.0.29'
p437
g370
sS'192.168.0.42'
p438
g376
sS'10.0.0.25'
p439
g388
sS'10.0.0.26'
p440
g384
sS'10.0.0.27'
p441
g386
sS'10.0.0.21'
p442
g313
sS'10.0.0.23'
p443
g387
ssI2
(dp444
S'10.0.0.49'
p445
g332
sS'10.0.0.42'
p446
g359
sS'10.0.0.43'
p447
g305
sS'10.0.0.41'
p448
g307
sS'10.0.0.46'
p449
g303
sS'10.0.0.47'
p450
g311
sS'10.0.0.45'
p451
g375
sS'10.0.0.39'
p452
g308
sS'10.0.0.31'
p453
g362
sS'10.0.0.36'
p454
g350
sS'10.0.0.35'
p455
g352
sS'10.0.0.34'
p456
g351
sS'10.0.0.14'
p457
g345
sS'10.0.0.11'
p458
g344
sS'10.0.0.10'
p459
g348
sS'10.0.0.12'
p460
g343
sS'10.0.0.51'
p461
g330
sS'10.0.0.19'
p462
g368
sS'10.0.0.18'
p463
g369
sS'10.0.0.56'
p464
g325
sS'10.0.0.9'
p465
g349
sS'10.0.0.8'
p466
g346
sS'10.0.0.7'
p467
g347
sS'10.0.0.2'
p468
g378
sS'10.0.0.29'
p469
g363
sS'10.0.0.26'
p470
g365
sS'10.0.0.27'
p471
g364
sS'10.0.0.21'
p472
g367
sS'10.0.0.23'
p473
g366
ssI3
(dp474
S'10.0.0.42'
p475
g391
sS'10.0.0.40'
p476
g389
sS'10.0.0.41'
p477
g390
sS'192.168.0.15'
p478
g317
sS'192.168.0.13'
p479
g315
sS'10.0.0.31'
p480
g310
sS'10.0.0.30'
p481
g331
sS'10.0.0.35'
p482
g309
sS'10.0.0.14'
p483
g353
sS'10.0.0.17'
p484
g354
sS'10.0.0.10'
p485
g341
sS'10.0.0.12'
p486
g342
sS'192.168.0.3'
p487
g301
sS'10.0.0.9'
p488
g340
sS'192.168.0.5'
p489
g302
sS'192.168.0.21'
p490
g329
sS'192.168.0.22'
p491
g336
sS'10.0.0.28'
p492
g334
sS'10.0.0.24'
p493
g327
sS'10.0.0.25'
p494
g335
sS'10.0.0.26'
p495
g337
sS'10.0.0.20'
p496
g316
sS'10.0.0.22'
p497
g326
sS'10.0.0.23'
p498
g328
sssg281
(lp499
I1
aI2
asg283
(dp500
I1
(dp501
I8
I10
sI9
I11
sI10
I12
sI11
I13
sssg286
(lp502
V10.0.0.1
p503
aV192.168.0.1
p504
asg290
(dp505
ss.