(dp1
I1
(dp2
S'potential_gateway'
p3
(dp4
I6
(dp5
I2
I1
sssS'subnets'
p6
(lp7
V192.168.0.0/16
p8
aV10.0.0.0/16
p9
asS'tenant_level'
p10
(dp11
I1
I2
ssS'host_mac'
p12
(dp13
S'00:00:00:00:00:4f'
p14
I1
sS'00:00:00:00:00:4b'
p15
I1
sS'00:00:00:00:00:57'
p16
I1
sS'00:00:00:00:00:50'
p17
I1
sS'00:00:00:00:00:38'
p18
I1
sS'00:00:00:00:00:39'
p19
I1
sS'00:00:00:00:00:36'
p20
I1
sS'00:00:00:00:00:34'
p21
I1
sS'00:00:00:00:00:35'
p22
I1
sS'00:00:00:00:00:56'
p23
I1
sS'00:00:00:00:00:31'
p24
I1
sS'00:00:00:00:00:03'
p25
I1
sS'00:00:00:00:00:09'
p26
I1
sS'00:00:00:00:00:08'
p27
I1
sS'00:00:00:00:00:1d'
p28
I1
sS'00:00:00:00:00:49'
p29
I1
sS'00:00:00:00:00:1b'
p30
I1
sS'00:00:00:00:00:1c'
p31
I1
sS'00:00:00:00:00:48'
p32
I1
sS'00:00:00:00:00:5c'
p33
I1
sS'00:00:00:00:00:5d'
p34
I1
sS'00:00:00:00:00:5b'
p35
I1
sS'00:00:00:00:00:3e'
p36
I1
sS'00:00:00:00:00:3b'
p37
I1
sS'00:00:00:00:00:3c'
p38
I1
sS'00:00:00:00:00:3a'
p39
I1
sS'00:00:00:00:00:61'
p40
I1
sS'00:00:00:00:00:60'
p41
I1
sS'00:00:00:00:00:29'
p42
I1
sS'00:00:00:00:00:42'
p43
I1
sS'00:00:00:00:00:25'
p44
I1
sS'00:00:00:00:00:24'
p45
I1
sS'00:00:00:00:00:26'
p46
I1
sS'00:00:00:00:00:20'
p47
I1
sS'00:00:00:00:00:23'
p48
I1
sS'00:00:00:00:00:22'
p49
I1
sS'00:00:00:00:00:15'
p50
I1
sS'00:00:00:00:00:16'
p51
I1
sS'00:00:00:00:00:17'
p52
I1
sS'00:00:00:00:00:10'
p53
I1
sS'00:00:00:00:00:11'
p54
I1
sS'00:00:00:00:00:59'
p55
I1
sS'00:00:00:00:00:18'
p56
I1
sS'00:00:00:00:00:0b'
p57
I1
sS'00:00:00:00:00:0d'
p58
I1
sS'00:00:00:00:00:64'
p59
I1
ssS'arp_table'
p60
(dp61
I1
(dp62
S'10.0.0.42'
p63
g34
sS'10.0.0.41'
p64
g55
sS'10.0.0.45'
p65
g41
sS'10.0.0.38'
p66
g14
sS'192.168.0.32'
p67
g19
sS'192.168.0.33'
p68
g39
sS'192.168.0.52'
p69
g35
sS'192.168.0.53'
p70
g33
sS'192.168.0.54'
p71
g40
sS'192.168.0.57'
p72
g59
sS'192.168.0.14'
p73
g51
sS'192.168.0.15'
p74
g52
sS'192.168.0.16'
p75
g28
sS'192.168.0.31'
p76
g18
sS'192.168.0.11'
p77
g54
sS'192.168.0.34'
p78
g38
sS'10.0.0.33'
p79
g32
sS'10.0.0.31'
p80
g43
sS'192.168.0.18'
p81
g49
sS'192.168.0.19'
p82
g44
sS'10.0.0.15'
p83
g31
sS'10.0.0.14'
p84
g30
sS'10.0.0.11'
p85
g56
sS'10.0.0.10'
p86
g50
sS'10.0.0.19'
p87
g48
sS'10.0.0.18'
p88
g47
sS'192.168.0.3'
p89
g25
sS'10.0.0.8'
p90
g53
sS'10.0.0.4'
p91
g27
sS'192.168.0.8'
p92
g57
sS'192.168.0.9'
p93
g58
sS'192.168.0.49'
p94
g16
sS'192.168.0.48'
p95
g23
sS'192.168.0.29'
p96
g21
sS'192.168.0.43'
p97
g15
sS'192.168.0.42'
p98
g29
sS'192.168.0.44'
p99
g17
sS'10.0.0.28'
p100
g37
sS'10.0.0.29'
p101
g36
sS'10.0.0.24'
p102
g24
sS'10.0.0.26'
p103
g22
sS'10.0.0.27'
p104
g20
sS'10.0.0.20'
p105
g45
sS'10.0.0.21'
p106
g46
sS'10.0.0.22'
p107
g42
sS'192.168.0.7'
p108
g26
sssS'all_datacenter_id'
p109
(lp110
I1
aI2
asS'gateway_datacenter_port'
p111
(dp112
I2
(dp113
I6
I7
sssS'gateway_ip'
p114
(lp115
V10.0.0.1
p116
aV192.168.0.1
p117
asS'tenant_speed'
p118
(dp119
ssI2
(dp120
g3
(dp121
I8
(dp122
I1
I1
ssI7
(dp123
I1
I1
sssg6
(lp124
g8
ag9
asg10
(dp125
I1
I2
ssg12
(dp126
S'00:00:00:00:00:4e'
p127
I1
sS'00:00:00:00:00:4d'
p128
I1
sS'00:00:00:00:00:4c'
p129
I1
sS'00:00:00:00:00:4a'
p130
I1
sS'00:00:00:00:00:2e'
p131
I1
sS'00:00:00:00:00:2d'
p132
I1
sS'00:00:00:00:00:2f'
p133
I1
sS'00:00:00:00:00:2a'
p134
I1
sS'00:00:00:00:00:2c'
p135
I1
sS'00:00:00:00:00:2b'
p136
I1
sS'00:00:00:00:00:58'
p137
I1
sS'00:00:00:00:00:51'
p138
I1
sS'00:00:00:00:00:37'
p139
I1
sS'00:00:00:00:00:52'
p140
I1
sS'00:00:00:00:00:53'
p141
I1
sS'00:00:00:00:00:32'
p142
I1
sS'00:00:00:00:00:33'
p143
I1
sS'00:00:00:00:00:30'
p144
I1
sS'00:00:00:00:00:02'
p145
I1
sS'00:00:00:00:00:01'
p146
I1
sS'00:00:00:00:00:07'
p147
I1
sS'00:00:00:00:00:06'
p148
I1
sS'00:00:00:00:00:05'
p149
I1
sS'00:00:00:00:00:04'
p150
I1
sS'00:00:00:00:00:54'
p151
I1
sS'00:00:00:00:00:55'
p152
I1
sS'00:00:00:00:00:1e'
p153
I1
sS'00:00:00:00:00:1f'
p154
I1
sS'00:00:00:00:00:1a'
p155
I1
sS'00:00:00:00:00:63'
p156
I1
sS'00:00:00:00:00:3f'
p157
I1
sS'00:00:00:00:00:5a'
p158
I1
sS'00:00:00:00:00:3d'
p159
I1
sS'00:00:00:00:00:5e'
p160
I1
sS'00:00:00:00:00:5f'
p161
I1
sS'00:00:00:00:00:47'
p162
I1
sS'00:00:00:00:00:46'
p163
I1
sS'00:00:00:00:00:45'
p164
I1
sS'00:00:00:00:00:44'
p165
I1
sS'00:00:00:00:00:43'
p166
I1
sS'00:00:00:00:00:28'
p167
I1
sS'00:00:00:00:00:41'
p168
I1
sS'00:00:00:00:00:40'
p169
I1
sS'00:00:00:00:00:27'
p170
I1
sS'00:00:00:00:00:21'
p171
I1
sS'00:00:00:00:00:14'
p172
I1
sS'00:00:00:00:00:12'
p173
I1
sS'00:00:00:00:00:13'
p174
I1
sS'00:00:00:00:00:19'
p175
I1
sS'00:00:00:00:00:0c'
p176
I1
sS'00:00:00:00:00:0a'
p177
I1
sS'00:00:00:00:00:62'
p178
I1
sS'00:00:00:00:00:0f'
p179
I1
sS'00:00:00:00:00:0e'
p180
I1
ssg60
(dp181
I1
(dp182
S'192.168.0.40'
p183
g163
sS'192.168.0.47'
p184
g152
sS'10.0.0.40'
p185
g151
sS'10.0.0.44'
p186
g161
sS'192.168.0.46'
p187
g140
sS'192.168.0.45'
p188
g138
sS'192.168.0.50'
p189
g137
sS'192.168.0.51'
p190
g158
sS'10.0.0.39'
p191
g141
sS'192.168.0.56'
p192
g156
sS'192.168.0.30'
p193
g139
sS'192.168.0.17'
p194
g171
sS'192.168.0.10'
p195
g180
sS'192.168.0.37'
p196
g168
sS'192.168.0.12'
p197
g173
sS'192.168.0.13'
p198
g172
sS'192.168.0.36'
p199
g157
sS'192.168.0.38'
p200
g166
sS'10.0.0.30'
p201
g169
sS'10.0.0.37'
p202
g127
sS'10.0.0.36'
p203
g128
sS'10.0.0.35'
p204
g129
sS'10.0.0.34'
p205
g130
sS'10.0.0.17'
p206
g154
sS'10.0.0.16'
p207
g153
sS'10.0.0.32'
p208
g165
sS'10.0.0.13'
p209
g155
sS'10.0.0.12'
p210
g175
sS'10.0.0.43'
p211
g160
sS'192.168.0.35'
p212
g159
sS'10.0.0.25'
p213
g143
sS'192.168.0.2'
p214
g146
sS'10.0.0.9'
p215
g174
sS'192.168.0.4'
p216
g149
sS'192.168.0.5'
p217
g148
sS'10.0.0.5'
p218
g177
sS'10.0.0.7'
p219
g179
sS'10.0.0.6'
p220
g176
sS'192.168.0.55'
p221
g178
sS'10.0.0.3'
p222
g150
sS'10.0.0.2'
p223
g145
sS'192.168.0.39'
p224
g164
sS'192.168.0.28'
p225
g142
sS'192.168.0.25'
p226
g132
sS'192.168.0.24'
p227
g135
sS'192.168.0.27'
p228
g144
sS'192.168.0.26'
p229
g133
sS'192.168.0.21'
p230
g167
sS'192.168.0.20'
p231
g170
sS'192.168.0.23'
p232
g136
sS'192.168.0.22'
p233
g134
sS'192.168.0.6'
p234
g147
sS'192.168.0.41'
p235
g162
sS'10.0.0.23'
p236
g131
sssg109
(lp237
I1
aI2
asg111
(dp238
I1
(dp239
I8
I6
sI7
I6
sssg114
(lp240
V10.0.0.1
p241
aV192.168.0.1
p242
asg118
(dp243
ss.