(dp1
I1
(dp2
S'potential_gateway'
p3
(dp4
I5
(dp5
I2
I1
ssI6
(dp6
I2
I1
ssI7
(dp7
I2
I1
sssS'subnets'
p8
(lp9
V192.168.0.0/16
p10
aV10.0.0.0/16
p11
asS'tenant_level'
p12
(dp13
I1
I2
sI2
I1
ssS'host_mac'
p14
(dp15
S'00:00:00:00:00:03'
p16
I1
sS'00:00:00:00:00:10'
p17
I2
sS'00:00:00:00:00:06'
p18
I1
sS'00:00:00:00:00:05'
p19
I1
sS'00:00:00:00:00:08'
p20
I1
sS'00:00:00:00:00:12'
p21
I2
sS'00:00:00:00:00:0c'
p22
I2
sS'00:00:00:00:00:0b'
p23
I2
sS'00:00:00:00:00:0f'
p24
I2
sS'00:00:00:00:00:0e'
p25
I2
sS'00:00:00:00:00:11'
p26
I2
ssS'arp_table'
p27
(dp28
I1
(dp29
S'192.168.0.2'
p30
g19
sS'10.0.0.4'
p31
g18
sS'192.168.0.4'
p32
g20
sS'10.0.0.2'
p33
g16
ssI2
(dp34
S'10.0.0.8'
p35
g21
sS'10.0.0.5'
p36
g24
sS'10.0.0.4'
p37
g25
sS'10.0.0.7'
p38
g26
sS'10.0.0.6'
p39
g17
sS'10.0.0.1'
p40
g23
sS'10.0.0.2'
p41
g22
sssS'all_datacenter_id'
p42
(lp43
I1
aI2
asS'gateway_datacenter_port'
p44
(dp45
I2
(dp46
I5
I4
sI6
I5
sI7
I4
sssS'gateway_ip'
p47
(lp48
S'132.0.0.1'
p49
asS'tenant_speed'
p50
(dp51
ssI2
(dp52
g3
(dp53
I4
(dp54
I1
I1
ssI5
(dp55
I1
I1
sssg8
(lp56
g10
ag11
asg12
(dp57
I1
I2
sI2
I1
ssg14
(dp58
S'00:00:00:00:00:14'
p59
I2
sS'00:00:00:00:00:02'
p60
I1
sS'00:00:00:00:00:01'
p61
I1
sS'00:00:00:00:00:07'
p62
I1
sS'00:00:00:00:00:04'
p63
I1
sS'00:00:00:00:00:09'
p64
I1
sS'00:00:00:00:00:13'
p65
I2
sS'00:00:00:00:00:0a'
p66
I1
sS'00:00:00:00:00:0d'
p67
I2
ssg27
(dp68
I1
(dp69
S'192.168.0.3'
p70
g62
sS'192.168.0.1'
p71
g61
sS'192.168.0.5'
p72
g66
sS'10.0.0.5'
p73
g64
sS'10.0.0.1'
p74
g60
sS'10.0.0.3'
p75
g63
ssI2
(dp76
S'10.0.0.9'
p77
g65
sS'10.0.0.10'
p78
g59
sS'10.0.0.3'
p79
g67
sssg42
(lp80
I1
aI2
asg44
(dp81
I1
(dp82
I4
I5
sI5
I6
sssg47
(lp83
S'132.0.0.1'
p84
asg50
(dp85
ss.