(dp1
I1
(dp2
S'potential_gateway'
p3
(dp4
sS'subnets'
p5
(lp6
V192.168.0.0/16
p7
aV10.0.0.0/16
p8
asS'tenant_level'
p9
(dp10
I1
I2
ssS'host_mac'
p11
(dp12
S'00:00:00:00:00:03'
p13
I1
sS'00:00:00:00:00:02'
p14
I1
sS'00:00:00:00:00:01'
p15
I1
sS'00:00:00:00:00:07'
p16
I1
sS'00:00:00:00:00:06'
p17
I1
sS'00:00:00:00:00:05'
p18
I1
sS'00:00:00:00:00:04'
p19
I1
sS'00:00:00:00:00:09'
p20
I1
sS'00:00:00:00:00:08'
p21
I1
sS'00:00:00:00:00:1d'
p22
I1
sS'00:00:00:00:00:1e'
p23
I1
sS'00:00:00:00:00:1f'
p24
I1
sS'00:00:00:00:00:1a'
p25
I1
sS'00:00:00:00:00:1b'
p26
I1
sS'00:00:00:00:00:1c'
p27
I1
sS'00:00:00:00:00:61'
p28
I1
sS'00:00:00:00:00:60'
p29
I1
sS'00:00:00:00:00:63'
p30
I1
sS'00:00:00:00:00:62'
p31
I1
sS'00:00:00:00:00:64'
p32
I1
sS'00:00:00:00:00:14'
p33
I1
sS'00:00:00:00:00:15'
p34
I1
sS'00:00:00:00:00:16'
p35
I1
sS'00:00:00:00:00:17'
p36
I1
sS'00:00:00:00:00:10'
p37
I1
sS'00:00:00:00:00:11'
p38
I1
sS'00:00:00:00:00:12'
p39
I1
sS'00:00:00:00:00:13'
p40
I1
sS'00:00:00:00:00:18'
p41
I1
sS'00:00:00:00:00:19'
p42
I1
sS'00:00:00:00:00:0c'
p43
I1
sS'00:00:00:00:00:0b'
p44
I1
sS'00:00:00:00:00:0a'
p45
I1
sS'00:00:00:00:00:0f'
p46
I1
sS'00:00:00:00:00:0e'
p47
I1
sS'00:00:00:00:00:0d'
p48
I1
sS'00:00:00:00:00:4f'
p49
I1
sS'00:00:00:00:00:4e'
p50
I1
sS'00:00:00:00:00:4d'
p51
I1
sS'00:00:00:00:00:4c'
p52
I1
sS'00:00:00:00:00:4b'
p53
I1
sS'00:00:00:00:00:4a'
p54
I1
sS'00:00:00:00:00:47'
p55
I1
sS'00:00:00:00:00:46'
p56
I1
sS'00:00:00:00:00:45'
p57
I1
sS'00:00:00:00:00:44'
p58
I1
sS'00:00:00:00:00:43'
p59
I1
sS'00:00:00:00:00:42'
p60
I1
sS'00:00:00:00:00:41'
p61
I1
sS'00:00:00:00:00:40'
p62
I1
sS'00:00:00:00:00:49'
p63
I1
sS'00:00:00:00:00:48'
p64
I1
sS'00:00:00:00:00:2e'
p65
I1
sS'00:00:00:00:00:2d'
p66
I1
sS'00:00:00:00:00:2f'
p67
I1
sS'00:00:00:00:00:2a'
p68
I1
sS'00:00:00:00:00:2c'
p69
I1
sS'00:00:00:00:00:2b'
p70
I1
sS'00:00:00:00:00:58'
p71
I1
sS'00:00:00:00:00:59'
p72
I1
sS'00:00:00:00:00:50'
p73
I1
sS'00:00:00:00:00:51'
p74
I1
sS'00:00:00:00:00:52'
p75
I1
sS'00:00:00:00:00:53'
p76
I1
sS'00:00:00:00:00:54'
p77
I1
sS'00:00:00:00:00:55'
p78
I1
sS'00:00:00:00:00:56'
p79
I1
sS'00:00:00:00:00:57'
p80
I1
sS'00:00:00:00:00:5a'
p81
I1
sS'00:00:00:00:00:5b'
p82
I1
sS'00:00:00:00:00:5c'
p83
I1
sS'00:00:00:00:00:5d'
p84
I1
sS'00:00:00:00:00:5e'
p85
I1
sS'00:00:00:00:00:5f'
p86
I1
sS'00:00:00:00:00:29'
p87
I1
sS'00:00:00:00:00:28'
p88
I1
sS'00:00:00:00:00:25'
p89
I1
sS'00:00:00:00:00:24'
p90
I1
sS'00:00:00:00:00:27'
p91
I1
sS'00:00:00:00:00:26'
p92
I1
sS'00:00:00:00:00:21'
p93
I1
sS'00:00:00:00:00:20'
p94
I1
sS'00:00:00:00:00:23'
p95
I1
sS'00:00:00:00:00:22'
p96
I1
sS'00:00:00:00:00:38'
p97
I1
sS'00:00:00:00:00:39'
p98
I1
sS'00:00:00:00:00:36'
p99
I1
sS'00:00:00:00:00:37'
p100
I1
sS'00:00:00:00:00:34'
p101
I1
sS'00:00:00:00:00:35'
p102
I1
sS'00:00:00:00:00:32'
p103
I1
sS'00:00:00:00:00:33'
p104
I1
sS'00:00:00:00:00:30'
p105
I1
sS'00:00:00:00:00:31'
p106
I1
sS'00:00:00:00:00:3f'
p107
I1
sS'00:00:00:00:00:3d'
p108
I1
sS'00:00:00:00:00:3e'
p109
I1
sS'00:00:00:00:00:3b'
p110
I1
sS'00:00:00:00:00:3c'
p111
I1
sS'00:00:00:00:00:3a'
p112
I1
ssS'arp_table'
p113
(dp114
I1
(dp115
S'192.168.0.58'
p116
g80
sS'192.168.0.59'
p117
g71
sS'192.168.0.50'
p118
g63
sS'192.168.0.51'
p119
g54
sS'192.168.0.52'
p120
g51
sS'192.168.0.53'
p121
g50
sS'192.168.0.54'
p122
g73
sS'192.168.0.55'
p123
g74
sS'192.168.0.56'
p124
g76
sS'192.168.0.57'
p125
g79
sS'10.0.0.33'
p126
g84
sS'10.0.0.32'
p127
g83
sS'10.0.0.31'
p128
g78
sS'10.0.0.30'
p129
g77
sS'10.0.0.36'
p130
g30
sS'10.0.0.35'
p131
g31
sS'10.0.0.34'
p132
g28
sS'192.168.0.2'
p133
g15
sS'192.168.0.3'
p134
g14
sS'192.168.0.6'
p135
g17
sS'192.168.0.7'
p136
g16
sS'192.168.0.4'
p137
g19
sS'192.168.0.5'
p138
g18
sS'192.168.0.8'
p139
g21
sS'192.168.0.9'
p140
g44
sS'192.168.0.49'
p141
g55
sS'192.168.0.48'
p142
g56
sS'192.168.0.43'
p143
g107
sS'192.168.0.42'
p144
g111
sS'192.168.0.41'
p145
g97
sS'192.168.0.40'
p146
g99
sS'192.168.0.47'
p147
g59
sS'192.168.0.46'
p148
g60
sS'192.168.0.45'
p149
g61
sS'192.168.0.44'
p150
g62
sS'10.0.0.28'
p151
g49
sS'10.0.0.29'
p152
g75
sS'10.0.0.24'
p153
g57
sS'10.0.0.25'
p154
g64
sS'10.0.0.26'
p155
g53
sS'10.0.0.27'
p156
g52
sS'10.0.0.20'
p157
g110
sS'10.0.0.21'
p158
g108
sS'10.0.0.22'
p159
g109
sS'10.0.0.23'
p160
g58
sS'10.0.0.9'
p161
g24
sS'10.0.0.8'
p162
g22
sS'10.0.0.5'
p163
g48
sS'10.0.0.4'
p164
g45
sS'10.0.0.7'
p165
g34
sS'10.0.0.6'
p166
g37
sS'10.0.0.3'
p167
g20
sS'10.0.0.2'
p168
g13
sS'192.168.0.61'
p169
g81
sS'192.168.0.60'
p170
g72
sS'192.168.0.63'
p171
g85
sS'192.168.0.62'
p172
g82
sS'192.168.0.65'
p173
g29
sS'192.168.0.64'
p174
g86
sS'192.168.0.66'
p175
g32
sS'192.168.0.14'
p176
g39
sS'192.168.0.15'
p177
g40
sS'192.168.0.16'
p178
g33
sS'192.168.0.17'
p179
g35
sS'192.168.0.10'
p180
g43
sS'192.168.0.11'
p181
g47
sS'192.168.0.12'
p182
g46
sS'192.168.0.13'
p183
g38
sS'192.168.0.18'
p184
g36
sS'192.168.0.19'
p185
g41
sS'10.0.0.15'
p186
g101
sS'10.0.0.14'
p187
g104
sS'10.0.0.17'
p188
g100
sS'10.0.0.16'
p189
g102
sS'10.0.0.11'
p190
g69
sS'10.0.0.10'
p191
g68
sS'10.0.0.13'
p192
g103
sS'10.0.0.12'
p193
g65
sS'10.0.0.19'
p194
g112
sS'10.0.0.18'
p195
g98
sS'192.168.0.32'
p196
g91
sS'192.168.0.33'
p197
g88
sS'192.168.0.30'
p198
g89
sS'192.168.0.31'
p199
g92
sS'192.168.0.36'
p200
g66
sS'192.168.0.37'
p201
g67
sS'192.168.0.34'
p202
g87
sS'192.168.0.35'
p203
g70
sS'192.168.0.38'
p204
g105
sS'192.168.0.39'
p205
g106
sS'192.168.0.29'
p206
g90
sS'192.168.0.28'
p207
g95
sS'192.168.0.25'
p208
g94
sS'192.168.0.24'
p209
g23
sS'192.168.0.27'
p210
g96
sS'192.168.0.26'
p211
g93
sS'192.168.0.21'
p212
g25
sS'192.168.0.20'
p213
g42
sS'192.168.0.23'
p214
g27
sS'192.168.0.22'
p215
g26
sssS'all_datacenter_id'
p216
(lp217
I1
asS'gateway_datacenter_port'
p218
(dp219
sS'gateway_ip'
p220
(lp221
V10.0.0.1
p222
aV192.168.0.1
p223
asS'tenant_speed'
p224
(dp225
ss.