(dp1
I1
(dp2
S'potential_gateway'
p3
(dp4
I6
(dp5
I2
I1
sssS'subnets'
p6
(lp7
V192.168.0.0/16
p8
aV10.0.0.0/16
p9
asS'tenant_level'
p10
(dp11
I1
I2
ssS'host_mac'
p12
(dp13
S'00:00:00:00:00:4e'
p14
I1
sS'00:00:00:00:00:4b'
p15
I1
sS'00:00:00:00:00:2e'
p16
I1
sS'00:00:00:00:00:2d'
p17
I1
sS'00:00:00:00:00:2a'
p18
I1
sS'00:00:00:00:00:2c'
p19
I1
sS'00:00:00:00:00:2b'
p20
I1
sS'00:00:00:00:00:58'
p21
I1
sS'00:00:00:00:00:59'
p22
I1
sS'00:00:00:00:00:38'
p23
I1
sS'00:00:00:00:00:36'
p24
I1
sS'00:00:00:00:00:51'
p25
I1
sS'00:00:00:00:00:34'
p26
I1
sS'00:00:00:00:00:53'
p27
I1
sS'00:00:00:00:00:32'
p28
I1
sS'00:00:00:00:00:33'
p29
I1
sS'00:00:00:00:00:30'
p30
I1
sS'00:00:00:00:00:02'
p31
I1
sS'00:00:00:00:00:07'
p32
I1
sS'00:00:00:00:00:06'
p33
I1
sS'00:00:00:00:00:09'
p34
I1
sS'00:00:00:00:00:1a'
p35
I1
sS'00:00:00:00:00:1b'
p36
I1
sS'00:00:00:00:00:48'
p37
I1
sS'00:00:00:00:00:5b'
p38
I1
sS'00:00:00:00:00:5c'
p39
I1
sS'00:00:00:00:00:3d'
p40
I1
sS'00:00:00:00:00:3e'
p41
I1
sS'00:00:00:00:00:5d'
p42
I1
sS'00:00:00:00:00:5f'
p43
I1
sS'00:00:00:00:00:3a'
p44
I1
sS'00:00:00:00:00:47'
p45
I1
sS'00:00:00:00:00:60'
p46
I1
sS'00:00:00:00:00:44'
p47
I1
sS'00:00:00:00:00:28'
p48
I1
sS'00:00:00:00:00:21'
p49
I1
sS'00:00:00:00:00:49'
p50
I1
sS'00:00:00:00:00:22'
p51
I1
sS'00:00:00:00:00:17'
p52
I1
sS'00:00:00:00:00:10'
p53
I1
sS'00:00:00:00:00:11'
p54
I1
sS'00:00:00:00:00:13'
p55
I1
sS'00:00:00:00:00:19'
p56
I1
sS'00:00:00:00:00:0b'
p57
I1
sS'00:00:00:00:00:0a'
p58
I1
sS'00:00:00:00:00:0f'
p59
I1
sS'00:00:00:00:00:0e'
p60
I1
sS'00:00:00:00:00:64'
p61
I1
ssS'arp_table'
p62
(dp63
I1
(dp64
S'10.0.0.48'
p65
g61
sS'192.168.0.31'
p66
g40
sS'10.0.0.43'
p67
g21
sS'10.0.0.40'
p68
g27
sS'10.0.0.46'
p69
g43
sS'10.0.0.47'
p70
g46
sS'10.0.0.45'
p71
g39
sS'10.0.0.38'
p72
g15
sS'192.168.0.44'
p73
g25
sS'10.0.0.6'
p74
g34
sS'192.168.0.50'
p75
g42
sS'192.168.0.32'
p76
g41
sS'192.168.0.16'
p77
g49
sS'192.168.0.17'
p78
g51
sS'10.0.0.9'
p79
g60
sS'192.168.0.11'
p80
g52
sS'10.0.0.31'
p81
g24
sS'192.168.0.39'
p82
g50
sS'10.0.0.36'
p83
g37
sS'10.0.0.34'
p84
g47
sS'10.0.0.17'
p85
g35
sS'10.0.0.16'
p86
g56
sS'10.0.0.11'
p87
g54
sS'10.0.0.10'
p88
g59
sS'10.0.0.18'
p89
g36
sS'192.168.0.6'
p90
g58
sS'192.168.0.7'
p91
g57
sS'192.168.0.4'
p92
g33
sS'10.0.0.5'
p93
g32
sS'192.168.0.8'
p94
g53
sS'192.168.0.9'
p95
g55
sS'192.168.0.38'
p96
g45
sS'10.0.0.3'
p97
g31
sS'192.168.0.49'
p98
g38
sS'192.168.0.48'
p99
g22
sS'192.168.0.28'
p100
g44
sS'192.168.0.27'
p101
g23
sS'192.168.0.20'
p102
g48
sS'192.168.0.23'
p103
g16
sS'192.168.0.22'
p104
g19
sS'10.0.0.28'
p105
g29
sS'10.0.0.29'
p106
g26
sS'10.0.0.24'
p107
g20
sS'10.0.0.25'
p108
g17
sS'10.0.0.26'
p109
g30
sS'10.0.0.27'
p110
g28
sS'192.168.0.41'
p111
g14
sS'10.0.0.23'
p112
g18
sssS'all_datacenter_id'
p113
(lp114
I1
aI2
asS'gateway_datacenter_port'
p115
(dp116
I2
(dp117
I6
I7
sssS'gateway_ip'
p118
(lp119
V10.0.0.1
p120
aV192.168.0.1
p121
asS'tenant_speed'
p122
(dp123
ssI2
(dp124
g3
(dp125
I8
(dp126
I1
I1
ssI7
(dp127
I1
I1
sssg6
(lp128
g8
ag9
asg10
(dp129
I1
I2
ssg12
(dp130
S'00:00:00:00:00:4f'
p131
I1
sS'00:00:00:00:00:4d'
p132
I1
sS'00:00:00:00:00:4c'
p133
I1
sS'00:00:00:00:00:4a'
p134
I1
sS'00:00:00:00:00:2f'
p135
I1
sS'00:00:00:00:00:39'
p136
I1
sS'00:00:00:00:00:50'
p137
I1
sS'00:00:00:00:00:37'
p138
I1
sS'00:00:00:00:00:52'
p139
I1
sS'00:00:00:00:00:35'
p140
I1
sS'00:00:00:00:00:54'
p141
I1
sS'00:00:00:00:00:55'
p142
I1
sS'00:00:00:00:00:56'
p143
I1
sS'00:00:00:00:00:31'
p144
I1
sS'00:00:00:00:00:03'
p145
I1
sS'00:00:00:00:00:01'
p146
I1
sS'00:00:00:00:00:05'
p147
I1
sS'00:00:00:00:00:04'
p148
I1
sS'00:00:00:00:00:08'
p149
I1
sS'00:00:00:00:00:1d'
p150
I1
sS'00:00:00:00:00:1e'
p151
I1
sS'00:00:00:00:00:1f'
p152
I1
sS'00:00:00:00:00:1c'
p153
I1
sS'00:00:00:00:00:57'
p154
I1
sS'00:00:00:00:00:3f'
p155
I1
sS'00:00:00:00:00:5a'
p156
I1
sS'00:00:00:00:00:3b'
p157
I1
sS'00:00:00:00:00:3c'
p158
I1
sS'00:00:00:00:00:5e'
p159
I1
sS'00:00:00:00:00:61'
p160
I1
sS'00:00:00:00:00:46'
p161
I1
sS'00:00:00:00:00:45'
p162
I1
sS'00:00:00:00:00:62'
p163
I1
sS'00:00:00:00:00:29'
p164
I1
sS'00:00:00:00:00:42'
p165
I1
sS'00:00:00:00:00:41'
p166
I1
sS'00:00:00:00:00:40'
p167
I1
sS'00:00:00:00:00:25'
p168
I1
sS'00:00:00:00:00:24'
p169
I1
sS'00:00:00:00:00:27'
p170
I1
sS'00:00:00:00:00:26'
p171
I1
sS'00:00:00:00:00:20'
p172
I1
sS'00:00:00:00:00:23'
p173
I1
sS'00:00:00:00:00:14'
p174
I1
sS'00:00:00:00:00:15'
p175
I1
sS'00:00:00:00:00:16'
p176
I1
sS'00:00:00:00:00:12'
p177
I1
sS'00:00:00:00:00:18'
p178
I1
sS'00:00:00:00:00:63'
p179
I1
sS'00:00:00:00:00:0c'
p180
I1
sS'00:00:00:00:00:0d'
p181
I1
sS'00:00:00:00:00:43'
p182
I1
ssg62
(dp183
I1
(dp184
S'192.168.0.40'
p185
g133
sS'10.0.0.42'
p186
g154
sS'192.168.0.47'
p187
g143
sS'192.168.0.36'
p188
g182
sS'10.0.0.44'
p189
g156
sS'10.0.0.37'
p190
g134
sS'192.168.0.33'
p191
g155
sS'192.168.0.51'
p192
g159
sS'192.168.0.52'
p193
g160
sS'192.168.0.53'
p194
g163
sS'192.168.0.54'
p195
g179
sS'10.0.0.39'
p196
g132
sS'192.168.0.14'
p197
g152
sS'192.168.0.15'
p198
g172
sS'192.168.0.30'
p199
g158
sS'192.168.0.10'
p200
g175
sS'192.168.0.37'
p201
g161
sS'192.168.0.12'
p202
g153
sS'192.168.0.13'
p203
g150
sS'10.0.0.33'
p204
g167
sS'10.0.0.32'
p205
g136
sS'10.0.0.30'
p206
g140
sS'192.168.0.18'
p207
g168
sS'192.168.0.19'
p208
g171
sS'10.0.0.35'
p209
g162
sS'10.0.0.15'
p210
g178
sS'10.0.0.14'
p211
g176
sS'10.0.0.41'
p212
g141
sS'192.168.0.34'
p213
g166
sS'10.0.0.13'
p214
g174
sS'10.0.0.12'
p215
g177
sS'192.168.0.35'
p216
g165
sS'10.0.0.19'
p217
g151
sS'192.168.0.2'
p218
g145
sS'192.168.0.3'
p219
g147
sS'10.0.0.8'
p220
g181
sS'192.168.0.5'
p221
g149
sS'10.0.0.4'
p222
g148
sS'10.0.0.7'
p223
g180
sS'10.0.0.2'
p224
g146
sS'192.168.0.29'
p225
g157
sS'192.168.0.25'
p226
g144
sS'192.168.0.24'
p227
g135
sS'192.168.0.26'
p228
g138
sS'192.168.0.21'
p229
g164
sS'192.168.0.46'
p230
g142
sS'192.168.0.45'
p231
g139
sS'192.168.0.43'
p232
g137
sS'192.168.0.42'
p233
g131
sS'10.0.0.20'
p234
g173
sS'10.0.0.21'
p235
g169
sS'10.0.0.22'
p236
g170
sssg113
(lp237
I1
aI2
asg115
(dp238
I1
(dp239
I8
I6
sI7
I6
sssg118
(lp240
V10.0.0.1
p241
aV192.168.0.1
p242
asg122
(dp243
ss.