(dp1
I1
(dp2
S'potential_gateway'
p3
(dp4
I5
(dp5
I2
I5
ssI6
(dp6
I2
I5
ssI7
(dp7
I2
I5
sssS'subnets'
p8
(lp9
V192.168.0.0/16
p10
aV10.0.0.0/16
p11
asS'tenant_level'
p12
(dp13
I1
I2
sI2
I1
ssS'host_mac'
p14
(dp15
S'00:00:00:00:00:03'
p16
I1
sS'00:00:00:00:00:13'
p17
I2
sS'00:00:00:00:00:07'
p18
I1
sS'00:00:00:00:00:06'
p19
I1
sS'00:00:00:00:00:05'
p20
I1
sS'00:00:00:00:00:04'
p21
I1
sS'00:00:00:00:00:08'
p22
I1
sS'00:00:00:00:00:0c'
p23
I2
sS'00:00:00:00:00:0b'
p24
I2
sS'00:00:00:00:00:0f'
p25
I2
sS'00:00:00:00:00:0e'
p26
I2
sS'00:00:00:00:00:14'
p27
I2
ssS'arp_table'
p28
(dp29
I1
(dp30
S'192.168.0.3'
p31
g16
sS'192.168.0.6'
p32
g18
sS'192.168.0.4'
p33
g21
sS'192.168.0.5'
p34
g19
sS'10.0.0.1'
p35
g20
sS'10.0.0.2'
p36
g22
ssI2
(dp37
S'10.0.0.10'
p38
g27
sS'10.0.0.9'
p39
g17
sS'10.0.0.5'
p40
g25
sS'10.0.0.4'
p41
g26
sS'10.0.0.1'
p42
g24
sS'10.0.0.2'
p43
g23
sssS'all_datacenter_id'
p44
(lp45
I1
aI2
asS'gateway_datacenter_port'
p46
(dp47
I2
(dp48
I5
I4
sI6
I5
sI7
I4
sssS'gateway_ip'
p49
(lp50
S'132.0.0.1'
p51
asS'tenant_speed'
p52
(dp53
ssI2
(dp54
g3
(dp55
I4
(dp56
I1
I4
ssI5
(dp57
I1
I4
sssg8
(lp58
g10
ag11
asg12
(dp59
I1
I2
sI2
I1
ssg14
(dp60
S'00:00:00:00:00:02'
p61
I1
sS'00:00:00:00:00:01'
p62
I1
sS'00:00:00:00:00:10'
p63
I2
sS'00:00:00:00:00:11'
p64
I2
sS'00:00:00:00:00:12'
p65
I2
sS'00:00:00:00:00:09'
p66
I1
sS'00:00:00:00:00:0a'
p67
I1
sS'00:00:00:00:00:0d'
p68
I2
ssg28
(dp69
I1
(dp70
S'192.168.0.2'
p71
g61
sS'192.168.0.1'
p72
g62
sS'192.168.0.7'
p73
g66
sS'10.0.0.3'
p74
g67
ssI2
(dp75
S'10.0.0.7'
p76
g64
sS'10.0.0.6'
p77
g63
sS'10.0.0.8'
p78
g65
sS'10.0.0.3'
p79
g68
sssg44
(lp80
I1
aI2
asg46
(dp81
I1
(dp82
I4
I5
sI5
I6
sssg49
(lp83
S'132.0.0.1'
p84
asg52
(dp85
ss.