(dp1
I1
(dp2
S'potential_gateway'
p3
(dp4
I8
(dp5
I2
I1
ssI6
(dp6
I2
I1
ssI7
(dp7
I2
I1
sssS'subnets'
p8
(lp9
V192.168.0.0/16
p10
aV10.0.0.0/16
p11
asS'tenant_level'
p12
(dp13
I1
I2
sI2
I1
ssS'host_mac'
p14
(dp15
S'00:00:00:00:00:03'
p16
I1
sS'00:00:00:00:00:02'
p17
I1
sS'00:00:00:00:00:01'
p18
I1
sS'00:00:00:00:00:10'
p19
I2
sS'00:00:00:00:00:06'
p20
I1
sS'00:00:00:00:00:05'
p21
I1
sS'00:00:00:00:00:09'
p22
I1
sS'00:00:00:00:00:12'
p23
I2
sS'00:00:00:00:00:0c'
p24
I2
sS'00:00:00:00:00:0b'
p25
I2
sS'00:00:00:00:00:0f'
p26
I2
sS'00:00:00:00:00:0e'
p27
I2
sS'00:00:00:00:00:0d'
p28
I2
sS'00:00:00:00:00:14'
p29
I2
ssS'arp_table'
p30
(dp31
I1
(dp32
S'192.168.0.1'
p33
g18
sS'10.0.0.5'
p34
g20
sS'10.0.0.4'
p35
g21
sS'10.0.0.7'
p36
g22
sS'10.0.0.1'
p37
g17
sS'10.0.0.2'
p38
g16
ssI2
(dp39
S'10.0.0.10'
p40
g29
sS'10.0.0.8'
p41
g23
sS'10.0.0.5'
p42
g26
sS'10.0.0.4'
p43
g27
sS'10.0.0.6'
p44
g19
sS'10.0.0.1'
p45
g25
sS'10.0.0.3'
p46
g28
sS'10.0.0.2'
p47
g24
sssS'all_datacenter_id'
p48
(lp49
I1
aI2
asS'gateway_datacenter_port'
p50
(dp51
I2
(dp52
I8
I3
sI6
I3
sI7
I4
sssS'gateway_ip'
p53
(lp54
V10.0.0.0
p55
aV192.168.0.0
p56
asS'tenant_speed'
p57
(dp58
ssI2
(dp59
g3
(dp60
I3
(dp61
I1
I1
ssI4
(dp62
I1
I1
sssg8
(lp63
g10
ag11
asg12
(dp64
I1
I2
sI2
I1
ssg14
(dp65
S'00:00:00:00:00:07'
p66
I1
sS'00:00:00:00:00:11'
p67
I2
sS'00:00:00:00:00:13'
p68
I2
sS'00:00:00:00:00:08'
p69
I1
sS'00:00:00:00:00:0a'
p70
I1
sS'00:00:00:00:00:04'
p71
I1
ssg30
(dp72
I1
(dp73
S'192.168.0.2'
p74
g69
sS'192.168.0.3'
p75
g70
sS'10.0.0.6'
p76
g66
sS'10.0.0.3'
p77
g71
ssI2
(dp78
S'10.0.0.7'
p79
g67
sS'10.0.0.9'
p80
g68
sssg48
(lp81
I1
aI2
asg50
(dp82
I1
(dp83
I3
I6
sI4
I7
sssg53
(lp84
V10.0.0.0
p85
aV192.168.0.0
p86
asg57
(dp87
ss.