(dp1
I1
(dp2
S'potential_gateway'
p3
(dp4
I8
(dp5
I2
I6
ssI6
(dp6
I2
I6
ssI7
(dp7
I2
I6
sssS'subnets'
p8
(lp9
V192.168.0.0/16
p10
aV10.0.0.0/16
p11
asS'tenant_level'
p12
(dp13
I1
I2
sI2
I1
ssS'host_mac'
p14
(dp15
S'00:00:00:00:00:03'
p16
I1
sS'00:00:00:00:00:14'
p17
I2
sS'00:00:00:00:00:01'
p18
I1
sS'00:00:00:00:00:10'
p19
I2
sS'00:00:00:00:00:06'
p20
I1
sS'00:00:00:00:00:05'
p21
I1
sS'00:00:00:00:00:09'
p22
I1
sS'00:00:00:00:00:08'
p23
I1
sS'00:00:00:00:00:12'
p24
I2
sS'00:00:00:00:00:0c'
p25
I2
sS'00:00:00:00:00:0a'
p26
I1
sS'00:00:00:00:00:0f'
p27
I2
sS'00:00:00:00:00:0e'
p28
I2
ssS'arp_table'
p29
(dp30
I1
(dp31
S'192.168.0.3'
p32
g20
sS'192.168.0.1'
p33
g18
sS'192.168.0.6'
p34
g26
sS'192.168.0.4'
p35
g23
sS'192.168.0.5'
p36
g22
sS'10.0.0.1'
p37
g16
sS'10.0.0.3'
p38
g21
ssI2
(dp39
S'10.0.0.10'
p40
g17
sS'10.0.0.8'
p41
g24
sS'10.0.0.5'
p42
g27
sS'10.0.0.4'
p43
g28
sS'10.0.0.6'
p44
g19
sS'10.0.0.2'
p45
g25
sssS'all_datacenter_id'
p46
(lp47
I1
aI2
asS'gateway_datacenter_port'
p48
(dp49
I2
(dp50
I8
I4
sI6
I4
sI7
I5
sssS'gateway_ip'
p51
(lp52
S'132.0.0.1'
p53
asS'tenant_speed'
p54
(dp55
ssI2
(dp56
g3
(dp57
I4
(dp58
I1
I4
ssI5
(dp59
I1
I4
sssg8
(lp60
g10
ag11
asg12
(dp61
I1
I2
sI2
I1
ssg14
(dp62
S'00:00:00:00:00:02'
p63
I1
sS'00:00:00:00:00:07'
p64
I1
sS'00:00:00:00:00:11'
p65
I2
sS'00:00:00:00:00:04'
p66
I1
sS'00:00:00:00:00:13'
p67
I2
sS'00:00:00:00:00:0b'
p68
I2
sS'00:00:00:00:00:0d'
p69
I2
ssg29
(dp70
I1
(dp71
S'192.168.0.2'
p72
g63
sS'10.0.0.4'
p73
g64
sS'10.0.0.2'
p74
g66
ssI2
(dp75
S'10.0.0.9'
p76
g67
sS'10.0.0.7'
p77
g65
sS'10.0.0.1'
p78
g68
sS'10.0.0.3'
p79
g69
sssg46
(lp80
I1
aI2
asg48
(dp81
I1
(dp82
I4
I6
sI5
I7
sssg51
(lp83
S'132.0.0.1'
p84
asg54
(dp85
ss.