ccopy_reg
_reconstructor
p1
(cAutoTest.Model.Network
Network
p2
c__builtin__
object
p3
NtRp4
(dp5
S'mac_pool'
p6
g1
(cAutoTest.Model.Util
Pool
p7
g3
NtRp8
(dp9
S'pool'
p10
(lp11
S'00:00:00:00:00:73'
p12
aS'00:00:00:00:00:74'
p13
aS'00:00:00:00:00:75'
p14
aS'00:00:00:00:00:76'
p15
aS'00:00:00:00:00:77'
p16
aS'00:00:00:00:00:78'
p17
aS'00:00:00:00:00:79'
p18
aS'00:00:00:00:00:7a'
p19
aS'00:00:00:00:00:7b'
p20
aS'00:00:00:00:00:7c'
p21
aS'00:00:00:00:00:7d'
p22
aS'00:00:00:00:00:7e'
p23
aS'00:00:00:00:00:7f'
p24
aS'00:00:00:00:00:80'
p25
aS'00:00:00:00:00:81'
p26
aS'00:00:00:00:00:82'
p27
aS'00:00:00:00:00:83'
p28
aS'00:00:00:00:00:84'
p29
aS'00:00:00:00:00:85'
p30
aS'00:00:00:00:00:86'
p31
aS'00:00:00:00:00:87'
p32
aS'00:00:00:00:00:88'
p33
aS'00:00:00:00:00:89'
p34
aS'00:00:00:00:00:8a'
p35
aS'00:00:00:00:00:8b'
p36
aS'00:00:00:00:00:8c'
p37
aS'00:00:00:00:00:8d'
p38
aS'00:00:00:00:00:8e'
p39
aS'00:00:00:00:00:8f'
p40
aS'00:00:00:00:00:90'
p41
aS'00:00:00:00:00:91'
p42
aS'00:00:00:00:00:92'
p43
aS'00:00:00:00:00:93'
p44
aS'00:00:00:00:00:94'
p45
aS'00:00:00:00:00:95'
p46
aS'00:00:00:00:00:96'
p47
aS'00:00:00:00:00:97'
p48
aS'00:00:00:00:00:98'
p49
aS'00:00:00:00:00:99'
p50
aS'00:00:00:00:00:9a'
p51
aS'00:00:00:00:00:9b'
p52
aS'00:00:00:00:00:9c'
p53
aS'00:00:00:00:00:9d'
p54
aS'00:00:00:00:00:9e'
p55
aS'00:00:00:00:00:9f'
p56
aS'00:00:00:00:00:a0'
p57
aS'00:00:00:00:00:a1'
p58
aS'00:00:00:00:00:a2'
p59
aS'00:00:00:00:00:a3'
p60
aS'00:00:00:00:00:a4'
p61
aS'00:00:00:00:00:a5'
p62
aS'00:00:00:00:00:a6'
p63
aS'00:00:00:00:00:a7'
p64
aS'00:00:00:00:00:a8'
p65
aS'00:00:00:00:00:a9'
p66
aS'00:00:00:00:00:aa'
p67
aS'00:00:00:00:00:ab'
p68
aS'00:00:00:00:00:ac'
p69
aS'00:00:00:00:00:ad'
p70
aS'00:00:00:00:00:ae'
p71
aS'00:00:00:00:00:af'
p72
aS'00:00:00:00:00:b0'
p73
aS'00:00:00:00:00:b1'
p74
aS'00:00:00:00:00:b2'
p75
aS'00:00:00:00:00:b3'
p76
aS'00:00:00:00:00:b4'
p77
aS'00:00:00:00:00:b5'
p78
aS'00:00:00:00:00:b6'
p79
aS'00:00:00:00:00:b7'
p80
aS'00:00:00:00:00:b8'
p81
aS'00:00:00:00:00:b9'
p82
aS'00:00:00:00:00:ba'
p83
aS'00:00:00:00:00:bb'
p84
aS'00:00:00:00:00:bc'
p85
aS'00:00:00:00:00:bd'
p86
aS'00:00:00:00:00:be'
p87
aS'00:00:00:00:00:bf'
p88
aS'00:00:00:00:00:c0'
p89
aS'00:00:00:00:00:c1'
p90
aS'00:00:00:00:00:c2'
p91
aS'00:00:00:00:00:c3'
p92
aS'00:00:00:00:00:c4'
p93
aS'00:00:00:00:00:c5'
p94
aS'00:00:00:00:00:c6'
p95
aS'00:00:00:00:00:c7'
p96
aS'00:00:00:00:00:c8'
p97
aS'00:00:00:00:00:c9'
p98
aS'00:00:00:00:00:ca'
p99
aS'00:00:00:00:00:cb'
p100
aS'00:00:00:00:00:cc'
p101
aS'00:00:00:00:00:cd'
p102
aS'00:00:00:00:00:ce'
p103
aS'00:00:00:00:00:cf'
p104
aS'00:00:00:00:00:d0'
p105
aS'00:00:00:00:00:d1'
p106
aS'00:00:00:00:00:d2'
p107
aS'00:00:00:00:00:d3'
p108
aS'00:00:00:00:00:d4'
p109
aS'00:00:00:00:00:d5'
p110
aS'00:00:00:00:00:d6'
p111
aS'00:00:00:00:00:d7'
p112
aS'00:00:00:00:00:d8'
p113
aS'00:00:00:00:00:d9'
p114
aS'00:00:00:00:00:da'
p115
aS'00:00:00:00:00:db'
p116
aS'00:00:00:00:00:dc'
p117
aS'00:00:00:00:00:dd'
p118
aS'00:00:00:00:00:de'
p119
aS'00:00:00:00:00:df'
p120
aS'00:00:00:00:00:e0'
p121
aS'00:00:00:00:00:e1'
p122
aS'00:00:00:00:00:e2'
p123
aS'00:00:00:00:00:e3'
p124
aS'00:00:00:00:00:e4'
p125
aS'00:00:00:00:00:e5'
p126
aS'00:00:00:00:00:e6'
p127
aS'00:00:00:00:00:e7'
p128
aS'00:00:00:00:00:e8'
p129
aS'00:00:00:00:00:e9'
p130
aS'00:00:00:00:00:ea'
p131
aS'00:00:00:00:00:eb'
p132
aS'00:00:00:00:00:ec'
p133
aS'00:00:00:00:00:ed'
p134
aS'00:00:00:00:00:ee'
p135
aS'00:00:00:00:00:ef'
p136
aS'00:00:00:00:00:f0'
p137
aS'00:00:00:00:00:f1'
p138
aS'00:00:00:00:00:f2'
p139
aS'00:00:00:00:00:f3'
p140
aS'00:00:00:00:00:f4'
p141
aS'00:00:00:00:00:f5'
p142
aS'00:00:00:00:00:f6'
p143
aS'00:00:00:00:00:f7'
p144
aS'00:00:00:00:00:f8'
p145
aS'00:00:00:00:00:f9'
p146
aS'00:00:00:00:00:fa'
p147
aS'00:00:00:00:00:fb'
p148
aS'00:00:00:00:00:fc'
p149
aS'00:00:00:00:00:fd'
p150
aS'00:00:00:00:00:fe'
p151
aS'00:00:00:00:00:ff'
p152
aS'00:00:00:00:01:00'
p153
aS'00:00:00:00:01:01'
p154
aS'00:00:00:00:01:02'
p155
aS'00:00:00:00:01:03'
p156
aS'00:00:00:00:01:04'
p157
aS'00:00:00:00:01:05'
p158
aS'00:00:00:00:01:06'
p159
aS'00:00:00:00:01:07'
p160
aS'00:00:00:00:01:08'
p161
aS'00:00:00:00:01:09'
p162
aS'00:00:00:00:01:0a'
p163
aS'00:00:00:00:01:0b'
p164
aS'00:00:00:00:01:0c'
p165
aS'00:00:00:00:01:0d'
p166
aS'00:00:00:00:01:0e'
p167
aS'00:00:00:00:01:0f'
p168
aS'00:00:00:00:01:10'
p169
aS'00:00:00:00:01:11'
p170
aS'00:00:00:00:01:12'
p171
aS'00:00:00:00:01:13'
p172
aS'00:00:00:00:01:14'
p173
aS'00:00:00:00:01:15'
p174
aS'00:00:00:00:01:16'
p175
aS'00:00:00:00:01:17'
p176
aS'00:00:00:00:01:18'
p177
aS'00:00:00:00:01:19'
p178
aS'00:00:00:00:01:1a'
p179
aS'00:00:00:00:01:1b'
p180
aS'00:00:00:00:01:1c'
p181
aS'00:00:00:00:01:1d'
p182
aS'00:00:00:00:01:1e'
p183
aS'00:00:00:00:01:1f'
p184
aS'00:00:00:00:01:20'
p185
aS'00:00:00:00:01:21'
p186
aS'00:00:00:00:01:22'
p187
aS'00:00:00:00:01:23'
p188
aS'00:00:00:00:01:24'
p189
aS'00:00:00:00:01:25'
p190
aS'00:00:00:00:01:26'
p191
aS'00:00:00:00:01:27'
p192
aS'00:00:00:00:01:28'
p193
aS'00:00:00:00:01:29'
p194
aS'00:00:00:00:01:2a'
p195
aS'00:00:00:00:01:2b'
p196
aS'00:00:00:00:01:2c'
p197
aS'00:00:00:00:01:2d'
p198
aS'00:00:00:00:01:2e'
p199
aS'00:00:00:00:01:2f'
p200
aS'00:00:00:00:01:30'
p201
aS'00:00:00:00:01:31'
p202
aS'00:00:00:00:01:32'
p203
aS'00:00:00:00:01:33'
p204
aS'00:00:00:00:01:34'
p205
aS'00:00:00:00:01:35'
p206
aS'00:00:00:00:01:36'
p207
aS'00:00:00:00:01:37'
p208
aS'00:00:00:00:01:38'
p209
aS'00:00:00:00:01:39'
p210
aS'00:00:00:00:01:3a'
p211
aS'00:00:00:00:01:3b'
p212
aS'00:00:00:00:01:3c'
p213
aS'00:00:00:00:01:3d'
p214
aS'00:00:00:00:01:3e'
p215
aS'00:00:00:00:01:3f'
p216
aS'00:00:00:00:01:40'
p217
aS'00:00:00:00:01:41'
p218
aS'00:00:00:00:01:42'
p219
aS'00:00:00:00:01:43'
p220
aS'00:00:00:00:01:44'
p221
aS'00:00:00:00:01:45'
p222
aS'00:00:00:00:01:46'
p223
aS'00:00:00:00:01:47'
p224
aS'00:00:00:00:01:48'
p225
aS'00:00:00:00:01:49'
p226
aS'00:00:00:00:01:4a'
p227
aS'00:00:00:00:01:4b'
p228
aS'00:00:00:00:01:4c'
p229
aS'00:00:00:00:01:4d'
p230
aS'00:00:00:00:01:4e'
p231
aS'00:00:00:00:01:4f'
p232
aS'00:00:00:00:01:50'
p233
aS'00:00:00:00:01:51'
p234
aS'00:00:00:00:01:52'
p235
aS'00:00:00:00:01:53'
p236
aS'00:00:00:00:01:54'
p237
aS'00:00:00:00:01:55'
p238
aS'00:00:00:00:01:56'
p239
aS'00:00:00:00:01:57'
p240
aS'00:00:00:00:01:58'
p241
aS'00:00:00:00:01:59'
p242
aS'00:00:00:00:01:5a'
p243
aS'00:00:00:00:01:5b'
p244
aS'00:00:00:00:01:5c'
p245
aS'00:00:00:00:01:5d'
p246
aS'00:00:00:00:01:5e'
p247
aS'00:00:00:00:01:5f'
p248
aS'00:00:00:00:01:60'
p249
aS'00:00:00:00:01:61'
p250
aS'00:00:00:00:01:62'
p251
aS'00:00:00:00:01:63'
p252
aS'00:00:00:00:01:64'
p253
aS'00:00:00:00:01:65'
p254
aS'00:00:00:00:01:66'
p255
aS'00:00:00:00:01:67'
p256
aS'00:00:00:00:01:68'
p257
aS'00:00:00:00:01:69'
p258
aS'00:00:00:00:01:6a'
p259
aS'00:00:00:00:01:6b'
p260
aS'00:00:00:00:01:6c'
p261
aS'00:00:00:00:01:6d'
p262
aS'00:00:00:00:01:6e'
p263
aS'00:00:00:00:01:6f'
p264
aS'00:00:00:00:01:70'
p265
aS'00:00:00:00:01:71'
p266
aS'00:00:00:00:01:72'
p267
aS'00:00:00:00:01:73'
p268
aS'00:00:00:00:01:74'
p269
aS'00:00:00:00:01:75'
p270
aS'00:00:00:00:01:76'
p271
aS'00:00:00:00:01:77'
p272
aS'00:00:00:00:01:78'
p273
aS'00:00:00:00:01:79'
p274
aS'00:00:00:00:01:7a'
p275
aS'00:00:00:00:01:7b'
p276
aS'00:00:00:00:01:7c'
p277
aS'00:00:00:00:01:7d'
p278
aS'00:00:00:00:01:7e'
p279
aS'00:00:00:00:01:7f'
p280
aS'00:00:00:00:01:80'
p281
aS'00:00:00:00:01:81'
p282
aS'00:00:00:00:01:82'
p283
aS'00:00:00:00:01:83'
p284
aS'00:00:00:00:01:84'
p285
aS'00:00:00:00:01:85'
p286
aS'00:00:00:00:01:86'
p287
aS'00:00:00:00:01:87'
p288
aS'00:00:00:00:01:88'
p289
aS'00:00:00:00:01:89'
p290
aS'00:00:00:00:01:8a'
p291
aS'00:00:00:00:01:8b'
p292
aS'00:00:00:00:01:8c'
p293
aS'00:00:00:00:01:8d'
p294
aS'00:00:00:00:01:8e'
p295
aS'00:00:00:00:01:8f'
p296
aS'00:00:00:00:01:90'
p297
aS'00:00:00:00:01:91'
p298
aS'00:00:00:00:01:92'
p299
aS'00:00:00:00:01:93'
p300
aS'00:00:00:00:01:94'
p301
aS'00:00:00:00:01:95'
p302
aS'00:00:00:00:01:96'
p303
aS'00:00:00:00:01:97'
p304
aS'00:00:00:00:01:98'
p305
aS'00:00:00:00:01:99'
p306
aS'00:00:00:00:01:9a'
p307
aS'00:00:00:00:01:9b'
p308
aS'00:00:00:00:01:9c'
p309
aS'00:00:00:00:01:9d'
p310
aS'00:00:00:00:01:9e'
p311
aS'00:00:00:00:01:9f'
p312
aS'00:00:00:00:01:a0'
p313
aS'00:00:00:00:01:a1'
p314
aS'00:00:00:00:01:a2'
p315
aS'00:00:00:00:01:a3'
p316
aS'00:00:00:00:01:a4'
p317
aS'00:00:00:00:01:a5'
p318
aS'00:00:00:00:01:a6'
p319
aS'00:00:00:00:01:a7'
p320
aS'00:00:00:00:01:a8'
p321
aS'00:00:00:00:01:a9'
p322
aS'00:00:00:00:01:aa'
p323
aS'00:00:00:00:01:ab'
p324
aS'00:00:00:00:01:ac'
p325
aS'00:00:00:00:01:ad'
p326
aS'00:00:00:00:01:ae'
p327
aS'00:00:00:00:01:af'
p328
aS'00:00:00:00:01:b0'
p329
aS'00:00:00:00:01:b1'
p330
aS'00:00:00:00:01:b2'
p331
aS'00:00:00:00:01:b3'
p332
aS'00:00:00:00:01:b4'
p333
aS'00:00:00:00:01:b5'
p334
aS'00:00:00:00:01:b6'
p335
aS'00:00:00:00:01:b7'
p336
aS'00:00:00:00:01:b8'
p337
aS'00:00:00:00:01:b9'
p338
aS'00:00:00:00:01:ba'
p339
aS'00:00:00:00:01:bb'
p340
aS'00:00:00:00:01:bc'
p341
aS'00:00:00:00:01:bd'
p342
aS'00:00:00:00:01:be'
p343
aS'00:00:00:00:01:bf'
p344
aS'00:00:00:00:01:c0'
p345
aS'00:00:00:00:01:c1'
p346
aS'00:00:00:00:01:c2'
p347
aS'00:00:00:00:01:c3'
p348
aS'00:00:00:00:01:c4'
p349
aS'00:00:00:00:01:c5'
p350
aS'00:00:00:00:01:c6'
p351
aS'00:00:00:00:01:c7'
p352
aS'00:00:00:00:01:c8'
p353
aS'00:00:00:00:01:c9'
p354
aS'00:00:00:00:01:ca'
p355
aS'00:00:00:00:01:cb'
p356
aS'00:00:00:00:01:cc'
p357
aS'00:00:00:00:01:cd'
p358
aS'00:00:00:00:01:ce'
p359
aS'00:00:00:00:01:cf'
p360
aS'00:00:00:00:01:d0'
p361
aS'00:00:00:00:01:d1'
p362
aS'00:00:00:00:01:d2'
p363
aS'00:00:00:00:01:d3'
p364
aS'00:00:00:00:01:d4'
p365
aS'00:00:00:00:01:d5'
p366
aS'00:00:00:00:01:d6'
p367
aS'00:00:00:00:01:d7'
p368
aS'00:00:00:00:01:d8'
p369
aS'00:00:00:00:01:d9'
p370
aS'00:00:00:00:01:da'
p371
aS'00:00:00:00:01:db'
p372
aS'00:00:00:00:01:dc'
p373
aS'00:00:00:00:01:dd'
p374
aS'00:00:00:00:01:de'
p375
aS'00:00:00:00:01:df'
p376
aS'00:00:00:00:01:e0'
p377
aS'00:00:00:00:01:e1'
p378
aS'00:00:00:00:01:e2'
p379
aS'00:00:00:00:01:e3'
p380
aS'00:00:00:00:01:e4'
p381
aS'00:00:00:00:01:e5'
p382
aS'00:00:00:00:01:e6'
p383
aS'00:00:00:00:01:e7'
p384
aS'00:00:00:00:01:e8'
p385
aS'00:00:00:00:01:e9'
p386
aS'00:00:00:00:01:ea'
p387
aS'00:00:00:00:01:eb'
p388
aS'00:00:00:00:01:ec'
p389
aS'00:00:00:00:01:ed'
p390
aS'00:00:00:00:01:ee'
p391
aS'00:00:00:00:01:ef'
p392
aS'00:00:00:00:01:f0'
p393
aS'00:00:00:00:01:f1'
p394
aS'00:00:00:00:01:f2'
p395
aS'00:00:00:00:01:f3'
p396
aS'00:00:00:00:01:f4'
p397
aS'00:00:00:00:01:f5'
p398
aS'00:00:00:00:01:f6'
p399
aS'00:00:00:00:01:f7'
p400
aS'00:00:00:00:01:f8'
p401
aS'00:00:00:00:01:f9'
p402
aS'00:00:00:00:01:fa'
p403
aS'00:00:00:00:01:fb'
p404
aS'00:00:00:00:01:fc'
p405
aS'00:00:00:00:01:fd'
p406
aS'00:00:00:00:01:fe'
p407
aS'00:00:00:00:01:ff'
p408
aS'00:00:00:00:02:00'
p409
aS'00:00:00:00:02:01'
p410
aS'00:00:00:00:02:02'
p411
aS'00:00:00:00:02:03'
p412
aS'00:00:00:00:02:04'
p413
aS'00:00:00:00:02:05'
p414
aS'00:00:00:00:02:06'
p415
aS'00:00:00:00:02:07'
p416
aS'00:00:00:00:02:08'
p417
aS'00:00:00:00:02:09'
p418
aS'00:00:00:00:02:0a'
p419
aS'00:00:00:00:02:0b'
p420
aS'00:00:00:00:02:0c'
p421
aS'00:00:00:00:02:0d'
p422
aS'00:00:00:00:02:0e'
p423
aS'00:00:00:00:02:0f'
p424
aS'00:00:00:00:02:10'
p425
aS'00:00:00:00:02:11'
p426
aS'00:00:00:00:02:12'
p427
aS'00:00:00:00:02:13'
p428
aS'00:00:00:00:02:14'
p429
aS'00:00:00:00:02:15'
p430
aS'00:00:00:00:02:16'
p431
aS'00:00:00:00:02:17'
p432
aS'00:00:00:00:02:18'
p433
aS'00:00:00:00:02:19'
p434
aS'00:00:00:00:02:1a'
p435
aS'00:00:00:00:02:1b'
p436
aS'00:00:00:00:02:1c'
p437
aS'00:00:00:00:02:1d'
p438
aS'00:00:00:00:02:1e'
p439
aS'00:00:00:00:02:1f'
p440
aS'00:00:00:00:02:20'
p441
aS'00:00:00:00:02:21'
p442
aS'00:00:00:00:02:22'
p443
aS'00:00:00:00:02:23'
p444
aS'00:00:00:00:02:24'
p445
aS'00:00:00:00:02:25'
p446
aS'00:00:00:00:02:26'
p447
aS'00:00:00:00:02:27'
p448
aS'00:00:00:00:02:28'
p449
aS'00:00:00:00:02:29'
p450
aS'00:00:00:00:02:2a'
p451
aS'00:00:00:00:02:2b'
p452
aS'00:00:00:00:02:2c'
p453
aS'00:00:00:00:02:2d'
p454
aS'00:00:00:00:02:2e'
p455
aS'00:00:00:00:02:2f'
p456
aS'00:00:00:00:02:30'
p457
aS'00:00:00:00:02:31'
p458
aS'00:00:00:00:02:32'
p459
aS'00:00:00:00:02:33'
p460
aS'00:00:00:00:02:34'
p461
aS'00:00:00:00:02:35'
p462
aS'00:00:00:00:02:36'
p463
aS'00:00:00:00:02:37'
p464
aS'00:00:00:00:02:38'
p465
aS'00:00:00:00:02:39'
p466
aS'00:00:00:00:02:3a'
p467
aS'00:00:00:00:02:3b'
p468
aS'00:00:00:00:02:3c'
p469
aS'00:00:00:00:02:3d'
p470
aS'00:00:00:00:02:3e'
p471
aS'00:00:00:00:02:3f'
p472
aS'00:00:00:00:02:40'
p473
aS'00:00:00:00:02:41'
p474
aS'00:00:00:00:02:42'
p475
aS'00:00:00:00:02:43'
p476
aS'00:00:00:00:02:44'
p477
aS'00:00:00:00:02:45'
p478
aS'00:00:00:00:02:46'
p479
aS'00:00:00:00:02:47'
p480
aS'00:00:00:00:02:48'
p481
aS'00:00:00:00:02:49'
p482
aS'00:00:00:00:02:4a'
p483
aS'00:00:00:00:02:4b'
p484
aS'00:00:00:00:02:4c'
p485
aS'00:00:00:00:02:4d'
p486
aS'00:00:00:00:02:4e'
p487
aS'00:00:00:00:02:4f'
p488
aS'00:00:00:00:02:50'
p489
aS'00:00:00:00:02:51'
p490
aS'00:00:00:00:02:52'
p491
aS'00:00:00:00:02:53'
p492
aS'00:00:00:00:02:54'
p493
aS'00:00:00:00:02:55'
p494
aS'00:00:00:00:02:56'
p495
aS'00:00:00:00:02:57'
p496
aS'00:00:00:00:02:58'
p497
aS'00:00:00:00:02:59'
p498
aS'00:00:00:00:02:5a'
p499
aS'00:00:00:00:02:5b'
p500
aS'00:00:00:00:02:5c'
p501
aS'00:00:00:00:02:5d'
p502
aS'00:00:00:00:02:5e'
p503
aS'00:00:00:00:02:5f'
p504
aS'00:00:00:00:02:60'
p505
aS'00:00:00:00:02:61'
p506
aS'00:00:00:00:02:62'
p507
aS'00:00:00:00:02:63'
p508
aS'00:00:00:00:02:64'
p509
aS'00:00:00:00:02:65'
p510
aS'00:00:00:00:02:66'
p511
aS'00:00:00:00:02:67'
p512
aS'00:00:00:00:02:68'
p513
aS'00:00:00:00:02:69'
p514
aS'00:00:00:00:02:6a'
p515
aS'00:00:00:00:02:6b'
p516
aS'00:00:00:00:02:6c'
p517
aS'00:00:00:00:02:6d'
p518
aS'00:00:00:00:02:6e'
p519
aS'00:00:00:00:02:6f'
p520
aS'00:00:00:00:02:70'
p521
aS'00:00:00:00:02:71'
p522
aS'00:00:00:00:02:72'
p523
aS'00:00:00:00:02:73'
p524
aS'00:00:00:00:02:74'
p525
aS'00:00:00:00:02:75'
p526
aS'00:00:00:00:02:76'
p527
aS'00:00:00:00:02:77'
p528
aS'00:00:00:00:02:78'
p529
aS'00:00:00:00:02:79'
p530
aS'00:00:00:00:02:7a'
p531
aS'00:00:00:00:02:7b'
p532
aS'00:00:00:00:02:7c'
p533
aS'00:00:00:00:02:7d'
p534
aS'00:00:00:00:02:7e'
p535
aS'00:00:00:00:02:7f'
p536
aS'00:00:00:00:02:80'
p537
aS'00:00:00:00:02:81'
p538
aS'00:00:00:00:02:82'
p539
aS'00:00:00:00:02:83'
p540
aS'00:00:00:00:02:84'
p541
aS'00:00:00:00:02:85'
p542
aS'00:00:00:00:02:86'
p543
aS'00:00:00:00:02:87'
p544
aS'00:00:00:00:02:88'
p545
aS'00:00:00:00:02:89'
p546
aS'00:00:00:00:02:8a'
p547
aS'00:00:00:00:02:8b'
p548
aS'00:00:00:00:02:8c'
p549
aS'00:00:00:00:02:8d'
p550
aS'00:00:00:00:02:8e'
p551
aS'00:00:00:00:02:8f'
p552
aS'00:00:00:00:02:90'
p553
aS'00:00:00:00:02:91'
p554
aS'00:00:00:00:02:92'
p555
aS'00:00:00:00:02:93'
p556
aS'00:00:00:00:02:94'
p557
aS'00:00:00:00:02:95'
p558
aS'00:00:00:00:02:96'
p559
aS'00:00:00:00:02:97'
p560
aS'00:00:00:00:02:98'
p561
aS'00:00:00:00:02:99'
p562
aS'00:00:00:00:02:9a'
p563
aS'00:00:00:00:02:9b'
p564
aS'00:00:00:00:02:9c'
p565
aS'00:00:00:00:02:9d'
p566
aS'00:00:00:00:02:9e'
p567
aS'00:00:00:00:02:9f'
p568
aS'00:00:00:00:02:a0'
p569
aS'00:00:00:00:02:a1'
p570
aS'00:00:00:00:02:a2'
p571
aS'00:00:00:00:02:a3'
p572
aS'00:00:00:00:02:a4'
p573
aS'00:00:00:00:02:a5'
p574
aS'00:00:00:00:02:a6'
p575
aS'00:00:00:00:02:a7'
p576
aS'00:00:00:00:02:a8'
p577
aS'00:00:00:00:02:a9'
p578
aS'00:00:00:00:02:aa'
p579
aS'00:00:00:00:02:ab'
p580
aS'00:00:00:00:02:ac'
p581
aS'00:00:00:00:02:ad'
p582
aS'00:00:00:00:02:ae'
p583
aS'00:00:00:00:02:af'
p584
aS'00:00:00:00:02:b0'
p585
aS'00:00:00:00:02:b1'
p586
aS'00:00:00:00:02:b2'
p587
aS'00:00:00:00:02:b3'
p588
aS'00:00:00:00:02:b4'
p589
aS'00:00:00:00:02:b5'
p590
aS'00:00:00:00:02:b6'
p591
aS'00:00:00:00:02:b7'
p592
aS'00:00:00:00:02:b8'
p593
aS'00:00:00:00:02:b9'
p594
aS'00:00:00:00:02:ba'
p595
aS'00:00:00:00:02:bb'
p596
aS'00:00:00:00:02:bc'
p597
aS'00:00:00:00:02:bd'
p598
aS'00:00:00:00:02:be'
p599
aS'00:00:00:00:02:bf'
p600
aS'00:00:00:00:02:c0'
p601
aS'00:00:00:00:02:c1'
p602
aS'00:00:00:00:02:c2'
p603
aS'00:00:00:00:02:c3'
p604
aS'00:00:00:00:02:c4'
p605
aS'00:00:00:00:02:c5'
p606
aS'00:00:00:00:02:c6'
p607
aS'00:00:00:00:02:c7'
p608
aS'00:00:00:00:02:c8'
p609
aS'00:00:00:00:02:c9'
p610
aS'00:00:00:00:02:ca'
p611
aS'00:00:00:00:02:cb'
p612
aS'00:00:00:00:02:cc'
p613
aS'00:00:00:00:02:cd'
p614
aS'00:00:00:00:02:ce'
p615
aS'00:00:00:00:02:cf'
p616
aS'00:00:00:00:02:d0'
p617
aS'00:00:00:00:02:d1'
p618
aS'00:00:00:00:02:d2'
p619
aS'00:00:00:00:02:d3'
p620
aS'00:00:00:00:02:d4'
p621
aS'00:00:00:00:02:d5'
p622
aS'00:00:00:00:02:d6'
p623
aS'00:00:00:00:02:d7'
p624
aS'00:00:00:00:02:d8'
p625
aS'00:00:00:00:02:d9'
p626
aS'00:00:00:00:02:da'
p627
aS'00:00:00:00:02:db'
p628
aS'00:00:00:00:02:dc'
p629
aS'00:00:00:00:02:dd'
p630
aS'00:00:00:00:02:de'
p631
aS'00:00:00:00:02:df'
p632
aS'00:00:00:00:02:e0'
p633
aS'00:00:00:00:02:e1'
p634
aS'00:00:00:00:02:e2'
p635
aS'00:00:00:00:02:e3'
p636
aS'00:00:00:00:02:e4'
p637
aS'00:00:00:00:02:e5'
p638
aS'00:00:00:00:02:e6'
p639
aS'00:00:00:00:02:e7'
p640
aS'00:00:00:00:02:e8'
p641
aS'00:00:00:00:02:e9'
p642
aS'00:00:00:00:02:ea'
p643
aS'00:00:00:00:02:eb'
p644
aS'00:00:00:00:02:ec'
p645
aS'00:00:00:00:02:ed'
p646
aS'00:00:00:00:02:ee'
p647
aS'00:00:00:00:02:ef'
p648
aS'00:00:00:00:02:f0'
p649
aS'00:00:00:00:02:f1'
p650
aS'00:00:00:00:02:f2'
p651
aS'00:00:00:00:02:f3'
p652
aS'00:00:00:00:02:f4'
p653
aS'00:00:00:00:02:f5'
p654
aS'00:00:00:00:02:f6'
p655
aS'00:00:00:00:02:f7'
p656
aS'00:00:00:00:02:f8'
p657
aS'00:00:00:00:02:f9'
p658
aS'00:00:00:00:02:fa'
p659
aS'00:00:00:00:02:fb'
p660
aS'00:00:00:00:02:fc'
p661
aS'00:00:00:00:02:fd'
p662
aS'00:00:00:00:02:fe'
p663
aS'00:00:00:00:02:ff'
p664
aS'00:00:00:00:03:00'
p665
aS'00:00:00:00:03:01'
p666
aS'00:00:00:00:03:02'
p667
aS'00:00:00:00:03:03'
p668
aS'00:00:00:00:03:04'
p669
aS'00:00:00:00:03:05'
p670
aS'00:00:00:00:03:06'
p671
aS'00:00:00:00:03:07'
p672
aS'00:00:00:00:03:08'
p673
aS'00:00:00:00:03:09'
p674
aS'00:00:00:00:03:0a'
p675
aS'00:00:00:00:03:0b'
p676
aS'00:00:00:00:03:0c'
p677
aS'00:00:00:00:03:0d'
p678
aS'00:00:00:00:03:0e'
p679
aS'00:00:00:00:03:0f'
p680
aS'00:00:00:00:03:10'
p681
aS'00:00:00:00:03:11'
p682
aS'00:00:00:00:03:12'
p683
aS'00:00:00:00:03:13'
p684
aS'00:00:00:00:03:14'
p685
aS'00:00:00:00:03:15'
p686
aS'00:00:00:00:03:16'
p687
aS'00:00:00:00:03:17'
p688
aS'00:00:00:00:03:18'
p689
aS'00:00:00:00:03:19'
p690
aS'00:00:00:00:03:1a'
p691
aS'00:00:00:00:03:1b'
p692
aS'00:00:00:00:03:1c'
p693
aS'00:00:00:00:03:1d'
p694
aS'00:00:00:00:03:1e'
p695
aS'00:00:00:00:03:1f'
p696
aS'00:00:00:00:03:20'
p697
aS'00:00:00:00:03:21'
p698
aS'00:00:00:00:03:22'
p699
aS'00:00:00:00:03:23'
p700
aS'00:00:00:00:03:24'
p701
aS'00:00:00:00:03:25'
p702
aS'00:00:00:00:03:26'
p703
aS'00:00:00:00:03:27'
p704
aS'00:00:00:00:03:28'
p705
aS'00:00:00:00:03:29'
p706
aS'00:00:00:00:03:2a'
p707
aS'00:00:00:00:03:2b'
p708
aS'00:00:00:00:03:2c'
p709
aS'00:00:00:00:03:2d'
p710
aS'00:00:00:00:03:2e'
p711
aS'00:00:00:00:03:2f'
p712
aS'00:00:00:00:03:30'
p713
aS'00:00:00:00:03:31'
p714
aS'00:00:00:00:03:32'
p715
aS'00:00:00:00:03:33'
p716
aS'00:00:00:00:03:34'
p717
aS'00:00:00:00:03:35'
p718
aS'00:00:00:00:03:36'
p719
aS'00:00:00:00:03:37'
p720
aS'00:00:00:00:03:38'
p721
aS'00:00:00:00:03:39'
p722
aS'00:00:00:00:03:3a'
p723
aS'00:00:00:00:03:3b'
p724
aS'00:00:00:00:03:3c'
p725
aS'00:00:00:00:03:3d'
p726
aS'00:00:00:00:03:3e'
p727
aS'00:00:00:00:03:3f'
p728
aS'00:00:00:00:03:40'
p729
aS'00:00:00:00:03:41'
p730
aS'00:00:00:00:03:42'
p731
aS'00:00:00:00:03:43'
p732
aS'00:00:00:00:03:44'
p733
aS'00:00:00:00:03:45'
p734
aS'00:00:00:00:03:46'
p735
aS'00:00:00:00:03:47'
p736
aS'00:00:00:00:03:48'
p737
aS'00:00:00:00:03:49'
p738
aS'00:00:00:00:03:4a'
p739
aS'00:00:00:00:03:4b'
p740
aS'00:00:00:00:03:4c'
p741
aS'00:00:00:00:03:4d'
p742
aS'00:00:00:00:03:4e'
p743
aS'00:00:00:00:03:4f'
p744
aS'00:00:00:00:03:50'
p745
aS'00:00:00:00:03:51'
p746
aS'00:00:00:00:03:52'
p747
aS'00:00:00:00:03:53'
p748
aS'00:00:00:00:03:54'
p749
aS'00:00:00:00:03:55'
p750
aS'00:00:00:00:03:56'
p751
aS'00:00:00:00:03:57'
p752
aS'00:00:00:00:03:58'
p753
aS'00:00:00:00:03:59'
p754
aS'00:00:00:00:03:5a'
p755
aS'00:00:00:00:03:5b'
p756
aS'00:00:00:00:03:5c'
p757
aS'00:00:00:00:03:5d'
p758
aS'00:00:00:00:03:5e'
p759
aS'00:00:00:00:03:5f'
p760
aS'00:00:00:00:03:60'
p761
aS'00:00:00:00:03:61'
p762
aS'00:00:00:00:03:62'
p763
aS'00:00:00:00:03:63'
p764
aS'00:00:00:00:03:64'
p765
aS'00:00:00:00:03:65'
p766
aS'00:00:00:00:03:66'
p767
aS'00:00:00:00:03:67'
p768
aS'00:00:00:00:03:68'
p769
aS'00:00:00:00:03:69'
p770
aS'00:00:00:00:03:6a'
p771
aS'00:00:00:00:03:6b'
p772
aS'00:00:00:00:03:6c'
p773
aS'00:00:00:00:03:6d'
p774
aS'00:00:00:00:03:6e'
p775
aS'00:00:00:00:03:6f'
p776
aS'00:00:00:00:03:70'
p777
aS'00:00:00:00:03:71'
p778
aS'00:00:00:00:03:72'
p779
aS'00:00:00:00:03:73'
p780
aS'00:00:00:00:03:74'
p781
aS'00:00:00:00:03:75'
p782
aS'00:00:00:00:03:76'
p783
aS'00:00:00:00:03:77'
p784
aS'00:00:00:00:03:78'
p785
aS'00:00:00:00:03:79'
p786
aS'00:00:00:00:03:7a'
p787
aS'00:00:00:00:03:7b'
p788
aS'00:00:00:00:03:7c'
p789
aS'00:00:00:00:03:7d'
p790
aS'00:00:00:00:03:7e'
p791
aS'00:00:00:00:03:7f'
p792
aS'00:00:00:00:03:80'
p793
aS'00:00:00:00:03:81'
p794
aS'00:00:00:00:03:82'
p795
aS'00:00:00:00:03:83'
p796
aS'00:00:00:00:03:84'
p797
aS'00:00:00:00:03:85'
p798
aS'00:00:00:00:03:86'
p799
aS'00:00:00:00:03:87'
p800
aS'00:00:00:00:03:88'
p801
aS'00:00:00:00:03:89'
p802
aS'00:00:00:00:03:8a'
p803
aS'00:00:00:00:03:8b'
p804
aS'00:00:00:00:03:8c'
p805
aS'00:00:00:00:03:8d'
p806
aS'00:00:00:00:03:8e'
p807
aS'00:00:00:00:03:8f'
p808
aS'00:00:00:00:03:90'
p809
aS'00:00:00:00:03:91'
p810
aS'00:00:00:00:03:92'
p811
aS'00:00:00:00:03:93'
p812
aS'00:00:00:00:03:94'
p813
aS'00:00:00:00:03:95'
p814
aS'00:00:00:00:03:96'
p815
aS'00:00:00:00:03:97'
p816
aS'00:00:00:00:03:98'
p817
aS'00:00:00:00:03:99'
p818
aS'00:00:00:00:03:9a'
p819
aS'00:00:00:00:03:9b'
p820
aS'00:00:00:00:03:9c'
p821
aS'00:00:00:00:03:9d'
p822
aS'00:00:00:00:03:9e'
p823
aS'00:00:00:00:03:9f'
p824
aS'00:00:00:00:03:a0'
p825
aS'00:00:00:00:03:a1'
p826
aS'00:00:00:00:03:a2'
p827
aS'00:00:00:00:03:a3'
p828
aS'00:00:00:00:03:a4'
p829
aS'00:00:00:00:03:a5'
p830
aS'00:00:00:00:03:a6'
p831
aS'00:00:00:00:03:a7'
p832
aS'00:00:00:00:03:a8'
p833
aS'00:00:00:00:03:a9'
p834
aS'00:00:00:00:03:aa'
p835
aS'00:00:00:00:03:ab'
p836
aS'00:00:00:00:03:ac'
p837
aS'00:00:00:00:03:ad'
p838
aS'00:00:00:00:03:ae'
p839
aS'00:00:00:00:03:af'
p840
aS'00:00:00:00:03:b0'
p841
aS'00:00:00:00:03:b1'
p842
aS'00:00:00:00:03:b2'
p843
aS'00:00:00:00:03:b3'
p844
aS'00:00:00:00:03:b4'
p845
aS'00:00:00:00:03:b5'
p846
aS'00:00:00:00:03:b6'
p847
aS'00:00:00:00:03:b7'
p848
aS'00:00:00:00:03:b8'
p849
aS'00:00:00:00:03:b9'
p850
aS'00:00:00:00:03:ba'
p851
aS'00:00:00:00:03:bb'
p852
aS'00:00:00:00:03:bc'
p853
aS'00:00:00:00:03:bd'
p854
aS'00:00:00:00:03:be'
p855
aS'00:00:00:00:03:bf'
p856
aS'00:00:00:00:03:c0'
p857
aS'00:00:00:00:03:c1'
p858
aS'00:00:00:00:03:c2'
p859
aS'00:00:00:00:03:c3'
p860
aS'00:00:00:00:03:c4'
p861
aS'00:00:00:00:03:c5'
p862
aS'00:00:00:00:03:c6'
p863
aS'00:00:00:00:03:c7'
p864
aS'00:00:00:00:03:c8'
p865
aS'00:00:00:00:03:c9'
p866
aS'00:00:00:00:03:ca'
p867
aS'00:00:00:00:03:cb'
p868
aS'00:00:00:00:03:cc'
p869
aS'00:00:00:00:03:cd'
p870
aS'00:00:00:00:03:ce'
p871
aS'00:00:00:00:03:cf'
p872
aS'00:00:00:00:03:d0'
p873
aS'00:00:00:00:03:d1'
p874
aS'00:00:00:00:03:d2'
p875
aS'00:00:00:00:03:d3'
p876
aS'00:00:00:00:03:d4'
p877
aS'00:00:00:00:03:d5'
p878
aS'00:00:00:00:03:d6'
p879
aS'00:00:00:00:03:d7'
p880
aS'00:00:00:00:03:d8'
p881
aS'00:00:00:00:03:d9'
p882
aS'00:00:00:00:03:da'
p883
aS'00:00:00:00:03:db'
p884
aS'00:00:00:00:03:dc'
p885
aS'00:00:00:00:03:dd'
p886
aS'00:00:00:00:03:de'
p887
aS'00:00:00:00:03:df'
p888
aS'00:00:00:00:03:e0'
p889
aS'00:00:00:00:03:e1'
p890
aS'00:00:00:00:03:e2'
p891
aS'00:00:00:00:03:e3'
p892
aS'00:00:00:00:03:e4'
p893
aS'00:00:00:00:03:e5'
p894
aS'00:00:00:00:03:e6'
p895
aS'00:00:00:00:03:e7'
p896
aS'00:00:00:00:03:e8'
p897
aS'00:00:00:00:03:e9'
p898
aS'00:00:00:00:03:ea'
p899
aS'00:00:00:00:03:eb'
p900
aS'00:00:00:00:03:ec'
p901
aS'00:00:00:00:03:ed'
p902
aS'00:00:00:00:03:ee'
p903
aS'00:00:00:00:03:ef'
p904
aS'00:00:00:00:03:f0'
p905
aS'00:00:00:00:03:f1'
p906
aS'00:00:00:00:03:f2'
p907
aS'00:00:00:00:03:f3'
p908
aS'00:00:00:00:03:f4'
p909
aS'00:00:00:00:03:f5'
p910
aS'00:00:00:00:03:f6'
p911
aS'00:00:00:00:03:f7'
p912
aS'00:00:00:00:03:f8'
p913
aS'00:00:00:00:03:f9'
p914
aS'00:00:00:00:03:fa'
p915
aS'00:00:00:00:03:fb'
p916
aS'00:00:00:00:03:fc'
p917
aS'00:00:00:00:03:fd'
p918
aS'00:00:00:00:03:fe'
p919
aS'00:00:00:00:03:ff'
p920
aS'00:00:00:00:04:00'
p921
aS'00:00:00:00:04:01'
p922
aS'00:00:00:00:04:02'
p923
aS'00:00:00:00:04:03'
p924
aS'00:00:00:00:04:04'
p925
aS'00:00:00:00:04:05'
p926
aS'00:00:00:00:04:06'
p927
aS'00:00:00:00:04:07'
p928
aS'00:00:00:00:04:08'
p929
aS'00:00:00:00:04:09'
p930
aS'00:00:00:00:04:0a'
p931
aS'00:00:00:00:04:0b'
p932
aS'00:00:00:00:04:0c'
p933
aS'00:00:00:00:04:0d'
p934
aS'00:00:00:00:04:0e'
p935
aS'00:00:00:00:04:0f'
p936
aS'00:00:00:00:04:10'
p937
aS'00:00:00:00:04:11'
p938
aS'00:00:00:00:04:12'
p939
aS'00:00:00:00:04:13'
p940
aS'00:00:00:00:04:14'
p941
aS'00:00:00:00:04:15'
p942
aS'00:00:00:00:04:16'
p943
aS'00:00:00:00:04:17'
p944
aS'00:00:00:00:04:18'
p945
aS'00:00:00:00:04:19'
p946
aS'00:00:00:00:04:1a'
p947
aS'00:00:00:00:04:1b'
p948
aS'00:00:00:00:04:1c'
p949
aS'00:00:00:00:04:1d'
p950
aS'00:00:00:00:04:1e'
p951
aS'00:00:00:00:04:1f'
p952
aS'00:00:00:00:04:20'
p953
aS'00:00:00:00:04:21'
p954
aS'00:00:00:00:04:22'
p955
aS'00:00:00:00:04:23'
p956
aS'00:00:00:00:04:24'
p957
aS'00:00:00:00:04:25'
p958
aS'00:00:00:00:04:26'
p959
aS'00:00:00:00:04:27'
p960
aS'00:00:00:00:04:28'
p961
aS'00:00:00:00:04:29'
p962
aS'00:00:00:00:04:2a'
p963
aS'00:00:00:00:04:2b'
p964
aS'00:00:00:00:04:2c'
p965
aS'00:00:00:00:04:2d'
p966
aS'00:00:00:00:04:2e'
p967
aS'00:00:00:00:04:2f'
p968
aS'00:00:00:00:04:30'
p969
aS'00:00:00:00:04:31'
p970
aS'00:00:00:00:04:32'
p971
aS'00:00:00:00:04:33'
p972
aS'00:00:00:00:04:34'
p973
aS'00:00:00:00:04:35'
p974
aS'00:00:00:00:04:36'
p975
aS'00:00:00:00:04:37'
p976
aS'00:00:00:00:04:38'
p977
aS'00:00:00:00:04:39'
p978
aS'00:00:00:00:04:3a'
p979
aS'00:00:00:00:04:3b'
p980
aS'00:00:00:00:04:3c'
p981
aS'00:00:00:00:04:3d'
p982
aS'00:00:00:00:04:3e'
p983
aS'00:00:00:00:04:3f'
p984
aS'00:00:00:00:04:40'
p985
aS'00:00:00:00:04:41'
p986
aS'00:00:00:00:04:42'
p987
aS'00:00:00:00:04:43'
p988
aS'00:00:00:00:04:44'
p989
aS'00:00:00:00:04:45'
p990
aS'00:00:00:00:04:46'
p991
aS'00:00:00:00:04:47'
p992
aS'00:00:00:00:04:48'
p993
aS'00:00:00:00:04:49'
p994
aS'00:00:00:00:04:4a'
p995
aS'00:00:00:00:04:4b'
p996
aS'00:00:00:00:04:4c'
p997
aS'00:00:00:00:04:4d'
p998
aS'00:00:00:00:04:4e'
p999
aS'00:00:00:00:04:4f'
p1000
aS'00:00:00:00:04:50'
p1001
aS'00:00:00:00:04:51'
p1002
aS'00:00:00:00:04:52'
p1003
aS'00:00:00:00:04:53'
p1004
aS'00:00:00:00:04:54'
p1005
aS'00:00:00:00:04:55'
p1006
aS'00:00:00:00:04:56'
p1007
aS'00:00:00:00:04:57'
p1008
aS'00:00:00:00:04:58'
p1009
aS'00:00:00:00:04:59'
p1010
aS'00:00:00:00:04:5a'
p1011
aS'00:00:00:00:04:5b'
p1012
aS'00:00:00:00:04:5c'
p1013
aS'00:00:00:00:04:5d'
p1014
aS'00:00:00:00:04:5e'
p1015
aS'00:00:00:00:04:5f'
p1016
aS'00:00:00:00:04:60'
p1017
aS'00:00:00:00:04:61'
p1018
aS'00:00:00:00:04:62'
p1019
aS'00:00:00:00:04:63'
p1020
aS'00:00:00:00:04:64'
p1021
aS'00:00:00:00:04:65'
p1022
aS'00:00:00:00:04:66'
p1023
aS'00:00:00:00:04:67'
p1024
aS'00:00:00:00:04:68'
p1025
aS'00:00:00:00:04:69'
p1026
aS'00:00:00:00:04:6a'
p1027
aS'00:00:00:00:04:6b'
p1028
aS'00:00:00:00:04:6c'
p1029
aS'00:00:00:00:04:6d'
p1030
aS'00:00:00:00:04:6e'
p1031
aS'00:00:00:00:04:6f'
p1032
aS'00:00:00:00:04:70'
p1033
aS'00:00:00:00:04:71'
p1034
aS'00:00:00:00:04:72'
p1035
aS'00:00:00:00:04:73'
p1036
aS'00:00:00:00:04:74'
p1037
aS'00:00:00:00:04:75'
p1038
aS'00:00:00:00:04:76'
p1039
aS'00:00:00:00:04:77'
p1040
aS'00:00:00:00:04:78'
p1041
aS'00:00:00:00:04:79'
p1042
aS'00:00:00:00:04:7a'
p1043
aS'00:00:00:00:04:7b'
p1044
aS'00:00:00:00:04:7c'
p1045
aS'00:00:00:00:04:7d'
p1046
aS'00:00:00:00:04:7e'
p1047
aS'00:00:00:00:04:7f'
p1048
aS'00:00:00:00:04:80'
p1049
aS'00:00:00:00:04:81'
p1050
aS'00:00:00:00:04:82'
p1051
aS'00:00:00:00:04:83'
p1052
aS'00:00:00:00:04:84'
p1053
aS'00:00:00:00:04:85'
p1054
aS'00:00:00:00:04:86'
p1055
aS'00:00:00:00:04:87'
p1056
aS'00:00:00:00:04:88'
p1057
aS'00:00:00:00:04:89'
p1058
aS'00:00:00:00:04:8a'
p1059
aS'00:00:00:00:04:8b'
p1060
aS'00:00:00:00:04:8c'
p1061
aS'00:00:00:00:04:8d'
p1062
aS'00:00:00:00:04:8e'
p1063
aS'00:00:00:00:04:8f'
p1064
aS'00:00:00:00:04:90'
p1065
aS'00:00:00:00:04:91'
p1066
aS'00:00:00:00:04:92'
p1067
aS'00:00:00:00:04:93'
p1068
aS'00:00:00:00:04:94'
p1069
aS'00:00:00:00:04:95'
p1070
aS'00:00:00:00:04:96'
p1071
aS'00:00:00:00:04:97'
p1072
aS'00:00:00:00:04:98'
p1073
aS'00:00:00:00:04:99'
p1074
aS'00:00:00:00:04:9a'
p1075
aS'00:00:00:00:04:9b'
p1076
aS'00:00:00:00:04:9c'
p1077
aS'00:00:00:00:04:9d'
p1078
aS'00:00:00:00:04:9e'
p1079
aS'00:00:00:00:04:9f'
p1080
aS'00:00:00:00:04:a0'
p1081
aS'00:00:00:00:04:a1'
p1082
aS'00:00:00:00:04:a2'
p1083
aS'00:00:00:00:04:a3'
p1084
aS'00:00:00:00:04:a4'
p1085
aS'00:00:00:00:04:a5'
p1086
aS'00:00:00:00:04:a6'
p1087
aS'00:00:00:00:04:a7'
p1088
aS'00:00:00:00:04:a8'
p1089
aS'00:00:00:00:04:a9'
p1090
aS'00:00:00:00:04:aa'
p1091
aS'00:00:00:00:04:ab'
p1092
aS'00:00:00:00:04:ac'
p1093
aS'00:00:00:00:04:ad'
p1094
aS'00:00:00:00:04:ae'
p1095
aS'00:00:00:00:04:af'
p1096
aS'00:00:00:00:04:b0'
p1097
aS'00:00:00:00:04:b1'
p1098
aS'00:00:00:00:04:b2'
p1099
aS'00:00:00:00:04:b3'
p1100
aS'00:00:00:00:04:b4'
p1101
aS'00:00:00:00:04:b5'
p1102
aS'00:00:00:00:04:b6'
p1103
aS'00:00:00:00:04:b7'
p1104
aS'00:00:00:00:04:b8'
p1105
aS'00:00:00:00:04:b9'
p1106
aS'00:00:00:00:04:ba'
p1107
aS'00:00:00:00:04:bb'
p1108
aS'00:00:00:00:04:bc'
p1109
aS'00:00:00:00:04:bd'
p1110
aS'00:00:00:00:04:be'
p1111
aS'00:00:00:00:04:bf'
p1112
aS'00:00:00:00:04:c0'
p1113
aS'00:00:00:00:04:c1'
p1114
aS'00:00:00:00:04:c2'
p1115
aS'00:00:00:00:04:c3'
p1116
aS'00:00:00:00:04:c4'
p1117
aS'00:00:00:00:04:c5'
p1118
aS'00:00:00:00:04:c6'
p1119
aS'00:00:00:00:04:c7'
p1120
aS'00:00:00:00:04:c8'
p1121
aS'00:00:00:00:04:c9'
p1122
aS'00:00:00:00:04:ca'
p1123
aS'00:00:00:00:04:cb'
p1124
aS'00:00:00:00:04:cc'
p1125
aS'00:00:00:00:04:cd'
p1126
aS'00:00:00:00:04:ce'
p1127
aS'00:00:00:00:04:cf'
p1128
aS'00:00:00:00:04:d0'
p1129
aS'00:00:00:00:04:d1'
p1130
aS'00:00:00:00:04:d2'
p1131
aS'00:00:00:00:04:d3'
p1132
aS'00:00:00:00:04:d4'
p1133
aS'00:00:00:00:04:d5'
p1134
aS'00:00:00:00:04:d6'
p1135
aS'00:00:00:00:04:d7'
p1136
aS'00:00:00:00:04:d8'
p1137
aS'00:00:00:00:04:d9'
p1138
aS'00:00:00:00:04:da'
p1139
aS'00:00:00:00:04:db'
p1140
aS'00:00:00:00:04:dc'
p1141
aS'00:00:00:00:04:dd'
p1142
aS'00:00:00:00:04:de'
p1143
aS'00:00:00:00:04:df'
p1144
aS'00:00:00:00:04:e0'
p1145
aS'00:00:00:00:04:e1'
p1146
aS'00:00:00:00:04:e2'
p1147
aS'00:00:00:00:04:e3'
p1148
aS'00:00:00:00:04:e4'
p1149
aS'00:00:00:00:04:e5'
p1150
aS'00:00:00:00:04:e6'
p1151
aS'00:00:00:00:04:e7'
p1152
aS'00:00:00:00:04:e8'
p1153
aS'00:00:00:00:04:e9'
p1154
aS'00:00:00:00:04:ea'
p1155
aS'00:00:00:00:04:eb'
p1156
aS'00:00:00:00:04:ec'
p1157
aS'00:00:00:00:04:ed'
p1158
aS'00:00:00:00:04:ee'
p1159
aS'00:00:00:00:04:ef'
p1160
aS'00:00:00:00:04:f0'
p1161
aS'00:00:00:00:04:f1'
p1162
aS'00:00:00:00:04:f2'
p1163
aS'00:00:00:00:04:f3'
p1164
aS'00:00:00:00:04:f4'
p1165
aS'00:00:00:00:04:f5'
p1166
aS'00:00:00:00:04:f6'
p1167
aS'00:00:00:00:04:f7'
p1168
aS'00:00:00:00:04:f8'
p1169
aS'00:00:00:00:04:f9'
p1170
aS'00:00:00:00:04:fa'
p1171
aS'00:00:00:00:04:fb'
p1172
aS'00:00:00:00:04:fc'
p1173
aS'00:00:00:00:04:fd'
p1174
aS'00:00:00:00:04:fe'
p1175
aS'00:00:00:00:04:ff'
p1176
aS'00:00:00:00:05:00'
p1177
aS'00:00:00:00:05:01'
p1178
aS'00:00:00:00:05:02'
p1179
aS'00:00:00:00:05:03'
p1180
aS'00:00:00:00:05:04'
p1181
aS'00:00:00:00:05:05'
p1182
aS'00:00:00:00:05:06'
p1183
aS'00:00:00:00:05:07'
p1184
aS'00:00:00:00:05:08'
p1185
aS'00:00:00:00:05:09'
p1186
aS'00:00:00:00:05:0a'
p1187
aS'00:00:00:00:05:0b'
p1188
aS'00:00:00:00:05:0c'
p1189
aS'00:00:00:00:05:0d'
p1190
aS'00:00:00:00:05:0e'
p1191
aS'00:00:00:00:05:0f'
p1192
aS'00:00:00:00:05:10'
p1193
aS'00:00:00:00:05:11'
p1194
aS'00:00:00:00:05:12'
p1195
aS'00:00:00:00:05:13'
p1196
aS'00:00:00:00:05:14'
p1197
aS'00:00:00:00:05:15'
p1198
aS'00:00:00:00:05:16'
p1199
aS'00:00:00:00:05:17'
p1200
aS'00:00:00:00:05:18'
p1201
aS'00:00:00:00:05:19'
p1202
aS'00:00:00:00:05:1a'
p1203
aS'00:00:00:00:05:1b'
p1204
aS'00:00:00:00:05:1c'
p1205
aS'00:00:00:00:05:1d'
p1206
aS'00:00:00:00:05:1e'
p1207
aS'00:00:00:00:05:1f'
p1208
aS'00:00:00:00:05:20'
p1209
aS'00:00:00:00:05:21'
p1210
aS'00:00:00:00:05:22'
p1211
aS'00:00:00:00:05:23'
p1212
aS'00:00:00:00:05:24'
p1213
aS'00:00:00:00:05:25'
p1214
aS'00:00:00:00:05:26'
p1215
aS'00:00:00:00:05:27'
p1216
aS'00:00:00:00:05:28'
p1217
aS'00:00:00:00:05:29'
p1218
aS'00:00:00:00:05:2a'
p1219
aS'00:00:00:00:05:2b'
p1220
aS'00:00:00:00:05:2c'
p1221
aS'00:00:00:00:05:2d'
p1222
aS'00:00:00:00:05:2e'
p1223
aS'00:00:00:00:05:2f'
p1224
aS'00:00:00:00:05:30'
p1225
aS'00:00:00:00:05:31'
p1226
aS'00:00:00:00:05:32'
p1227
aS'00:00:00:00:05:33'
p1228
aS'00:00:00:00:05:34'
p1229
aS'00:00:00:00:05:35'
p1230
aS'00:00:00:00:05:36'
p1231
aS'00:00:00:00:05:37'
p1232
aS'00:00:00:00:05:38'
p1233
aS'00:00:00:00:05:39'
p1234
aS'00:00:00:00:05:3a'
p1235
aS'00:00:00:00:05:3b'
p1236
aS'00:00:00:00:05:3c'
p1237
aS'00:00:00:00:05:3d'
p1238
aS'00:00:00:00:05:3e'
p1239
aS'00:00:00:00:05:3f'
p1240
aS'00:00:00:00:05:40'
p1241
aS'00:00:00:00:05:41'
p1242
aS'00:00:00:00:05:42'
p1243
aS'00:00:00:00:05:43'
p1244
aS'00:00:00:00:05:44'
p1245
aS'00:00:00:00:05:45'
p1246
aS'00:00:00:00:05:46'
p1247
aS'00:00:00:00:05:47'
p1248
aS'00:00:00:00:05:48'
p1249
aS'00:00:00:00:05:49'
p1250
aS'00:00:00:00:05:4a'
p1251
aS'00:00:00:00:05:4b'
p1252
aS'00:00:00:00:05:4c'
p1253
aS'00:00:00:00:05:4d'
p1254
aS'00:00:00:00:05:4e'
p1255
aS'00:00:00:00:05:4f'
p1256
aS'00:00:00:00:05:50'
p1257
aS'00:00:00:00:05:51'
p1258
aS'00:00:00:00:05:52'
p1259
aS'00:00:00:00:05:53'
p1260
aS'00:00:00:00:05:54'
p1261
aS'00:00:00:00:05:55'
p1262
aS'00:00:00:00:05:56'
p1263
aS'00:00:00:00:05:57'
p1264
aS'00:00:00:00:05:58'
p1265
aS'00:00:00:00:05:59'
p1266
aS'00:00:00:00:05:5a'
p1267
aS'00:00:00:00:05:5b'
p1268
aS'00:00:00:00:05:5c'
p1269
aS'00:00:00:00:05:5d'
p1270
aS'00:00:00:00:05:5e'
p1271
aS'00:00:00:00:05:5f'
p1272
aS'00:00:00:00:05:60'
p1273
aS'00:00:00:00:05:61'
p1274
aS'00:00:00:00:05:62'
p1275
aS'00:00:00:00:05:63'
p1276
aS'00:00:00:00:05:64'
p1277
aS'00:00:00:00:05:65'
p1278
aS'00:00:00:00:05:66'
p1279
aS'00:00:00:00:05:67'
p1280
aS'00:00:00:00:05:68'
p1281
aS'00:00:00:00:05:69'
p1282
aS'00:00:00:00:05:6a'
p1283
aS'00:00:00:00:05:6b'
p1284
aS'00:00:00:00:05:6c'
p1285
aS'00:00:00:00:05:6d'
p1286
aS'00:00:00:00:05:6e'
p1287
aS'00:00:00:00:05:6f'
p1288
aS'00:00:00:00:05:70'
p1289
aS'00:00:00:00:05:71'
p1290
aS'00:00:00:00:05:72'
p1291
aS'00:00:00:00:05:73'
p1292
aS'00:00:00:00:05:74'
p1293
aS'00:00:00:00:05:75'
p1294
aS'00:00:00:00:05:76'
p1295
aS'00:00:00:00:05:77'
p1296
aS'00:00:00:00:05:78'
p1297
aS'00:00:00:00:05:79'
p1298
aS'00:00:00:00:05:7a'
p1299
aS'00:00:00:00:05:7b'
p1300
aS'00:00:00:00:05:7c'
p1301
aS'00:00:00:00:05:7d'
p1302
aS'00:00:00:00:05:7e'
p1303
aS'00:00:00:00:05:7f'
p1304
aS'00:00:00:00:05:80'
p1305
aS'00:00:00:00:05:81'
p1306
aS'00:00:00:00:05:82'
p1307
aS'00:00:00:00:05:83'
p1308
aS'00:00:00:00:05:84'
p1309
aS'00:00:00:00:05:85'
p1310
aS'00:00:00:00:05:86'
p1311
aS'00:00:00:00:05:87'
p1312
aS'00:00:00:00:05:88'
p1313
aS'00:00:00:00:05:89'
p1314
aS'00:00:00:00:05:8a'
p1315
aS'00:00:00:00:05:8b'
p1316
aS'00:00:00:00:05:8c'
p1317
aS'00:00:00:00:05:8d'
p1318
aS'00:00:00:00:05:8e'
p1319
aS'00:00:00:00:05:8f'
p1320
aS'00:00:00:00:05:90'
p1321
aS'00:00:00:00:05:91'
p1322
aS'00:00:00:00:05:92'
p1323
aS'00:00:00:00:05:93'
p1324
aS'00:00:00:00:05:94'
p1325
aS'00:00:00:00:05:95'
p1326
aS'00:00:00:00:05:96'
p1327
aS'00:00:00:00:05:97'
p1328
aS'00:00:00:00:05:98'
p1329
aS'00:00:00:00:05:99'
p1330
aS'00:00:00:00:05:9a'
p1331
aS'00:00:00:00:05:9b'
p1332
aS'00:00:00:00:05:9c'
p1333
aS'00:00:00:00:05:9d'
p1334
aS'00:00:00:00:05:9e'
p1335
aS'00:00:00:00:05:9f'
p1336
aS'00:00:00:00:05:a0'
p1337
aS'00:00:00:00:05:a1'
p1338
aS'00:00:00:00:05:a2'
p1339
aS'00:00:00:00:05:a3'
p1340
aS'00:00:00:00:05:a4'
p1341
aS'00:00:00:00:05:a5'
p1342
aS'00:00:00:00:05:a6'
p1343
aS'00:00:00:00:05:a7'
p1344
aS'00:00:00:00:05:a8'
p1345
aS'00:00:00:00:05:a9'
p1346
aS'00:00:00:00:05:aa'
p1347
aS'00:00:00:00:05:ab'
p1348
aS'00:00:00:00:05:ac'
p1349
aS'00:00:00:00:05:ad'
p1350
aS'00:00:00:00:05:ae'
p1351
aS'00:00:00:00:05:af'
p1352
aS'00:00:00:00:05:b0'
p1353
aS'00:00:00:00:05:b1'
p1354
aS'00:00:00:00:05:b2'
p1355
aS'00:00:00:00:05:b3'
p1356
aS'00:00:00:00:05:b4'
p1357
aS'00:00:00:00:05:b5'
p1358
aS'00:00:00:00:05:b6'
p1359
aS'00:00:00:00:05:b7'
p1360
aS'00:00:00:00:05:b8'
p1361
aS'00:00:00:00:05:b9'
p1362
aS'00:00:00:00:05:ba'
p1363
aS'00:00:00:00:05:bb'
p1364
aS'00:00:00:00:05:bc'
p1365
aS'00:00:00:00:05:bd'
p1366
aS'00:00:00:00:05:be'
p1367
aS'00:00:00:00:05:bf'
p1368
aS'00:00:00:00:05:c0'
p1369
aS'00:00:00:00:05:c1'
p1370
aS'00:00:00:00:05:c2'
p1371
aS'00:00:00:00:05:c3'
p1372
aS'00:00:00:00:05:c4'
p1373
aS'00:00:00:00:05:c5'
p1374
aS'00:00:00:00:05:c6'
p1375
aS'00:00:00:00:05:c7'
p1376
aS'00:00:00:00:05:c8'
p1377
aS'00:00:00:00:05:c9'
p1378
aS'00:00:00:00:05:ca'
p1379
aS'00:00:00:00:05:cb'
p1380
aS'00:00:00:00:05:cc'
p1381
aS'00:00:00:00:05:cd'
p1382
aS'00:00:00:00:05:ce'
p1383
aS'00:00:00:00:05:cf'
p1384
aS'00:00:00:00:05:d0'
p1385
aS'00:00:00:00:05:d1'
p1386
aS'00:00:00:00:05:d2'
p1387
aS'00:00:00:00:05:d3'
p1388
aS'00:00:00:00:05:d4'
p1389
aS'00:00:00:00:05:d5'
p1390
aS'00:00:00:00:05:d6'
p1391
aS'00:00:00:00:05:d7'
p1392
aS'00:00:00:00:05:d8'
p1393
aS'00:00:00:00:05:d9'
p1394
aS'00:00:00:00:05:da'
p1395
aS'00:00:00:00:05:db'
p1396
aS'00:00:00:00:05:dc'
p1397
aS'00:00:00:00:05:dd'
p1398
aS'00:00:00:00:05:de'
p1399
aS'00:00:00:00:05:df'
p1400
aS'00:00:00:00:05:e0'
p1401
aS'00:00:00:00:05:e1'
p1402
aS'00:00:00:00:05:e2'
p1403
aS'00:00:00:00:05:e3'
p1404
aS'00:00:00:00:05:e4'
p1405
aS'00:00:00:00:05:e5'
p1406
aS'00:00:00:00:05:e6'
p1407
aS'00:00:00:00:05:e7'
p1408
aS'00:00:00:00:05:e8'
p1409
aS'00:00:00:00:05:e9'
p1410
aS'00:00:00:00:05:ea'
p1411
aS'00:00:00:00:05:eb'
p1412
aS'00:00:00:00:05:ec'
p1413
aS'00:00:00:00:05:ed'
p1414
aS'00:00:00:00:05:ee'
p1415
aS'00:00:00:00:05:ef'
p1416
aS'00:00:00:00:05:f0'
p1417
aS'00:00:00:00:05:f1'
p1418
aS'00:00:00:00:05:f2'
p1419
aS'00:00:00:00:05:f3'
p1420
aS'00:00:00:00:05:f4'
p1421
aS'00:00:00:00:05:f5'
p1422
aS'00:00:00:00:05:f6'
p1423
aS'00:00:00:00:05:f7'
p1424
aS'00:00:00:00:05:f8'
p1425
aS'00:00:00:00:05:f9'
p1426
aS'00:00:00:00:05:fa'
p1427
aS'00:00:00:00:05:fb'
p1428
aS'00:00:00:00:05:fc'
p1429
aS'00:00:00:00:05:fd'
p1430
aS'00:00:00:00:05:fe'
p1431
aS'00:00:00:00:05:ff'
p1432
aS'00:00:00:00:06:00'
p1433
aS'00:00:00:00:06:01'
p1434
aS'00:00:00:00:06:02'
p1435
aS'00:00:00:00:06:03'
p1436
aS'00:00:00:00:06:04'
p1437
aS'00:00:00:00:06:05'
p1438
aS'00:00:00:00:06:06'
p1439
aS'00:00:00:00:06:07'
p1440
aS'00:00:00:00:06:08'
p1441
aS'00:00:00:00:06:09'
p1442
aS'00:00:00:00:06:0a'
p1443
aS'00:00:00:00:06:0b'
p1444
aS'00:00:00:00:06:0c'
p1445
aS'00:00:00:00:06:0d'
p1446
aS'00:00:00:00:06:0e'
p1447
aS'00:00:00:00:06:0f'
p1448
aS'00:00:00:00:06:10'
p1449
aS'00:00:00:00:06:11'
p1450
aS'00:00:00:00:06:12'
p1451
aS'00:00:00:00:06:13'
p1452
aS'00:00:00:00:06:14'
p1453
aS'00:00:00:00:06:15'
p1454
aS'00:00:00:00:06:16'
p1455
aS'00:00:00:00:06:17'
p1456
aS'00:00:00:00:06:18'
p1457
aS'00:00:00:00:06:19'
p1458
aS'00:00:00:00:06:1a'
p1459
aS'00:00:00:00:06:1b'
p1460
aS'00:00:00:00:06:1c'
p1461
aS'00:00:00:00:06:1d'
p1462
aS'00:00:00:00:06:1e'
p1463
aS'00:00:00:00:06:1f'
p1464
aS'00:00:00:00:06:20'
p1465
aS'00:00:00:00:06:21'
p1466
aS'00:00:00:00:06:22'
p1467
aS'00:00:00:00:06:23'
p1468
aS'00:00:00:00:06:24'
p1469
aS'00:00:00:00:06:25'
p1470
aS'00:00:00:00:06:26'
p1471
aS'00:00:00:00:06:27'
p1472
aS'00:00:00:00:06:28'
p1473
aS'00:00:00:00:06:29'
p1474
aS'00:00:00:00:06:2a'
p1475
aS'00:00:00:00:06:2b'
p1476
aS'00:00:00:00:06:2c'
p1477
aS'00:00:00:00:06:2d'
p1478
aS'00:00:00:00:06:2e'
p1479
aS'00:00:00:00:06:2f'
p1480
aS'00:00:00:00:06:30'
p1481
aS'00:00:00:00:06:31'
p1482
aS'00:00:00:00:06:32'
p1483
aS'00:00:00:00:06:33'
p1484
aS'00:00:00:00:06:34'
p1485
aS'00:00:00:00:06:35'
p1486
aS'00:00:00:00:06:36'
p1487
aS'00:00:00:00:06:37'
p1488
aS'00:00:00:00:06:38'
p1489
aS'00:00:00:00:06:39'
p1490
aS'00:00:00:00:06:3a'
p1491
aS'00:00:00:00:06:3b'
p1492
aS'00:00:00:00:06:3c'
p1493
aS'00:00:00:00:06:3d'
p1494
aS'00:00:00:00:06:3e'
p1495
aS'00:00:00:00:06:3f'
p1496
aS'00:00:00:00:06:40'
p1497
aS'00:00:00:00:06:41'
p1498
aS'00:00:00:00:06:42'
p1499
aS'00:00:00:00:06:43'
p1500
aS'00:00:00:00:06:44'
p1501
aS'00:00:00:00:06:45'
p1502
aS'00:00:00:00:06:46'
p1503
aS'00:00:00:00:06:47'
p1504
aS'00:00:00:00:06:48'
p1505
aS'00:00:00:00:06:49'
p1506
aS'00:00:00:00:06:4a'
p1507
aS'00:00:00:00:06:4b'
p1508
aS'00:00:00:00:06:4c'
p1509
aS'00:00:00:00:06:4d'
p1510
aS'00:00:00:00:06:4e'
p1511
aS'00:00:00:00:06:4f'
p1512
aS'00:00:00:00:06:50'
p1513
aS'00:00:00:00:06:51'
p1514
aS'00:00:00:00:06:52'
p1515
aS'00:00:00:00:06:53'
p1516
aS'00:00:00:00:06:54'
p1517
aS'00:00:00:00:06:55'
p1518
aS'00:00:00:00:06:56'
p1519
aS'00:00:00:00:06:57'
p1520
aS'00:00:00:00:06:58'
p1521
aS'00:00:00:00:06:59'
p1522
aS'00:00:00:00:06:5a'
p1523
aS'00:00:00:00:06:5b'
p1524
aS'00:00:00:00:06:5c'
p1525
aS'00:00:00:00:06:5d'
p1526
aS'00:00:00:00:06:5e'
p1527
aS'00:00:00:00:06:5f'
p1528
aS'00:00:00:00:06:60'
p1529
aS'00:00:00:00:06:61'
p1530
aS'00:00:00:00:06:62'
p1531
aS'00:00:00:00:06:63'
p1532
aS'00:00:00:00:06:64'
p1533
aS'00:00:00:00:06:65'
p1534
aS'00:00:00:00:06:66'
p1535
aS'00:00:00:00:06:67'
p1536
aS'00:00:00:00:06:68'
p1537
aS'00:00:00:00:06:69'
p1538
aS'00:00:00:00:06:6a'
p1539
aS'00:00:00:00:06:6b'
p1540
aS'00:00:00:00:06:6c'
p1541
aS'00:00:00:00:06:6d'
p1542
aS'00:00:00:00:06:6e'
p1543
aS'00:00:00:00:06:6f'
p1544
aS'00:00:00:00:06:70'
p1545
aS'00:00:00:00:06:71'
p1546
aS'00:00:00:00:06:72'
p1547
aS'00:00:00:00:06:73'
p1548
aS'00:00:00:00:06:74'
p1549
aS'00:00:00:00:06:75'
p1550
aS'00:00:00:00:06:76'
p1551
aS'00:00:00:00:06:77'
p1552
aS'00:00:00:00:06:78'
p1553
aS'00:00:00:00:06:79'
p1554
aS'00:00:00:00:06:7a'
p1555
aS'00:00:00:00:06:7b'
p1556
aS'00:00:00:00:06:7c'
p1557
aS'00:00:00:00:06:7d'
p1558
aS'00:00:00:00:06:7e'
p1559
aS'00:00:00:00:06:7f'
p1560
aS'00:00:00:00:06:80'
p1561
aS'00:00:00:00:06:81'
p1562
aS'00:00:00:00:06:82'
p1563
aS'00:00:00:00:06:83'
p1564
aS'00:00:00:00:06:84'
p1565
aS'00:00:00:00:06:85'
p1566
aS'00:00:00:00:06:86'
p1567
aS'00:00:00:00:06:87'
p1568
aS'00:00:00:00:06:88'
p1569
aS'00:00:00:00:06:89'
p1570
aS'00:00:00:00:06:8a'
p1571
aS'00:00:00:00:06:8b'
p1572
aS'00:00:00:00:06:8c'
p1573
aS'00:00:00:00:06:8d'
p1574
aS'00:00:00:00:06:8e'
p1575
aS'00:00:00:00:06:8f'
p1576
aS'00:00:00:00:06:90'
p1577
aS'00:00:00:00:06:91'
p1578
aS'00:00:00:00:06:92'
p1579
aS'00:00:00:00:06:93'
p1580
aS'00:00:00:00:06:94'
p1581
aS'00:00:00:00:06:95'
p1582
aS'00:00:00:00:06:96'
p1583
aS'00:00:00:00:06:97'
p1584
aS'00:00:00:00:06:98'
p1585
aS'00:00:00:00:06:99'
p1586
aS'00:00:00:00:06:9a'
p1587
aS'00:00:00:00:06:9b'
p1588
aS'00:00:00:00:06:9c'
p1589
aS'00:00:00:00:06:9d'
p1590
aS'00:00:00:00:06:9e'
p1591
aS'00:00:00:00:06:9f'
p1592
aS'00:00:00:00:06:a0'
p1593
aS'00:00:00:00:06:a1'
p1594
aS'00:00:00:00:06:a2'
p1595
aS'00:00:00:00:06:a3'
p1596
aS'00:00:00:00:06:a4'
p1597
aS'00:00:00:00:06:a5'
p1598
aS'00:00:00:00:06:a6'
p1599
aS'00:00:00:00:06:a7'
p1600
aS'00:00:00:00:06:a8'
p1601
aS'00:00:00:00:06:a9'
p1602
aS'00:00:00:00:06:aa'
p1603
aS'00:00:00:00:06:ab'
p1604
aS'00:00:00:00:06:ac'
p1605
aS'00:00:00:00:06:ad'
p1606
aS'00:00:00:00:06:ae'
p1607
aS'00:00:00:00:06:af'
p1608
aS'00:00:00:00:06:b0'
p1609
aS'00:00:00:00:06:b1'
p1610
aS'00:00:00:00:06:b2'
p1611
aS'00:00:00:00:06:b3'
p1612
aS'00:00:00:00:06:b4'
p1613
aS'00:00:00:00:06:b5'
p1614
aS'00:00:00:00:06:b6'
p1615
aS'00:00:00:00:06:b7'
p1616
aS'00:00:00:00:06:b8'
p1617
aS'00:00:00:00:06:b9'
p1618
aS'00:00:00:00:06:ba'
p1619
aS'00:00:00:00:06:bb'
p1620
aS'00:00:00:00:06:bc'
p1621
aS'00:00:00:00:06:bd'
p1622
aS'00:00:00:00:06:be'
p1623
aS'00:00:00:00:06:bf'
p1624
aS'00:00:00:00:06:c0'
p1625
aS'00:00:00:00:06:c1'
p1626
aS'00:00:00:00:06:c2'
p1627
aS'00:00:00:00:06:c3'
p1628
aS'00:00:00:00:06:c4'
p1629
aS'00:00:00:00:06:c5'
p1630
aS'00:00:00:00:06:c6'
p1631
aS'00:00:00:00:06:c7'
p1632
aS'00:00:00:00:06:c8'
p1633
aS'00:00:00:00:06:c9'
p1634
aS'00:00:00:00:06:ca'
p1635
aS'00:00:00:00:06:cb'
p1636
aS'00:00:00:00:06:cc'
p1637
aS'00:00:00:00:06:cd'
p1638
aS'00:00:00:00:06:ce'
p1639
aS'00:00:00:00:06:cf'
p1640
aS'00:00:00:00:06:d0'
p1641
aS'00:00:00:00:06:d1'
p1642
aS'00:00:00:00:06:d2'
p1643
aS'00:00:00:00:06:d3'
p1644
aS'00:00:00:00:06:d4'
p1645
aS'00:00:00:00:06:d5'
p1646
aS'00:00:00:00:06:d6'
p1647
aS'00:00:00:00:06:d7'
p1648
aS'00:00:00:00:06:d8'
p1649
aS'00:00:00:00:06:d9'
p1650
aS'00:00:00:00:06:da'
p1651
aS'00:00:00:00:06:db'
p1652
aS'00:00:00:00:06:dc'
p1653
aS'00:00:00:00:06:dd'
p1654
aS'00:00:00:00:06:de'
p1655
aS'00:00:00:00:06:df'
p1656
aS'00:00:00:00:06:e0'
p1657
aS'00:00:00:00:06:e1'
p1658
aS'00:00:00:00:06:e2'
p1659
aS'00:00:00:00:06:e3'
p1660
aS'00:00:00:00:06:e4'
p1661
aS'00:00:00:00:06:e5'
p1662
aS'00:00:00:00:06:e6'
p1663
aS'00:00:00:00:06:e7'
p1664
aS'00:00:00:00:06:e8'
p1665
aS'00:00:00:00:06:e9'
p1666
aS'00:00:00:00:06:ea'
p1667
aS'00:00:00:00:06:eb'
p1668
aS'00:00:00:00:06:ec'
p1669
aS'00:00:00:00:06:ed'
p1670
aS'00:00:00:00:06:ee'
p1671
aS'00:00:00:00:06:ef'
p1672
aS'00:00:00:00:06:f0'
p1673
aS'00:00:00:00:06:f1'
p1674
aS'00:00:00:00:06:f2'
p1675
aS'00:00:00:00:06:f3'
p1676
aS'00:00:00:00:06:f4'
p1677
aS'00:00:00:00:06:f5'
p1678
aS'00:00:00:00:06:f6'
p1679
aS'00:00:00:00:06:f7'
p1680
aS'00:00:00:00:06:f8'
p1681
aS'00:00:00:00:06:f9'
p1682
aS'00:00:00:00:06:fa'
p1683
aS'00:00:00:00:06:fb'
p1684
aS'00:00:00:00:06:fc'
p1685
aS'00:00:00:00:06:fd'
p1686
aS'00:00:00:00:06:fe'
p1687
aS'00:00:00:00:06:ff'
p1688
aS'00:00:00:00:07:00'
p1689
aS'00:00:00:00:07:01'
p1690
aS'00:00:00:00:07:02'
p1691
aS'00:00:00:00:07:03'
p1692
aS'00:00:00:00:07:04'
p1693
aS'00:00:00:00:07:05'
p1694
aS'00:00:00:00:07:06'
p1695
aS'00:00:00:00:07:07'
p1696
aS'00:00:00:00:07:08'
p1697
aS'00:00:00:00:07:09'
p1698
aS'00:00:00:00:07:0a'
p1699
aS'00:00:00:00:07:0b'
p1700
aS'00:00:00:00:07:0c'
p1701
aS'00:00:00:00:07:0d'
p1702
aS'00:00:00:00:07:0e'
p1703
aS'00:00:00:00:07:0f'
p1704
aS'00:00:00:00:07:10'
p1705
aS'00:00:00:00:07:11'
p1706
aS'00:00:00:00:07:12'
p1707
aS'00:00:00:00:07:13'
p1708
aS'00:00:00:00:07:14'
p1709
aS'00:00:00:00:07:15'
p1710
aS'00:00:00:00:07:16'
p1711
aS'00:00:00:00:07:17'
p1712
aS'00:00:00:00:07:18'
p1713
aS'00:00:00:00:07:19'
p1714
aS'00:00:00:00:07:1a'
p1715
aS'00:00:00:00:07:1b'
p1716
aS'00:00:00:00:07:1c'
p1717
aS'00:00:00:00:07:1d'
p1718
aS'00:00:00:00:07:1e'
p1719
aS'00:00:00:00:07:1f'
p1720
aS'00:00:00:00:07:20'
p1721
aS'00:00:00:00:07:21'
p1722
aS'00:00:00:00:07:22'
p1723
aS'00:00:00:00:07:23'
p1724
aS'00:00:00:00:07:24'
p1725
aS'00:00:00:00:07:25'
p1726
aS'00:00:00:00:07:26'
p1727
aS'00:00:00:00:07:27'
p1728
aS'00:00:00:00:07:28'
p1729
aS'00:00:00:00:07:29'
p1730
aS'00:00:00:00:07:2a'
p1731
aS'00:00:00:00:07:2b'
p1732
aS'00:00:00:00:07:2c'
p1733
aS'00:00:00:00:07:2d'
p1734
aS'00:00:00:00:07:2e'
p1735
aS'00:00:00:00:07:2f'
p1736
aS'00:00:00:00:07:30'
p1737
aS'00:00:00:00:07:31'
p1738
aS'00:00:00:00:07:32'
p1739
aS'00:00:00:00:07:33'
p1740
aS'00:00:00:00:07:34'
p1741
aS'00:00:00:00:07:35'
p1742
aS'00:00:00:00:07:36'
p1743
aS'00:00:00:00:07:37'
p1744
aS'00:00:00:00:07:38'
p1745
aS'00:00:00:00:07:39'
p1746
aS'00:00:00:00:07:3a'
p1747
aS'00:00:00:00:07:3b'
p1748
aS'00:00:00:00:07:3c'
p1749
aS'00:00:00:00:07:3d'
p1750
aS'00:00:00:00:07:3e'
p1751
aS'00:00:00:00:07:3f'
p1752
aS'00:00:00:00:07:40'
p1753
aS'00:00:00:00:07:41'
p1754
aS'00:00:00:00:07:42'
p1755
aS'00:00:00:00:07:43'
p1756
aS'00:00:00:00:07:44'
p1757
aS'00:00:00:00:07:45'
p1758
aS'00:00:00:00:07:46'
p1759
aS'00:00:00:00:07:47'
p1760
aS'00:00:00:00:07:48'
p1761
aS'00:00:00:00:07:49'
p1762
aS'00:00:00:00:07:4a'
p1763
aS'00:00:00:00:07:4b'
p1764
aS'00:00:00:00:07:4c'
p1765
aS'00:00:00:00:07:4d'
p1766
aS'00:00:00:00:07:4e'
p1767
aS'00:00:00:00:07:4f'
p1768
aS'00:00:00:00:07:50'
p1769
aS'00:00:00:00:07:51'
p1770
aS'00:00:00:00:07:52'
p1771
aS'00:00:00:00:07:53'
p1772
aS'00:00:00:00:07:54'
p1773
aS'00:00:00:00:07:55'
p1774
aS'00:00:00:00:07:56'
p1775
aS'00:00:00:00:07:57'
p1776
aS'00:00:00:00:07:58'
p1777
aS'00:00:00:00:07:59'
p1778
aS'00:00:00:00:07:5a'
p1779
aS'00:00:00:00:07:5b'
p1780
aS'00:00:00:00:07:5c'
p1781
aS'00:00:00:00:07:5d'
p1782
aS'00:00:00:00:07:5e'
p1783
aS'00:00:00:00:07:5f'
p1784
aS'00:00:00:00:07:60'
p1785
aS'00:00:00:00:07:61'
p1786
aS'00:00:00:00:07:62'
p1787
aS'00:00:00:00:07:63'
p1788
aS'00:00:00:00:07:64'
p1789
aS'00:00:00:00:07:65'
p1790
aS'00:00:00:00:07:66'
p1791
aS'00:00:00:00:07:67'
p1792
aS'00:00:00:00:07:68'
p1793
aS'00:00:00:00:07:69'
p1794
aS'00:00:00:00:07:6a'
p1795
aS'00:00:00:00:07:6b'
p1796
aS'00:00:00:00:07:6c'
p1797
aS'00:00:00:00:07:6d'
p1798
aS'00:00:00:00:07:6e'
p1799
aS'00:00:00:00:07:6f'
p1800
aS'00:00:00:00:07:70'
p1801
aS'00:00:00:00:07:71'
p1802
aS'00:00:00:00:07:72'
p1803
aS'00:00:00:00:07:73'
p1804
aS'00:00:00:00:07:74'
p1805
aS'00:00:00:00:07:75'
p1806
aS'00:00:00:00:07:76'
p1807
aS'00:00:00:00:07:77'
p1808
aS'00:00:00:00:07:78'
p1809
aS'00:00:00:00:07:79'
p1810
aS'00:00:00:00:07:7a'
p1811
aS'00:00:00:00:07:7b'
p1812
aS'00:00:00:00:07:7c'
p1813
aS'00:00:00:00:07:7d'
p1814
aS'00:00:00:00:07:7e'
p1815
aS'00:00:00:00:07:7f'
p1816
aS'00:00:00:00:07:80'
p1817
aS'00:00:00:00:07:81'
p1818
aS'00:00:00:00:07:82'
p1819
aS'00:00:00:00:07:83'
p1820
aS'00:00:00:00:07:84'
p1821
aS'00:00:00:00:07:85'
p1822
aS'00:00:00:00:07:86'
p1823
aS'00:00:00:00:07:87'
p1824
aS'00:00:00:00:07:88'
p1825
aS'00:00:00:00:07:89'
p1826
aS'00:00:00:00:07:8a'
p1827
aS'00:00:00:00:07:8b'
p1828
aS'00:00:00:00:07:8c'
p1829
aS'00:00:00:00:07:8d'
p1830
aS'00:00:00:00:07:8e'
p1831
aS'00:00:00:00:07:8f'
p1832
aS'00:00:00:00:07:90'
p1833
aS'00:00:00:00:07:91'
p1834
aS'00:00:00:00:07:92'
p1835
aS'00:00:00:00:07:93'
p1836
aS'00:00:00:00:07:94'
p1837
aS'00:00:00:00:07:95'
p1838
aS'00:00:00:00:07:96'
p1839
aS'00:00:00:00:07:97'
p1840
aS'00:00:00:00:07:98'
p1841
aS'00:00:00:00:07:99'
p1842
aS'00:00:00:00:07:9a'
p1843
aS'00:00:00:00:07:9b'
p1844
aS'00:00:00:00:07:9c'
p1845
aS'00:00:00:00:07:9d'
p1846
aS'00:00:00:00:07:9e'
p1847
aS'00:00:00:00:07:9f'
p1848
aS'00:00:00:00:07:a0'
p1849
aS'00:00:00:00:07:a1'
p1850
aS'00:00:00:00:07:a2'
p1851
aS'00:00:00:00:07:a3'
p1852
aS'00:00:00:00:07:a4'
p1853
aS'00:00:00:00:07:a5'
p1854
aS'00:00:00:00:07:a6'
p1855
aS'00:00:00:00:07:a7'
p1856
aS'00:00:00:00:07:a8'
p1857
aS'00:00:00:00:07:a9'
p1858
aS'00:00:00:00:07:aa'
p1859
aS'00:00:00:00:07:ab'
p1860
aS'00:00:00:00:07:ac'
p1861
aS'00:00:00:00:07:ad'
p1862
aS'00:00:00:00:07:ae'
p1863
aS'00:00:00:00:07:af'
p1864
aS'00:00:00:00:07:b0'
p1865
aS'00:00:00:00:07:b1'
p1866
aS'00:00:00:00:07:b2'
p1867
aS'00:00:00:00:07:b3'
p1868
aS'00:00:00:00:07:b4'
p1869
aS'00:00:00:00:07:b5'
p1870
aS'00:00:00:00:07:b6'
p1871
aS'00:00:00:00:07:b7'
p1872
aS'00:00:00:00:07:b8'
p1873
aS'00:00:00:00:07:b9'
p1874
aS'00:00:00:00:07:ba'
p1875
aS'00:00:00:00:07:bb'
p1876
aS'00:00:00:00:07:bc'
p1877
aS'00:00:00:00:07:bd'
p1878
aS'00:00:00:00:07:be'
p1879
aS'00:00:00:00:07:bf'
p1880
aS'00:00:00:00:07:c0'
p1881
aS'00:00:00:00:07:c1'
p1882
aS'00:00:00:00:07:c2'
p1883
aS'00:00:00:00:07:c3'
p1884
aS'00:00:00:00:07:c4'
p1885
aS'00:00:00:00:07:c5'
p1886
aS'00:00:00:00:07:c6'
p1887
aS'00:00:00:00:07:c7'
p1888
aS'00:00:00:00:07:c8'
p1889
aS'00:00:00:00:07:c9'
p1890
aS'00:00:00:00:07:ca'
p1891
aS'00:00:00:00:07:cb'
p1892
aS'00:00:00:00:07:cc'
p1893
aS'00:00:00:00:07:cd'
p1894
aS'00:00:00:00:07:ce'
p1895
aS'00:00:00:00:07:cf'
p1896
aS'00:00:00:00:07:d0'
p1897
aS'00:00:00:00:07:d1'
p1898
aS'00:00:00:00:07:d2'
p1899
aS'00:00:00:00:07:d3'
p1900
aS'00:00:00:00:07:d4'
p1901
aS'00:00:00:00:07:d5'
p1902
aS'00:00:00:00:07:d6'
p1903
aS'00:00:00:00:07:d7'
p1904
aS'00:00:00:00:07:d8'
p1905
aS'00:00:00:00:07:d9'
p1906
aS'00:00:00:00:07:da'
p1907
aS'00:00:00:00:07:db'
p1908
aS'00:00:00:00:07:dc'
p1909
aS'00:00:00:00:07:dd'
p1910
aS'00:00:00:00:07:de'
p1911
aS'00:00:00:00:07:df'
p1912
aS'00:00:00:00:07:e0'
p1913
aS'00:00:00:00:07:e1'
p1914
aS'00:00:00:00:07:e2'
p1915
aS'00:00:00:00:07:e3'
p1916
aS'00:00:00:00:07:e4'
p1917
aS'00:00:00:00:07:e5'
p1918
aS'00:00:00:00:07:e6'
p1919
aS'00:00:00:00:07:e7'
p1920
aS'00:00:00:00:07:e8'
p1921
aS'00:00:00:00:07:e9'
p1922
aS'00:00:00:00:07:ea'
p1923
aS'00:00:00:00:07:eb'
p1924
aS'00:00:00:00:07:ec'
p1925
aS'00:00:00:00:07:ed'
p1926
aS'00:00:00:00:07:ee'
p1927
aS'00:00:00:00:07:ef'
p1928
aS'00:00:00:00:07:f0'
p1929
aS'00:00:00:00:07:f1'
p1930
aS'00:00:00:00:07:f2'
p1931
aS'00:00:00:00:07:f3'
p1932
aS'00:00:00:00:07:f4'
p1933
aS'00:00:00:00:07:f5'
p1934
aS'00:00:00:00:07:f6'
p1935
aS'00:00:00:00:07:f7'
p1936
aS'00:00:00:00:07:f8'
p1937
aS'00:00:00:00:07:f9'
p1938
aS'00:00:00:00:07:fa'
p1939
aS'00:00:00:00:07:fb'
p1940
aS'00:00:00:00:07:fc'
p1941
aS'00:00:00:00:07:fd'
p1942
aS'00:00:00:00:07:fe'
p1943
aS'00:00:00:00:07:ff'
p1944
aS'00:00:00:00:08:00'
p1945
aS'00:00:00:00:08:01'
p1946
aS'00:00:00:00:08:02'
p1947
aS'00:00:00:00:08:03'
p1948
aS'00:00:00:00:08:04'
p1949
aS'00:00:00:00:08:05'
p1950
aS'00:00:00:00:08:06'
p1951
aS'00:00:00:00:08:07'
p1952
aS'00:00:00:00:08:08'
p1953
aS'00:00:00:00:08:09'
p1954
aS'00:00:00:00:08:0a'
p1955
aS'00:00:00:00:08:0b'
p1956
aS'00:00:00:00:08:0c'
p1957
aS'00:00:00:00:08:0d'
p1958
aS'00:00:00:00:08:0e'
p1959
aS'00:00:00:00:08:0f'
p1960
aS'00:00:00:00:08:10'
p1961
aS'00:00:00:00:08:11'
p1962
aS'00:00:00:00:08:12'
p1963
aS'00:00:00:00:08:13'
p1964
aS'00:00:00:00:08:14'
p1965
aS'00:00:00:00:08:15'
p1966
aS'00:00:00:00:08:16'
p1967
aS'00:00:00:00:08:17'
p1968
aS'00:00:00:00:08:18'
p1969
aS'00:00:00:00:08:19'
p1970
aS'00:00:00:00:08:1a'
p1971
aS'00:00:00:00:08:1b'
p1972
aS'00:00:00:00:08:1c'
p1973
aS'00:00:00:00:08:1d'
p1974
aS'00:00:00:00:08:1e'
p1975
aS'00:00:00:00:08:1f'
p1976
aS'00:00:00:00:08:20'
p1977
aS'00:00:00:00:08:21'
p1978
aS'00:00:00:00:08:22'
p1979
aS'00:00:00:00:08:23'
p1980
aS'00:00:00:00:08:24'
p1981
aS'00:00:00:00:08:25'
p1982
aS'00:00:00:00:08:26'
p1983
aS'00:00:00:00:08:27'
p1984
aS'00:00:00:00:08:28'
p1985
aS'00:00:00:00:08:29'
p1986
aS'00:00:00:00:08:2a'
p1987
aS'00:00:00:00:08:2b'
p1988
aS'00:00:00:00:08:2c'
p1989
aS'00:00:00:00:08:2d'
p1990
aS'00:00:00:00:08:2e'
p1991
aS'00:00:00:00:08:2f'
p1992
aS'00:00:00:00:08:30'
p1993
aS'00:00:00:00:08:31'
p1994
aS'00:00:00:00:08:32'
p1995
aS'00:00:00:00:08:33'
p1996
aS'00:00:00:00:08:34'
p1997
aS'00:00:00:00:08:35'
p1998
aS'00:00:00:00:08:36'
p1999
aS'00:00:00:00:08:37'
p2000
aS'00:00:00:00:08:38'
p2001
aS'00:00:00:00:08:39'
p2002
aS'00:00:00:00:08:3a'
p2003
aS'00:00:00:00:08:3b'
p2004
aS'00:00:00:00:08:3c'
p2005
aS'00:00:00:00:08:3d'
p2006
aS'00:00:00:00:08:3e'
p2007
aS'00:00:00:00:08:3f'
p2008
aS'00:00:00:00:08:40'
p2009
aS'00:00:00:00:08:41'
p2010
aS'00:00:00:00:08:42'
p2011
aS'00:00:00:00:08:43'
p2012
aS'00:00:00:00:08:44'
p2013
aS'00:00:00:00:08:45'
p2014
aS'00:00:00:00:08:46'
p2015
aS'00:00:00:00:08:47'
p2016
aS'00:00:00:00:08:48'
p2017
aS'00:00:00:00:08:49'
p2018
aS'00:00:00:00:08:4a'
p2019
aS'00:00:00:00:08:4b'
p2020
aS'00:00:00:00:08:4c'
p2021
aS'00:00:00:00:08:4d'
p2022
aS'00:00:00:00:08:4e'
p2023
aS'00:00:00:00:08:4f'
p2024
aS'00:00:00:00:08:50'
p2025
aS'00:00:00:00:08:51'
p2026
aS'00:00:00:00:08:52'
p2027
aS'00:00:00:00:08:53'
p2028
aS'00:00:00:00:08:54'
p2029
aS'00:00:00:00:08:55'
p2030
aS'00:00:00:00:08:56'
p2031
aS'00:00:00:00:08:57'
p2032
aS'00:00:00:00:08:58'
p2033
aS'00:00:00:00:08:59'
p2034
aS'00:00:00:00:08:5a'
p2035
aS'00:00:00:00:08:5b'
p2036
aS'00:00:00:00:08:5c'
p2037
aS'00:00:00:00:08:5d'
p2038
aS'00:00:00:00:08:5e'
p2039
aS'00:00:00:00:08:5f'
p2040
aS'00:00:00:00:08:60'
p2041
aS'00:00:00:00:08:61'
p2042
aS'00:00:00:00:08:62'
p2043
aS'00:00:00:00:08:63'
p2044
aS'00:00:00:00:08:64'
p2045
aS'00:00:00:00:08:65'
p2046
aS'00:00:00:00:08:66'
p2047
aS'00:00:00:00:08:67'
p2048
aS'00:00:00:00:08:68'
p2049
aS'00:00:00:00:08:69'
p2050
aS'00:00:00:00:08:6a'
p2051
aS'00:00:00:00:08:6b'
p2052
aS'00:00:00:00:08:6c'
p2053
aS'00:00:00:00:08:6d'
p2054
aS'00:00:00:00:08:6e'
p2055
aS'00:00:00:00:08:6f'
p2056
aS'00:00:00:00:08:70'
p2057
aS'00:00:00:00:08:71'
p2058
aS'00:00:00:00:08:72'
p2059
aS'00:00:00:00:08:73'
p2060
aS'00:00:00:00:08:74'
p2061
aS'00:00:00:00:08:75'
p2062
aS'00:00:00:00:08:76'
p2063
aS'00:00:00:00:08:77'
p2064
aS'00:00:00:00:08:78'
p2065
aS'00:00:00:00:08:79'
p2066
aS'00:00:00:00:08:7a'
p2067
aS'00:00:00:00:08:7b'
p2068
aS'00:00:00:00:08:7c'
p2069
aS'00:00:00:00:08:7d'
p2070
aS'00:00:00:00:08:7e'
p2071
aS'00:00:00:00:08:7f'
p2072
aS'00:00:00:00:08:80'
p2073
aS'00:00:00:00:08:81'
p2074
aS'00:00:00:00:08:82'
p2075
aS'00:00:00:00:08:83'
p2076
aS'00:00:00:00:08:84'
p2077
aS'00:00:00:00:08:85'
p2078
aS'00:00:00:00:08:86'
p2079
aS'00:00:00:00:08:87'
p2080
aS'00:00:00:00:08:88'
p2081
aS'00:00:00:00:08:89'
p2082
aS'00:00:00:00:08:8a'
p2083
aS'00:00:00:00:08:8b'
p2084
aS'00:00:00:00:08:8c'
p2085
aS'00:00:00:00:08:8d'
p2086
aS'00:00:00:00:08:8e'
p2087
aS'00:00:00:00:08:8f'
p2088
aS'00:00:00:00:08:90'
p2089
aS'00:00:00:00:08:91'
p2090
aS'00:00:00:00:08:92'
p2091
aS'00:00:00:00:08:93'
p2092
aS'00:00:00:00:08:94'
p2093
aS'00:00:00:00:08:95'
p2094
aS'00:00:00:00:08:96'
p2095
aS'00:00:00:00:08:97'
p2096
aS'00:00:00:00:08:98'
p2097
aS'00:00:00:00:08:99'
p2098
aS'00:00:00:00:08:9a'
p2099
aS'00:00:00:00:08:9b'
p2100
aS'00:00:00:00:08:9c'
p2101
aS'00:00:00:00:08:9d'
p2102
aS'00:00:00:00:08:9e'
p2103
aS'00:00:00:00:08:9f'
p2104
aS'00:00:00:00:08:a0'
p2105
aS'00:00:00:00:08:a1'
p2106
aS'00:00:00:00:08:a2'
p2107
aS'00:00:00:00:08:a3'
p2108
aS'00:00:00:00:08:a4'
p2109
aS'00:00:00:00:08:a5'
p2110
aS'00:00:00:00:08:a6'
p2111
aS'00:00:00:00:08:a7'
p2112
aS'00:00:00:00:08:a8'
p2113
aS'00:00:00:00:08:a9'
p2114
aS'00:00:00:00:08:aa'
p2115
aS'00:00:00:00:08:ab'
p2116
aS'00:00:00:00:08:ac'
p2117
aS'00:00:00:00:08:ad'
p2118
aS'00:00:00:00:08:ae'
p2119
aS'00:00:00:00:08:af'
p2120
aS'00:00:00:00:08:b0'
p2121
aS'00:00:00:00:08:b1'
p2122
aS'00:00:00:00:08:b2'
p2123
aS'00:00:00:00:08:b3'
p2124
aS'00:00:00:00:08:b4'
p2125
aS'00:00:00:00:08:b5'
p2126
aS'00:00:00:00:08:b6'
p2127
aS'00:00:00:00:08:b7'
p2128
aS'00:00:00:00:08:b8'
p2129
aS'00:00:00:00:08:b9'
p2130
aS'00:00:00:00:08:ba'
p2131
aS'00:00:00:00:08:bb'
p2132
aS'00:00:00:00:08:bc'
p2133
aS'00:00:00:00:08:bd'
p2134
aS'00:00:00:00:08:be'
p2135
aS'00:00:00:00:08:bf'
p2136
aS'00:00:00:00:08:c0'
p2137
aS'00:00:00:00:08:c1'
p2138
aS'00:00:00:00:08:c2'
p2139
aS'00:00:00:00:08:c3'
p2140
aS'00:00:00:00:08:c4'
p2141
aS'00:00:00:00:08:c5'
p2142
aS'00:00:00:00:08:c6'
p2143
aS'00:00:00:00:08:c7'
p2144
aS'00:00:00:00:08:c8'
p2145
aS'00:00:00:00:08:c9'
p2146
aS'00:00:00:00:08:ca'
p2147
aS'00:00:00:00:08:cb'
p2148
aS'00:00:00:00:08:cc'
p2149
aS'00:00:00:00:08:cd'
p2150
aS'00:00:00:00:08:ce'
p2151
aS'00:00:00:00:08:cf'
p2152
aS'00:00:00:00:08:d0'
p2153
aS'00:00:00:00:08:d1'
p2154
aS'00:00:00:00:08:d2'
p2155
aS'00:00:00:00:08:d3'
p2156
aS'00:00:00:00:08:d4'
p2157
aS'00:00:00:00:08:d5'
p2158
aS'00:00:00:00:08:d6'
p2159
aS'00:00:00:00:08:d7'
p2160
aS'00:00:00:00:08:d8'
p2161
aS'00:00:00:00:08:d9'
p2162
aS'00:00:00:00:08:da'
p2163
aS'00:00:00:00:08:db'
p2164
aS'00:00:00:00:08:dc'
p2165
aS'00:00:00:00:08:dd'
p2166
aS'00:00:00:00:08:de'
p2167
aS'00:00:00:00:08:df'
p2168
aS'00:00:00:00:08:e0'
p2169
aS'00:00:00:00:08:e1'
p2170
aS'00:00:00:00:08:e2'
p2171
aS'00:00:00:00:08:e3'
p2172
aS'00:00:00:00:08:e4'
p2173
aS'00:00:00:00:08:e5'
p2174
aS'00:00:00:00:08:e6'
p2175
aS'00:00:00:00:08:e7'
p2176
aS'00:00:00:00:08:e8'
p2177
aS'00:00:00:00:08:e9'
p2178
aS'00:00:00:00:08:ea'
p2179
aS'00:00:00:00:08:eb'
p2180
aS'00:00:00:00:08:ec'
p2181
aS'00:00:00:00:08:ed'
p2182
aS'00:00:00:00:08:ee'
p2183
aS'00:00:00:00:08:ef'
p2184
aS'00:00:00:00:08:f0'
p2185
aS'00:00:00:00:08:f1'
p2186
aS'00:00:00:00:08:f2'
p2187
aS'00:00:00:00:08:f3'
p2188
aS'00:00:00:00:08:f4'
p2189
aS'00:00:00:00:08:f5'
p2190
aS'00:00:00:00:08:f6'
p2191
aS'00:00:00:00:08:f7'
p2192
aS'00:00:00:00:08:f8'
p2193
aS'00:00:00:00:08:f9'
p2194
aS'00:00:00:00:08:fa'
p2195
aS'00:00:00:00:08:fb'
p2196
aS'00:00:00:00:08:fc'
p2197
aS'00:00:00:00:08:fd'
p2198
aS'00:00:00:00:08:fe'
p2199
aS'00:00:00:00:08:ff'
p2200
aS'00:00:00:00:09:00'
p2201
aS'00:00:00:00:09:01'
p2202
aS'00:00:00:00:09:02'
p2203
aS'00:00:00:00:09:03'
p2204
aS'00:00:00:00:09:04'
p2205
aS'00:00:00:00:09:05'
p2206
aS'00:00:00:00:09:06'
p2207
aS'00:00:00:00:09:07'
p2208
aS'00:00:00:00:09:08'
p2209
aS'00:00:00:00:09:09'
p2210
aS'00:00:00:00:09:0a'
p2211
aS'00:00:00:00:09:0b'
p2212
aS'00:00:00:00:09:0c'
p2213
aS'00:00:00:00:09:0d'
p2214
aS'00:00:00:00:09:0e'
p2215
aS'00:00:00:00:09:0f'
p2216
aS'00:00:00:00:09:10'
p2217
aS'00:00:00:00:09:11'
p2218
aS'00:00:00:00:09:12'
p2219
aS'00:00:00:00:09:13'
p2220
aS'00:00:00:00:09:14'
p2221
aS'00:00:00:00:09:15'
p2222
aS'00:00:00:00:09:16'
p2223
aS'00:00:00:00:09:17'
p2224
aS'00:00:00:00:09:18'
p2225
aS'00:00:00:00:09:19'
p2226
aS'00:00:00:00:09:1a'
p2227
aS'00:00:00:00:09:1b'
p2228
aS'00:00:00:00:09:1c'
p2229
aS'00:00:00:00:09:1d'
p2230
aS'00:00:00:00:09:1e'
p2231
aS'00:00:00:00:09:1f'
p2232
aS'00:00:00:00:09:20'
p2233
aS'00:00:00:00:09:21'
p2234
aS'00:00:00:00:09:22'
p2235
aS'00:00:00:00:09:23'
p2236
aS'00:00:00:00:09:24'
p2237
aS'00:00:00:00:09:25'
p2238
aS'00:00:00:00:09:26'
p2239
aS'00:00:00:00:09:27'
p2240
aS'00:00:00:00:09:28'
p2241
aS'00:00:00:00:09:29'
p2242
aS'00:00:00:00:09:2a'
p2243
aS'00:00:00:00:09:2b'
p2244
aS'00:00:00:00:09:2c'
p2245
aS'00:00:00:00:09:2d'
p2246
aS'00:00:00:00:09:2e'
p2247
aS'00:00:00:00:09:2f'
p2248
aS'00:00:00:00:09:30'
p2249
aS'00:00:00:00:09:31'
p2250
aS'00:00:00:00:09:32'
p2251
aS'00:00:00:00:09:33'
p2252
aS'00:00:00:00:09:34'
p2253
aS'00:00:00:00:09:35'
p2254
aS'00:00:00:00:09:36'
p2255
aS'00:00:00:00:09:37'
p2256
aS'00:00:00:00:09:38'
p2257
aS'00:00:00:00:09:39'
p2258
aS'00:00:00:00:09:3a'
p2259
aS'00:00:00:00:09:3b'
p2260
aS'00:00:00:00:09:3c'
p2261
aS'00:00:00:00:09:3d'
p2262
aS'00:00:00:00:09:3e'
p2263
aS'00:00:00:00:09:3f'
p2264
aS'00:00:00:00:09:40'
p2265
aS'00:00:00:00:09:41'
p2266
aS'00:00:00:00:09:42'
p2267
aS'00:00:00:00:09:43'
p2268
aS'00:00:00:00:09:44'
p2269
aS'00:00:00:00:09:45'
p2270
aS'00:00:00:00:09:46'
p2271
aS'00:00:00:00:09:47'
p2272
aS'00:00:00:00:09:48'
p2273
aS'00:00:00:00:09:49'
p2274
aS'00:00:00:00:09:4a'
p2275
aS'00:00:00:00:09:4b'
p2276
aS'00:00:00:00:09:4c'
p2277
aS'00:00:00:00:09:4d'
p2278
aS'00:00:00:00:09:4e'
p2279
aS'00:00:00:00:09:4f'
p2280
aS'00:00:00:00:09:50'
p2281
aS'00:00:00:00:09:51'
p2282
aS'00:00:00:00:09:52'
p2283
aS'00:00:00:00:09:53'
p2284
aS'00:00:00:00:09:54'
p2285
aS'00:00:00:00:09:55'
p2286
aS'00:00:00:00:09:56'
p2287
aS'00:00:00:00:09:57'
p2288
aS'00:00:00:00:09:58'
p2289
aS'00:00:00:00:09:59'
p2290
aS'00:00:00:00:09:5a'
p2291
aS'00:00:00:00:09:5b'
p2292
aS'00:00:00:00:09:5c'
p2293
aS'00:00:00:00:09:5d'
p2294
aS'00:00:00:00:09:5e'
p2295
aS'00:00:00:00:09:5f'
p2296
aS'00:00:00:00:09:60'
p2297
aS'00:00:00:00:09:61'
p2298
aS'00:00:00:00:09:62'
p2299
aS'00:00:00:00:09:63'
p2300
aS'00:00:00:00:09:64'
p2301
aS'00:00:00:00:09:65'
p2302
aS'00:00:00:00:09:66'
p2303
aS'00:00:00:00:09:67'
p2304
aS'00:00:00:00:09:68'
p2305
aS'00:00:00:00:09:69'
p2306
aS'00:00:00:00:09:6a'
p2307
aS'00:00:00:00:09:6b'
p2308
aS'00:00:00:00:09:6c'
p2309
aS'00:00:00:00:09:6d'
p2310
aS'00:00:00:00:09:6e'
p2311
aS'00:00:00:00:09:6f'
p2312
aS'00:00:00:00:09:70'
p2313
aS'00:00:00:00:09:71'
p2314
aS'00:00:00:00:09:72'
p2315
aS'00:00:00:00:09:73'
p2316
aS'00:00:00:00:09:74'
p2317
aS'00:00:00:00:09:75'
p2318
aS'00:00:00:00:09:76'
p2319
aS'00:00:00:00:09:77'
p2320
aS'00:00:00:00:09:78'
p2321
aS'00:00:00:00:09:79'
p2322
aS'00:00:00:00:09:7a'
p2323
aS'00:00:00:00:09:7b'
p2324
aS'00:00:00:00:09:7c'
p2325
aS'00:00:00:00:09:7d'
p2326
aS'00:00:00:00:09:7e'
p2327
aS'00:00:00:00:09:7f'
p2328
aS'00:00:00:00:09:80'
p2329
aS'00:00:00:00:09:81'
p2330
aS'00:00:00:00:09:82'
p2331
aS'00:00:00:00:09:83'
p2332
aS'00:00:00:00:09:84'
p2333
aS'00:00:00:00:09:85'
p2334
aS'00:00:00:00:09:86'
p2335
aS'00:00:00:00:09:87'
p2336
aS'00:00:00:00:09:88'
p2337
aS'00:00:00:00:09:89'
p2338
aS'00:00:00:00:09:8a'
p2339
aS'00:00:00:00:09:8b'
p2340
aS'00:00:00:00:09:8c'
p2341
aS'00:00:00:00:09:8d'
p2342
aS'00:00:00:00:09:8e'
p2343
aS'00:00:00:00:09:8f'
p2344
aS'00:00:00:00:09:90'
p2345
aS'00:00:00:00:09:91'
p2346
aS'00:00:00:00:09:92'
p2347
aS'00:00:00:00:09:93'
p2348
aS'00:00:00:00:09:94'
p2349
aS'00:00:00:00:09:95'
p2350
aS'00:00:00:00:09:96'
p2351
aS'00:00:00:00:09:97'
p2352
aS'00:00:00:00:09:98'
p2353
aS'00:00:00:00:09:99'
p2354
aS'00:00:00:00:09:9a'
p2355
aS'00:00:00:00:09:9b'
p2356
aS'00:00:00:00:09:9c'
p2357
aS'00:00:00:00:09:9d'
p2358
aS'00:00:00:00:09:9e'
p2359
aS'00:00:00:00:09:9f'
p2360
aS'00:00:00:00:09:a0'
p2361
aS'00:00:00:00:09:a1'
p2362
aS'00:00:00:00:09:a2'
p2363
aS'00:00:00:00:09:a3'
p2364
aS'00:00:00:00:09:a4'
p2365
aS'00:00:00:00:09:a5'
p2366
aS'00:00:00:00:09:a6'
p2367
aS'00:00:00:00:09:a7'
p2368
aS'00:00:00:00:09:a8'
p2369
aS'00:00:00:00:09:a9'
p2370
aS'00:00:00:00:09:aa'
p2371
aS'00:00:00:00:09:ab'
p2372
aS'00:00:00:00:09:ac'
p2373
aS'00:00:00:00:09:ad'
p2374
aS'00:00:00:00:09:ae'
p2375
aS'00:00:00:00:09:af'
p2376
aS'00:00:00:00:09:b0'
p2377
aS'00:00:00:00:09:b1'
p2378
aS'00:00:00:00:09:b2'
p2379
aS'00:00:00:00:09:b3'
p2380
aS'00:00:00:00:09:b4'
p2381
aS'00:00:00:00:09:b5'
p2382
aS'00:00:00:00:09:b6'
p2383
aS'00:00:00:00:09:b7'
p2384
aS'00:00:00:00:09:b8'
p2385
aS'00:00:00:00:09:b9'
p2386
aS'00:00:00:00:09:ba'
p2387
aS'00:00:00:00:09:bb'
p2388
aS'00:00:00:00:09:bc'
p2389
aS'00:00:00:00:09:bd'
p2390
aS'00:00:00:00:09:be'
p2391
aS'00:00:00:00:09:bf'
p2392
aS'00:00:00:00:09:c0'
p2393
aS'00:00:00:00:09:c1'
p2394
aS'00:00:00:00:09:c2'
p2395
aS'00:00:00:00:09:c3'
p2396
aS'00:00:00:00:09:c4'
p2397
aS'00:00:00:00:09:c5'
p2398
aS'00:00:00:00:09:c6'
p2399
aS'00:00:00:00:09:c7'
p2400
aS'00:00:00:00:09:c8'
p2401
aS'00:00:00:00:09:c9'
p2402
aS'00:00:00:00:09:ca'
p2403
aS'00:00:00:00:09:cb'
p2404
aS'00:00:00:00:09:cc'
p2405
aS'00:00:00:00:09:cd'
p2406
aS'00:00:00:00:09:ce'
p2407
aS'00:00:00:00:09:cf'
p2408
aS'00:00:00:00:09:d0'
p2409
aS'00:00:00:00:09:d1'
p2410
aS'00:00:00:00:09:d2'
p2411
aS'00:00:00:00:09:d3'
p2412
aS'00:00:00:00:09:d4'
p2413
aS'00:00:00:00:09:d5'
p2414
aS'00:00:00:00:09:d6'
p2415
aS'00:00:00:00:09:d7'
p2416
aS'00:00:00:00:09:d8'
p2417
aS'00:00:00:00:09:d9'
p2418
aS'00:00:00:00:09:da'
p2419
aS'00:00:00:00:09:db'
p2420
aS'00:00:00:00:09:dc'
p2421
aS'00:00:00:00:09:dd'
p2422
aS'00:00:00:00:09:de'
p2423
aS'00:00:00:00:09:df'
p2424
aS'00:00:00:00:09:e0'
p2425
aS'00:00:00:00:09:e1'
p2426
aS'00:00:00:00:09:e2'
p2427
aS'00:00:00:00:09:e3'
p2428
aS'00:00:00:00:09:e4'
p2429
aS'00:00:00:00:09:e5'
p2430
aS'00:00:00:00:09:e6'
p2431
aS'00:00:00:00:09:e7'
p2432
aS'00:00:00:00:09:e8'
p2433
aS'00:00:00:00:09:e9'
p2434
aS'00:00:00:00:09:ea'
p2435
aS'00:00:00:00:09:eb'
p2436
aS'00:00:00:00:09:ec'
p2437
aS'00:00:00:00:09:ed'
p2438
aS'00:00:00:00:09:ee'
p2439
aS'00:00:00:00:09:ef'
p2440
aS'00:00:00:00:09:f0'
p2441
aS'00:00:00:00:09:f1'
p2442
aS'00:00:00:00:09:f2'
p2443
aS'00:00:00:00:09:f3'
p2444
aS'00:00:00:00:09:f4'
p2445
aS'00:00:00:00:09:f5'
p2446
aS'00:00:00:00:09:f6'
p2447
aS'00:00:00:00:09:f7'
p2448
aS'00:00:00:00:09:f8'
p2449
aS'00:00:00:00:09:f9'
p2450
aS'00:00:00:00:09:fa'
p2451
aS'00:00:00:00:09:fb'
p2452
aS'00:00:00:00:09:fc'
p2453
aS'00:00:00:00:09:fd'
p2454
aS'00:00:00:00:09:fe'
p2455
aS'00:00:00:00:09:ff'
p2456
aS'00:00:00:00:0a:00'
p2457
aS'00:00:00:00:0a:01'
p2458
aS'00:00:00:00:0a:02'
p2459
aS'00:00:00:00:0a:03'
p2460
aS'00:00:00:00:0a:04'
p2461
aS'00:00:00:00:0a:05'
p2462
aS'00:00:00:00:0a:06'
p2463
aS'00:00:00:00:0a:07'
p2464
aS'00:00:00:00:0a:08'
p2465
aS'00:00:00:00:0a:09'
p2466
aS'00:00:00:00:0a:0a'
p2467
aS'00:00:00:00:0a:0b'
p2468
aS'00:00:00:00:0a:0c'
p2469
aS'00:00:00:00:0a:0d'
p2470
aS'00:00:00:00:0a:0e'
p2471
aS'00:00:00:00:0a:0f'
p2472
aS'00:00:00:00:0a:10'
p2473
aS'00:00:00:00:0a:11'
p2474
aS'00:00:00:00:0a:12'
p2475
aS'00:00:00:00:0a:13'
p2476
aS'00:00:00:00:0a:14'
p2477
aS'00:00:00:00:0a:15'
p2478
aS'00:00:00:00:0a:16'
p2479
aS'00:00:00:00:0a:17'
p2480
aS'00:00:00:00:0a:18'
p2481
aS'00:00:00:00:0a:19'
p2482
aS'00:00:00:00:0a:1a'
p2483
aS'00:00:00:00:0a:1b'
p2484
aS'00:00:00:00:0a:1c'
p2485
aS'00:00:00:00:0a:1d'
p2486
aS'00:00:00:00:0a:1e'
p2487
aS'00:00:00:00:0a:1f'
p2488
aS'00:00:00:00:0a:20'
p2489
aS'00:00:00:00:0a:21'
p2490
aS'00:00:00:00:0a:22'
p2491
aS'00:00:00:00:0a:23'
p2492
aS'00:00:00:00:0a:24'
p2493
aS'00:00:00:00:0a:25'
p2494
aS'00:00:00:00:0a:26'
p2495
aS'00:00:00:00:0a:27'
p2496
aS'00:00:00:00:0a:28'
p2497
aS'00:00:00:00:0a:29'
p2498
aS'00:00:00:00:0a:2a'
p2499
aS'00:00:00:00:0a:2b'
p2500
aS'00:00:00:00:0a:2c'
p2501
aS'00:00:00:00:0a:2d'
p2502
aS'00:00:00:00:0a:2e'
p2503
aS'00:00:00:00:0a:2f'
p2504
aS'00:00:00:00:0a:30'
p2505
aS'00:00:00:00:0a:31'
p2506
aS'00:00:00:00:0a:32'
p2507
aS'00:00:00:00:0a:33'
p2508
aS'00:00:00:00:0a:34'
p2509
aS'00:00:00:00:0a:35'
p2510
aS'00:00:00:00:0a:36'
p2511
aS'00:00:00:00:0a:37'
p2512
aS'00:00:00:00:0a:38'
p2513
aS'00:00:00:00:0a:39'
p2514
aS'00:00:00:00:0a:3a'
p2515
aS'00:00:00:00:0a:3b'
p2516
aS'00:00:00:00:0a:3c'
p2517
aS'00:00:00:00:0a:3d'
p2518
aS'00:00:00:00:0a:3e'
p2519
aS'00:00:00:00:0a:3f'
p2520
aS'00:00:00:00:0a:40'
p2521
aS'00:00:00:00:0a:41'
p2522
aS'00:00:00:00:0a:42'
p2523
aS'00:00:00:00:0a:43'
p2524
aS'00:00:00:00:0a:44'
p2525
aS'00:00:00:00:0a:45'
p2526
aS'00:00:00:00:0a:46'
p2527
aS'00:00:00:00:0a:47'
p2528
aS'00:00:00:00:0a:48'
p2529
aS'00:00:00:00:0a:49'
p2530
aS'00:00:00:00:0a:4a'
p2531
aS'00:00:00:00:0a:4b'
p2532
aS'00:00:00:00:0a:4c'
p2533
aS'00:00:00:00:0a:4d'
p2534
aS'00:00:00:00:0a:4e'
p2535
aS'00:00:00:00:0a:4f'
p2536
aS'00:00:00:00:0a:50'
p2537
aS'00:00:00:00:0a:51'
p2538
aS'00:00:00:00:0a:52'
p2539
aS'00:00:00:00:0a:53'
p2540
aS'00:00:00:00:0a:54'
p2541
aS'00:00:00:00:0a:55'
p2542
aS'00:00:00:00:0a:56'
p2543
aS'00:00:00:00:0a:57'
p2544
aS'00:00:00:00:0a:58'
p2545
aS'00:00:00:00:0a:59'
p2546
aS'00:00:00:00:0a:5a'
p2547
aS'00:00:00:00:0a:5b'
p2548
aS'00:00:00:00:0a:5c'
p2549
aS'00:00:00:00:0a:5d'
p2550
aS'00:00:00:00:0a:5e'
p2551
aS'00:00:00:00:0a:5f'
p2552
aS'00:00:00:00:0a:60'
p2553
aS'00:00:00:00:0a:61'
p2554
aS'00:00:00:00:0a:62'
p2555
aS'00:00:00:00:0a:63'
p2556
aS'00:00:00:00:0a:64'
p2557
aS'00:00:00:00:0a:65'
p2558
aS'00:00:00:00:0a:66'
p2559
aS'00:00:00:00:0a:67'
p2560
aS'00:00:00:00:0a:68'
p2561
aS'00:00:00:00:0a:69'
p2562
aS'00:00:00:00:0a:6a'
p2563
aS'00:00:00:00:0a:6b'
p2564
aS'00:00:00:00:0a:6c'
p2565
aS'00:00:00:00:0a:6d'
p2566
aS'00:00:00:00:0a:6e'
p2567
aS'00:00:00:00:0a:6f'
p2568
aS'00:00:00:00:0a:70'
p2569
aS'00:00:00:00:0a:71'
p2570
aS'00:00:00:00:0a:72'
p2571
aS'00:00:00:00:0a:73'
p2572
aS'00:00:00:00:0a:74'
p2573
aS'00:00:00:00:0a:75'
p2574
aS'00:00:00:00:0a:76'
p2575
aS'00:00:00:00:0a:77'
p2576
aS'00:00:00:00:0a:78'
p2577
aS'00:00:00:00:0a:79'
p2578
aS'00:00:00:00:0a:7a'
p2579
aS'00:00:00:00:0a:7b'
p2580
aS'00:00:00:00:0a:7c'
p2581
aS'00:00:00:00:0a:7d'
p2582
aS'00:00:00:00:0a:7e'
p2583
aS'00:00:00:00:0a:7f'
p2584
aS'00:00:00:00:0a:80'
p2585
aS'00:00:00:00:0a:81'
p2586
aS'00:00:00:00:0a:82'
p2587
aS'00:00:00:00:0a:83'
p2588
aS'00:00:00:00:0a:84'
p2589
aS'00:00:00:00:0a:85'
p2590
aS'00:00:00:00:0a:86'
p2591
aS'00:00:00:00:0a:87'
p2592
aS'00:00:00:00:0a:88'
p2593
aS'00:00:00:00:0a:89'
p2594
aS'00:00:00:00:0a:8a'
p2595
aS'00:00:00:00:0a:8b'
p2596
aS'00:00:00:00:0a:8c'
p2597
aS'00:00:00:00:0a:8d'
p2598
aS'00:00:00:00:0a:8e'
p2599
aS'00:00:00:00:0a:8f'
p2600
aS'00:00:00:00:0a:90'
p2601
aS'00:00:00:00:0a:91'
p2602
aS'00:00:00:00:0a:92'
p2603
aS'00:00:00:00:0a:93'
p2604
aS'00:00:00:00:0a:94'
p2605
aS'00:00:00:00:0a:95'
p2606
aS'00:00:00:00:0a:96'
p2607
aS'00:00:00:00:0a:97'
p2608
aS'00:00:00:00:0a:98'
p2609
aS'00:00:00:00:0a:99'
p2610
aS'00:00:00:00:0a:9a'
p2611
aS'00:00:00:00:0a:9b'
p2612
aS'00:00:00:00:0a:9c'
p2613
aS'00:00:00:00:0a:9d'
p2614
aS'00:00:00:00:0a:9e'
p2615
aS'00:00:00:00:0a:9f'
p2616
aS'00:00:00:00:0a:a0'
p2617
aS'00:00:00:00:0a:a1'
p2618
aS'00:00:00:00:0a:a2'
p2619
aS'00:00:00:00:0a:a3'
p2620
aS'00:00:00:00:0a:a4'
p2621
aS'00:00:00:00:0a:a5'
p2622
aS'00:00:00:00:0a:a6'
p2623
aS'00:00:00:00:0a:a7'
p2624
aS'00:00:00:00:0a:a8'
p2625
aS'00:00:00:00:0a:a9'
p2626
aS'00:00:00:00:0a:aa'
p2627
aS'00:00:00:00:0a:ab'
p2628
aS'00:00:00:00:0a:ac'
p2629
aS'00:00:00:00:0a:ad'
p2630
aS'00:00:00:00:0a:ae'
p2631
aS'00:00:00:00:0a:af'
p2632
aS'00:00:00:00:0a:b0'
p2633
aS'00:00:00:00:0a:b1'
p2634
aS'00:00:00:00:0a:b2'
p2635
aS'00:00:00:00:0a:b3'
p2636
aS'00:00:00:00:0a:b4'
p2637
aS'00:00:00:00:0a:b5'
p2638
aS'00:00:00:00:0a:b6'
p2639
aS'00:00:00:00:0a:b7'
p2640
aS'00:00:00:00:0a:b8'
p2641
aS'00:00:00:00:0a:b9'
p2642
aS'00:00:00:00:0a:ba'
p2643
aS'00:00:00:00:0a:bb'
p2644
aS'00:00:00:00:0a:bc'
p2645
aS'00:00:00:00:0a:bd'
p2646
aS'00:00:00:00:0a:be'
p2647
aS'00:00:00:00:0a:bf'
p2648
aS'00:00:00:00:0a:c0'
p2649
aS'00:00:00:00:0a:c1'
p2650
aS'00:00:00:00:0a:c2'
p2651
aS'00:00:00:00:0a:c3'
p2652
aS'00:00:00:00:0a:c4'
p2653
aS'00:00:00:00:0a:c5'
p2654
aS'00:00:00:00:0a:c6'
p2655
aS'00:00:00:00:0a:c7'
p2656
aS'00:00:00:00:0a:c8'
p2657
aS'00:00:00:00:0a:c9'
p2658
aS'00:00:00:00:0a:ca'
p2659
aS'00:00:00:00:0a:cb'
p2660
aS'00:00:00:00:0a:cc'
p2661
aS'00:00:00:00:0a:cd'
p2662
aS'00:00:00:00:0a:ce'
p2663
aS'00:00:00:00:0a:cf'
p2664
aS'00:00:00:00:0a:d0'
p2665
aS'00:00:00:00:0a:d1'
p2666
aS'00:00:00:00:0a:d2'
p2667
aS'00:00:00:00:0a:d3'
p2668
aS'00:00:00:00:0a:d4'
p2669
aS'00:00:00:00:0a:d5'
p2670
aS'00:00:00:00:0a:d6'
p2671
aS'00:00:00:00:0a:d7'
p2672
aS'00:00:00:00:0a:d8'
p2673
aS'00:00:00:00:0a:d9'
p2674
aS'00:00:00:00:0a:da'
p2675
aS'00:00:00:00:0a:db'
p2676
aS'00:00:00:00:0a:dc'
p2677
aS'00:00:00:00:0a:dd'
p2678
aS'00:00:00:00:0a:de'
p2679
aS'00:00:00:00:0a:df'
p2680
aS'00:00:00:00:0a:e0'
p2681
aS'00:00:00:00:0a:e1'
p2682
aS'00:00:00:00:0a:e2'
p2683
aS'00:00:00:00:0a:e3'
p2684
aS'00:00:00:00:0a:e4'
p2685
aS'00:00:00:00:0a:e5'
p2686
aS'00:00:00:00:0a:e6'
p2687
aS'00:00:00:00:0a:e7'
p2688
aS'00:00:00:00:0a:e8'
p2689
aS'00:00:00:00:0a:e9'
p2690
aS'00:00:00:00:0a:ea'
p2691
aS'00:00:00:00:0a:eb'
p2692
aS'00:00:00:00:0a:ec'
p2693
aS'00:00:00:00:0a:ed'
p2694
aS'00:00:00:00:0a:ee'
p2695
aS'00:00:00:00:0a:ef'
p2696
aS'00:00:00:00:0a:f0'
p2697
aS'00:00:00:00:0a:f1'
p2698
aS'00:00:00:00:0a:f2'
p2699
aS'00:00:00:00:0a:f3'
p2700
aS'00:00:00:00:0a:f4'
p2701
aS'00:00:00:00:0a:f5'
p2702
aS'00:00:00:00:0a:f6'
p2703
aS'00:00:00:00:0a:f7'
p2704
aS'00:00:00:00:0a:f8'
p2705
aS'00:00:00:00:0a:f9'
p2706
aS'00:00:00:00:0a:fa'
p2707
aS'00:00:00:00:0a:fb'
p2708
aS'00:00:00:00:0a:fc'
p2709
aS'00:00:00:00:0a:fd'
p2710
aS'00:00:00:00:0a:fe'
p2711
aS'00:00:00:00:0a:ff'
p2712
aS'00:00:00:00:0b:00'
p2713
aS'00:00:00:00:0b:01'
p2714
aS'00:00:00:00:0b:02'
p2715
aS'00:00:00:00:0b:03'
p2716
aS'00:00:00:00:0b:04'
p2717
aS'00:00:00:00:0b:05'
p2718
aS'00:00:00:00:0b:06'
p2719
aS'00:00:00:00:0b:07'
p2720
aS'00:00:00:00:0b:08'
p2721
aS'00:00:00:00:0b:09'
p2722
aS'00:00:00:00:0b:0a'
p2723
aS'00:00:00:00:0b:0b'
p2724
aS'00:00:00:00:0b:0c'
p2725
aS'00:00:00:00:0b:0d'
p2726
aS'00:00:00:00:0b:0e'
p2727
aS'00:00:00:00:0b:0f'
p2728
aS'00:00:00:00:0b:10'
p2729
aS'00:00:00:00:0b:11'
p2730
aS'00:00:00:00:0b:12'
p2731
aS'00:00:00:00:0b:13'
p2732
aS'00:00:00:00:0b:14'
p2733
aS'00:00:00:00:0b:15'
p2734
aS'00:00:00:00:0b:16'
p2735
aS'00:00:00:00:0b:17'
p2736
aS'00:00:00:00:0b:18'
p2737
aS'00:00:00:00:0b:19'
p2738
aS'00:00:00:00:0b:1a'
p2739
aS'00:00:00:00:0b:1b'
p2740
aS'00:00:00:00:0b:1c'
p2741
aS'00:00:00:00:0b:1d'
p2742
aS'00:00:00:00:0b:1e'
p2743
aS'00:00:00:00:0b:1f'
p2744
aS'00:00:00:00:0b:20'
p2745
aS'00:00:00:00:0b:21'
p2746
aS'00:00:00:00:0b:22'
p2747
aS'00:00:00:00:0b:23'
p2748
aS'00:00:00:00:0b:24'
p2749
aS'00:00:00:00:0b:25'
p2750
aS'00:00:00:00:0b:26'
p2751
aS'00:00:00:00:0b:27'
p2752
aS'00:00:00:00:0b:28'
p2753
aS'00:00:00:00:0b:29'
p2754
aS'00:00:00:00:0b:2a'
p2755
aS'00:00:00:00:0b:2b'
p2756
aS'00:00:00:00:0b:2c'
p2757
aS'00:00:00:00:0b:2d'
p2758
aS'00:00:00:00:0b:2e'
p2759
aS'00:00:00:00:0b:2f'
p2760
aS'00:00:00:00:0b:30'
p2761
aS'00:00:00:00:0b:31'
p2762
aS'00:00:00:00:0b:32'
p2763
aS'00:00:00:00:0b:33'
p2764
aS'00:00:00:00:0b:34'
p2765
aS'00:00:00:00:0b:35'
p2766
aS'00:00:00:00:0b:36'
p2767
aS'00:00:00:00:0b:37'
p2768
aS'00:00:00:00:0b:38'
p2769
aS'00:00:00:00:0b:39'
p2770
aS'00:00:00:00:0b:3a'
p2771
aS'00:00:00:00:0b:3b'
p2772
aS'00:00:00:00:0b:3c'
p2773
aS'00:00:00:00:0b:3d'
p2774
aS'00:00:00:00:0b:3e'
p2775
aS'00:00:00:00:0b:3f'
p2776
aS'00:00:00:00:0b:40'
p2777
aS'00:00:00:00:0b:41'
p2778
aS'00:00:00:00:0b:42'
p2779
aS'00:00:00:00:0b:43'
p2780
aS'00:00:00:00:0b:44'
p2781
aS'00:00:00:00:0b:45'
p2782
aS'00:00:00:00:0b:46'
p2783
aS'00:00:00:00:0b:47'
p2784
aS'00:00:00:00:0b:48'
p2785
aS'00:00:00:00:0b:49'
p2786
aS'00:00:00:00:0b:4a'
p2787
aS'00:00:00:00:0b:4b'
p2788
aS'00:00:00:00:0b:4c'
p2789
aS'00:00:00:00:0b:4d'
p2790
aS'00:00:00:00:0b:4e'
p2791
aS'00:00:00:00:0b:4f'
p2792
aS'00:00:00:00:0b:50'
p2793
aS'00:00:00:00:0b:51'
p2794
aS'00:00:00:00:0b:52'
p2795
aS'00:00:00:00:0b:53'
p2796
aS'00:00:00:00:0b:54'
p2797
aS'00:00:00:00:0b:55'
p2798
aS'00:00:00:00:0b:56'
p2799
aS'00:00:00:00:0b:57'
p2800
aS'00:00:00:00:0b:58'
p2801
aS'00:00:00:00:0b:59'
p2802
aS'00:00:00:00:0b:5a'
p2803
aS'00:00:00:00:0b:5b'
p2804
aS'00:00:00:00:0b:5c'
p2805
aS'00:00:00:00:0b:5d'
p2806
aS'00:00:00:00:0b:5e'
p2807
aS'00:00:00:00:0b:5f'
p2808
aS'00:00:00:00:0b:60'
p2809
aS'00:00:00:00:0b:61'
p2810
aS'00:00:00:00:0b:62'
p2811
aS'00:00:00:00:0b:63'
p2812
aS'00:00:00:00:0b:64'
p2813
aS'00:00:00:00:0b:65'
p2814
aS'00:00:00:00:0b:66'
p2815
aS'00:00:00:00:0b:67'
p2816
aS'00:00:00:00:0b:68'
p2817
aS'00:00:00:00:0b:69'
p2818
aS'00:00:00:00:0b:6a'
p2819
aS'00:00:00:00:0b:6b'
p2820
aS'00:00:00:00:0b:6c'
p2821
aS'00:00:00:00:0b:6d'
p2822
aS'00:00:00:00:0b:6e'
p2823
aS'00:00:00:00:0b:6f'
p2824
aS'00:00:00:00:0b:70'
p2825
aS'00:00:00:00:0b:71'
p2826
aS'00:00:00:00:0b:72'
p2827
aS'00:00:00:00:0b:73'
p2828
aS'00:00:00:00:0b:74'
p2829
aS'00:00:00:00:0b:75'
p2830
aS'00:00:00:00:0b:76'
p2831
aS'00:00:00:00:0b:77'
p2832
aS'00:00:00:00:0b:78'
p2833
aS'00:00:00:00:0b:79'
p2834
aS'00:00:00:00:0b:7a'
p2835
aS'00:00:00:00:0b:7b'
p2836
aS'00:00:00:00:0b:7c'
p2837
aS'00:00:00:00:0b:7d'
p2838
aS'00:00:00:00:0b:7e'
p2839
aS'00:00:00:00:0b:7f'
p2840
aS'00:00:00:00:0b:80'
p2841
aS'00:00:00:00:0b:81'
p2842
aS'00:00:00:00:0b:82'
p2843
aS'00:00:00:00:0b:83'
p2844
aS'00:00:00:00:0b:84'
p2845
aS'00:00:00:00:0b:85'
p2846
aS'00:00:00:00:0b:86'
p2847
aS'00:00:00:00:0b:87'
p2848
aS'00:00:00:00:0b:88'
p2849
aS'00:00:00:00:0b:89'
p2850
aS'00:00:00:00:0b:8a'
p2851
aS'00:00:00:00:0b:8b'
p2852
aS'00:00:00:00:0b:8c'
p2853
aS'00:00:00:00:0b:8d'
p2854
aS'00:00:00:00:0b:8e'
p2855
aS'00:00:00:00:0b:8f'
p2856
aS'00:00:00:00:0b:90'
p2857
aS'00:00:00:00:0b:91'
p2858
aS'00:00:00:00:0b:92'
p2859
aS'00:00:00:00:0b:93'
p2860
aS'00:00:00:00:0b:94'
p2861
aS'00:00:00:00:0b:95'
p2862
aS'00:00:00:00:0b:96'
p2863
aS'00:00:00:00:0b:97'
p2864
aS'00:00:00:00:0b:98'
p2865
aS'00:00:00:00:0b:99'
p2866
aS'00:00:00:00:0b:9a'
p2867
aS'00:00:00:00:0b:9b'
p2868
aS'00:00:00:00:0b:9c'
p2869
aS'00:00:00:00:0b:9d'
p2870
aS'00:00:00:00:0b:9e'
p2871
aS'00:00:00:00:0b:9f'
p2872
aS'00:00:00:00:0b:a0'
p2873
aS'00:00:00:00:0b:a1'
p2874
aS'00:00:00:00:0b:a2'
p2875
aS'00:00:00:00:0b:a3'
p2876
aS'00:00:00:00:0b:a4'
p2877
aS'00:00:00:00:0b:a5'
p2878
aS'00:00:00:00:0b:a6'
p2879
aS'00:00:00:00:0b:a7'
p2880
aS'00:00:00:00:0b:a8'
p2881
aS'00:00:00:00:0b:a9'
p2882
aS'00:00:00:00:0b:aa'
p2883
aS'00:00:00:00:0b:ab'
p2884
aS'00:00:00:00:0b:ac'
p2885
aS'00:00:00:00:0b:ad'
p2886
aS'00:00:00:00:0b:ae'
p2887
aS'00:00:00:00:0b:af'
p2888
aS'00:00:00:00:0b:b0'
p2889
aS'00:00:00:00:0b:b1'
p2890
aS'00:00:00:00:0b:b2'
p2891
aS'00:00:00:00:0b:b3'
p2892
aS'00:00:00:00:0b:b4'
p2893
aS'00:00:00:00:0b:b5'
p2894
aS'00:00:00:00:0b:b6'
p2895
aS'00:00:00:00:0b:b7'
p2896
aS'00:00:00:00:0b:b8'
p2897
asbsS'tenants'
p2898
(dp2899
I1
g1
(cAutoTest.Model.Tenant
Tenant
p2900
g3
NtRp2901
(dp2902
S'subnet'
p2903
(lp2904
V192.168.0.0/16
p2905
aV10.0.0.0/16
p2906
asg6
g8
sS'tenant_id'
p2907
I1
sS'priority'
p2908
I2
sS'hosts'
p2909
(lp2910
g1
(cAutoTest.Model.Device
Host
p2911
g3
NtRp2912
(dp2913
S't_id'
p2914
I1
sS'name'
p2915
S'h00100001'
p2916
sS'ip'
p2917
S'10.0.0.2'
p2918
sS'mac'
p2919
S'00:00:00:00:00:01'
p2920
sS'gw_ip'
p2921
V10.0.0.1
p2922
sS'dc_id'
p2923
I2
sS'id'
p2924
I1
sbag1
(g2911
g3
NtRp2925
(dp2926
g2914
I1
sg2915
S'h00100002'
p2927
sg2917
S'10.0.0.3'
p2928
sg2919
S'00:00:00:00:00:02'
p2929
sg2921
V10.0.0.1
p2930
sg2923
I1
sg2924
I2
sbag1
(g2911
g3
NtRp2931
(dp2932
g2914
I1
sg2915
S'h00100003'
p2933
sg2917
S'192.168.0.2'
p2934
sg2919
S'00:00:00:00:00:03'
p2935
sg2921
V192.168.0.1
p2936
sg2923
I2
sg2924
I3
sbag1
(g2911
g3
NtRp2937
(dp2938
g2914
I1
sg2915
S'h00100004'
p2939
sg2917
S'10.0.0.4'
p2940
sg2919
S'00:00:00:00:00:04'
p2941
sg2921
g2922
sg2923
I2
sg2924
I4
sbag1
(g2911
g3
NtRp2942
(dp2943
g2914
I1
sg2915
S'h00100005'
p2944
sg2917
S'192.168.0.3'
p2945
sg2919
S'00:00:00:00:00:05'
p2946
sg2921
g2936
sg2923
I2
sg2924
I5
sbag1
(g2911
g3
NtRp2947
(dp2948
g2914
I1
sg2915
S'h00100006'
p2949
sg2917
S'192.168.0.4'
p2950
sg2919
S'00:00:00:00:00:06'
p2951
sg2921
V192.168.0.1
p2952
sg2923
I1
sg2924
I6
sbag1
(g2911
g3
NtRp2953
(dp2954
g2914
I1
sg2915
S'h00100007'
p2955
sg2917
S'10.0.0.5'
p2956
sg2919
S'00:00:00:00:00:07'
p2957
sg2921
g2930
sg2923
I1
sg2924
I7
sbag1
(g2911
g3
NtRp2958
(dp2959
g2914
I1
sg2915
S'h00100008'
p2960
sg2917
S'192.168.0.5'
p2961
sg2919
S'00:00:00:00:00:08'
p2962
sg2921
g2936
sg2923
I2
sg2924
I8
sbag1
(g2911
g3
NtRp2963
(dp2964
g2914
I1
sg2915
S'h00100009'
p2965
sg2917
S'10.0.0.6'
p2966
sg2919
S'00:00:00:00:00:09'
p2967
sg2921
g2930
sg2923
I1
sg2924
I9
sbag1
(g2911
g3
NtRp2968
(dp2969
g2914
I1
sg2915
S'h00100010'
p2970
sg2917
S'192.168.0.6'
p2971
sg2919
S'00:00:00:00:00:0a'
p2972
sg2921
g2952
sg2923
I1
sg2924
I10
sbag1
(g2911
g3
NtRp2973
(dp2974
g2914
I1
sg2915
S'h00100011'
p2975
sg2917
S'192.168.0.7'
p2976
sg2919
S'00:00:00:00:00:0b'
p2977
sg2921
g2952
sg2923
I1
sg2924
I11
sbag1
(g2911
g3
NtRp2978
(dp2979
g2914
I1
sg2915
S'h00100012'
p2980
sg2917
S'10.0.0.7'
p2981
sg2919
S'00:00:00:00:00:0c'
p2982
sg2921
g2922
sg2923
I2
sg2924
I12
sbag1
(g2911
g3
NtRp2983
(dp2984
g2914
I1
sg2915
S'h00100013'
p2985
sg2917
S'10.0.0.8'
p2986
sg2919
S'00:00:00:00:00:0d'
p2987
sg2921
g2922
sg2923
I2
sg2924
I13
sbag1
(g2911
g3
NtRp2988
(dp2989
g2914
I1
sg2915
S'h00100014'
p2990
sg2917
S'10.0.0.9'
p2991
sg2919
S'00:00:00:00:00:0e'
p2992
sg2921
g2930
sg2923
I1
sg2924
I14
sbag1
(g2911
g3
NtRp2993
(dp2994
g2914
I1
sg2915
S'h00100015'
p2995
sg2917
S'10.0.0.10'
p2996
sg2919
S'00:00:00:00:00:0f'
p2997
sg2921
g2930
sg2923
I1
sg2924
I15
sbag1
(g2911
g3
NtRp2998
(dp2999
g2914
I1
sg2915
S'h00100016'
p3000
sg2917
S'192.168.0.8'
p3001
sg2919
S'00:00:00:00:00:10'
p3002
sg2921
g2952
sg2923
I1
sg2924
I16
sbag1
(g2911
g3
NtRp3003
(dp3004
g2914
I1
sg2915
S'h00100017'
p3005
sg2917
S'10.0.0.11'
p3006
sg2919
S'00:00:00:00:00:11'
p3007
sg2921
g2930
sg2923
I1
sg2924
I17
sbag1
(g2911
g3
NtRp3008
(dp3009
g2914
I1
sg2915
S'h00100018'
p3010
sg2917
S'10.0.0.12'
p3011
sg2919
S'00:00:00:00:00:12'
p3012
sg2921
g2922
sg2923
I2
sg2924
I18
sbag1
(g2911
g3
NtRp3013
(dp3014
g2914
I1
sg2915
S'h00100019'
p3015
sg2917
S'192.168.0.9'
p3016
sg2919
S'00:00:00:00:00:13'
p3017
sg2921
g2952
sg2923
I1
sg2924
I19
sbag1
(g2911
g3
NtRp3018
(dp3019
g2914
I1
sg2915
S'h00100020'
p3020
sg2917
S'10.0.0.13'
p3021
sg2919
S'00:00:00:00:00:14'
p3022
sg2921
g2922
sg2923
I2
sg2924
I20
sbag1
(g2911
g3
NtRp3023
(dp3024
g2914
I1
sg2915
S'h00100021'
p3025
sg2917
S'192.168.0.10'
p3026
sg2919
S'00:00:00:00:00:15'
p3027
sg2921
g2936
sg2923
I2
sg2924
I21
sbag1
(g2911
g3
NtRp3028
(dp3029
g2914
I1
sg2915
S'h00100022'
p3030
sg2917
S'10.0.0.14'
p3031
sg2919
S'00:00:00:00:00:16'
p3032
sg2921
g2922
sg2923
I2
sg2924
I22
sbag1
(g2911
g3
NtRp3033
(dp3034
g2914
I1
sg2915
S'h00100023'
p3035
sg2917
S'192.168.0.11'
p3036
sg2919
S'00:00:00:00:00:17'
p3037
sg2921
g2952
sg2923
I1
sg2924
I23
sbag1
(g2911
g3
NtRp3038
(dp3039
g2914
I1
sg2915
S'h00100024'
p3040
sg2917
S'10.0.0.15'
p3041
sg2919
S'00:00:00:00:00:18'
p3042
sg2921
g2922
sg2923
I2
sg2924
I24
sbag1
(g2911
g3
NtRp3043
(dp3044
g2914
I1
sg2915
S'h00100025'
p3045
sg2917
S'10.0.0.16'
p3046
sg2919
S'00:00:00:00:00:19'
p3047
sg2921
g2930
sg2923
I1
sg2924
I25
sbag1
(g2911
g3
NtRp3048
(dp3049
g2914
I1
sg2915
S'h00100026'
p3050
sg2917
S'10.0.0.17'
p3051
sg2919
S'00:00:00:00:00:1a'
p3052
sg2921
g2930
sg2923
I1
sg2924
I26
sbag1
(g2911
g3
NtRp3053
(dp3054
g2914
I1
sg2915
S'h00100027'
p3055
sg2917
S'10.0.0.18'
p3056
sg2919
S'00:00:00:00:00:1b'
p3057
sg2921
g2930
sg2923
I1
sg2924
I27
sbag1
(g2911
g3
NtRp3058
(dp3059
g2914
I1
sg2915
S'h00100028'
p3060
sg2917
S'192.168.0.12'
p3061
sg2919
S'00:00:00:00:00:1c'
p3062
sg2921
g2936
sg2923
I2
sg2924
I28
sbag1
(g2911
g3
NtRp3063
(dp3064
g2914
I1
sg2915
S'h00100029'
p3065
sg2917
S'192.168.0.13'
p3066
sg2919
S'00:00:00:00:00:1d'
p3067
sg2921
g2936
sg2923
I2
sg2924
I29
sbag1
(g2911
g3
NtRp3068
(dp3069
g2914
I1
sg2915
S'h00100030'
p3070
sg2917
S'10.0.0.19'
p3071
sg2919
S'00:00:00:00:00:1e'
p3072
sg2921
g2922
sg2923
I2
sg2924
I30
sbag1
(g2911
g3
NtRp3073
(dp3074
g2914
I1
sg2915
S'h00100031'
p3075
sg2917
S'192.168.0.14'
p3076
sg2919
S'00:00:00:00:00:1f'
p3077
sg2921
g2936
sg2923
I2
sg2924
I31
sbag1
(g2911
g3
NtRp3078
(dp3079
g2914
I1
sg2915
S'h00100032'
p3080
sg2917
S'192.168.0.15'
p3081
sg2919
S'00:00:00:00:00:20'
p3082
sg2921
g2936
sg2923
I2
sg2924
I32
sbag1
(g2911
g3
NtRp3083
(dp3084
g2914
I1
sg2915
S'h00100033'
p3085
sg2917
S'192.168.0.16'
p3086
sg2919
S'00:00:00:00:00:21'
p3087
sg2921
g2952
sg2923
I1
sg2924
I33
sbag1
(g2911
g3
NtRp3088
(dp3089
g2914
I1
sg2915
S'h00100034'
p3090
sg2917
S'192.168.0.17'
p3091
sg2919
S'00:00:00:00:00:22'
p3092
sg2921
g2952
sg2923
I1
sg2924
I34
sbag1
(g2911
g3
NtRp3093
(dp3094
g2914
I1
sg2915
S'h00100035'
p3095
sg2917
S'10.0.0.20'
p3096
sg2919
S'00:00:00:00:00:23'
p3097
sg2921
g2922
sg2923
I2
sg2924
I35
sbag1
(g2911
g3
NtRp3098
(dp3099
g2914
I1
sg2915
S'h00100036'
p3100
sg2917
S'10.0.0.21'
p3101
sg2919
S'00:00:00:00:00:24'
p3102
sg2921
g2922
sg2923
I2
sg2924
I36
sbag1
(g2911
g3
NtRp3103
(dp3104
g2914
I1
sg2915
S'h00100037'
p3105
sg2917
S'192.168.0.18'
p3106
sg2919
S'00:00:00:00:00:25'
p3107
sg2921
g2936
sg2923
I2
sg2924
I37
sbag1
(g2911
g3
NtRp3108
(dp3109
g2914
I1
sg2915
S'h00100038'
p3110
sg2917
S'192.168.0.19'
p3111
sg2919
S'00:00:00:00:00:26'
p3112
sg2921
g2936
sg2923
I2
sg2924
I38
sbag1
(g2911
g3
NtRp3113
(dp3114
g2914
I1
sg2915
S'h00100039'
p3115
sg2917
S'10.0.0.22'
p3116
sg2919
S'00:00:00:00:00:27'
p3117
sg2921
g2922
sg2923
I2
sg2924
I39
sbag1
(g2911
g3
NtRp3118
(dp3119
g2914
I1
sg2915
S'h00100040'
p3120
sg2917
S'192.168.0.20'
p3121
sg2919
S'00:00:00:00:00:28'
p3122
sg2921
g2952
sg2923
I1
sg2924
I40
sbag1
(g2911
g3
NtRp3123
(dp3124
g2914
I1
sg2915
S'h00100041'
p3125
sg2917
S'192.168.0.21'
p3126
sg2919
S'00:00:00:00:00:29'
p3127
sg2921
g2936
sg2923
I2
sg2924
I41
sbag1
(g2911
g3
NtRp3128
(dp3129
g2914
I1
sg2915
S'h00100042'
p3130
sg2917
S'10.0.0.23'
p3131
sg2919
S'00:00:00:00:00:2a'
p3132
sg2921
g2930
sg2923
I1
sg2924
I42
sbag1
(g2911
g3
NtRp3133
(dp3134
g2914
I1
sg2915
S'h00100043'
p3135
sg2917
S'10.0.0.24'
p3136
sg2919
S'00:00:00:00:00:2b'
p3137
sg2921
g2930
sg2923
I1
sg2924
I43
sbag1
(g2911
g3
NtRp3138
(dp3139
g2914
I1
sg2915
S'h00100044'
p3140
sg2917
S'192.168.0.22'
p3141
sg2919
S'00:00:00:00:00:2c'
p3142
sg2921
g2952
sg2923
I1
sg2924
I44
sbag1
(g2911
g3
NtRp3143
(dp3144
g2914
I1
sg2915
S'h00100045'
p3145
sg2917
S'10.0.0.25'
p3146
sg2919
S'00:00:00:00:00:2d'
p3147
sg2921
g2930
sg2923
I1
sg2924
I45
sbag1
(g2911
g3
NtRp3148
(dp3149
g2914
I1
sg2915
S'h00100046'
p3150
sg2917
S'192.168.0.23'
p3151
sg2919
S'00:00:00:00:00:2e'
p3152
sg2921
g2952
sg2923
I1
sg2924
I46
sbag1
(g2911
g3
NtRp3153
(dp3154
g2914
I1
sg2915
S'h00100047'
p3155
sg2917
S'192.168.0.24'
p3156
sg2919
S'00:00:00:00:00:2f'
p3157
sg2921
g2936
sg2923
I2
sg2924
I47
sbag1
(g2911
g3
NtRp3158
(dp3159
g2914
I1
sg2915
S'h00100048'
p3160
sg2917
S'10.0.0.26'
p3161
sg2919
S'00:00:00:00:00:30'
p3162
sg2921
g2930
sg2923
I1
sg2924
I48
sbag1
(g2911
g3
NtRp3163
(dp3164
g2914
I1
sg2915
S'h00100049'
p3165
sg2917
S'192.168.0.25'
p3166
sg2919
S'00:00:00:00:00:31'
p3167
sg2921
g2936
sg2923
I2
sg2924
I49
sbag1
(g2911
g3
NtRp3168
(dp3169
g2914
I1
sg2915
S'h00100050'
p3170
sg2917
S'10.0.0.27'
p3171
sg2919
S'00:00:00:00:00:32'
p3172
sg2921
g2930
sg2923
I1
sg2924
I50
sbag1
(g2911
g3
NtRp3173
(dp3174
g2914
I1
sg2915
S'h00100051'
p3175
sg2917
S'10.0.0.28'
p3176
sg2919
S'00:00:00:00:00:33'
p3177
sg2921
g2930
sg2923
I1
sg2924
I51
sbag1
(g2911
g3
NtRp3178
(dp3179
g2914
I1
sg2915
S'h00100052'
p3180
sg2917
S'10.0.0.29'
p3181
sg2919
S'00:00:00:00:00:34'
p3182
sg2921
g2930
sg2923
I1
sg2924
I52
sbag1
(g2911
g3
NtRp3183
(dp3184
g2914
I1
sg2915
S'h00100053'
p3185
sg2917
S'10.0.0.30'
p3186
sg2919
S'00:00:00:00:00:35'
p3187
sg2921
g2922
sg2923
I2
sg2924
I53
sbag1
(g2911
g3
NtRp3188
(dp3189
g2914
I1
sg2915
S'h00100054'
p3190
sg2917
S'10.0.0.31'
p3191
sg2919
S'00:00:00:00:00:36'
p3192
sg2921
g2930
sg2923
I1
sg2924
I54
sbag1
(g2911
g3
NtRp3193
(dp3194
g2914
I1
sg2915
S'h00100055'
p3195
sg2917
S'192.168.0.26'
p3196
sg2919
S'00:00:00:00:00:37'
p3197
sg2921
g2936
sg2923
I2
sg2924
I55
sbag1
(g2911
g3
NtRp3198
(dp3199
g2914
I1
sg2915
S'h00100056'
p3200
sg2917
S'192.168.0.27'
p3201
sg2919
S'00:00:00:00:00:38'
p3202
sg2921
g2952
sg2923
I1
sg2924
I56
sbag1
(g2911
g3
NtRp3203
(dp3204
g2914
I1
sg2915
S'h00100057'
p3205
sg2917
S'10.0.0.32'
p3206
sg2919
S'00:00:00:00:00:39'
p3207
sg2921
g2922
sg2923
I2
sg2924
I57
sbag1
(g2911
g3
NtRp3208
(dp3209
g2914
I1
sg2915
S'h00100058'
p3210
sg2917
S'192.168.0.28'
p3211
sg2919
S'00:00:00:00:00:3a'
p3212
sg2921
g2952
sg2923
I1
sg2924
I58
sbag1
(g2911
g3
NtRp3213
(dp3214
g2914
I1
sg2915
S'h00100059'
p3215
sg2917
S'192.168.0.29'
p3216
sg2919
S'00:00:00:00:00:3b'
p3217
sg2921
g2936
sg2923
I2
sg2924
I59
sbag1
(g2911
g3
NtRp3218
(dp3219
g2914
I1
sg2915
S'h00100060'
p3220
sg2917
S'192.168.0.30'
p3221
sg2919
S'00:00:00:00:00:3c'
p3222
sg2921
g2936
sg2923
I2
sg2924
I60
sbag1
(g2911
g3
NtRp3223
(dp3224
g2914
I1
sg2915
S'h00100061'
p3225
sg2917
S'192.168.0.31'
p3226
sg2919
S'00:00:00:00:00:3d'
p3227
sg2921
g2952
sg2923
I1
sg2924
I61
sbag1
(g2911
g3
NtRp3228
(dp3229
g2914
I1
sg2915
S'h00100062'
p3230
sg2917
S'192.168.0.32'
p3231
sg2919
S'00:00:00:00:00:3e'
p3232
sg2921
g2952
sg2923
I1
sg2924
I62
sbag1
(g2911
g3
NtRp3233
(dp3234
g2914
I1
sg2915
S'h00100063'
p3235
sg2917
S'192.168.0.33'
p3236
sg2919
S'00:00:00:00:00:3f'
p3237
sg2921
g2936
sg2923
I2
sg2924
I63
sbag1
(g2911
g3
NtRp3238
(dp3239
g2914
I1
sg2915
S'h00100064'
p3240
sg2917
S'10.0.0.33'
p3241
sg2919
S'00:00:00:00:00:40'
p3242
sg2921
g2922
sg2923
I2
sg2924
I64
sbag1
(g2911
g3
NtRp3243
(dp3244
g2914
I1
sg2915
S'h00100065'
p3245
sg2917
S'192.168.0.34'
p3246
sg2919
S'00:00:00:00:00:41'
p3247
sg2921
g2936
sg2923
I2
sg2924
I65
sbag1
(g2911
g3
NtRp3248
(dp3249
g2914
I1
sg2915
S'h00100066'
p3250
sg2917
S'192.168.0.35'
p3251
sg2919
S'00:00:00:00:00:42'
p3252
sg2921
g2936
sg2923
I2
sg2924
I66
sbag1
(g2911
g3
NtRp3253
(dp3254
g2914
I1
sg2915
S'h00100067'
p3255
sg2917
S'192.168.0.36'
p3256
sg2919
S'00:00:00:00:00:43'
p3257
sg2921
g2936
sg2923
I2
sg2924
I67
sbag1
(g2911
g3
NtRp3258
(dp3259
g2914
I1
sg2915
S'h00100068'
p3260
sg2917
S'10.0.0.34'
p3261
sg2919
S'00:00:00:00:00:44'
p3262
sg2921
g2930
sg2923
I1
sg2924
I68
sbag1
(g2911
g3
NtRp3263
(dp3264
g2914
I1
sg2915
S'h00100069'
p3265
sg2917
S'10.0.0.35'
p3266
sg2919
S'00:00:00:00:00:45'
p3267
sg2921
g2922
sg2923
I2
sg2924
I69
sbag1
(g2911
g3
NtRp3268
(dp3269
g2914
I1
sg2915
S'h00100070'
p3270
sg2917
S'192.168.0.37'
p3271
sg2919
S'00:00:00:00:00:46'
p3272
sg2921
g2936
sg2923
I2
sg2924
I70
sbag1
(g2911
g3
NtRp3273
(dp3274
g2914
I1
sg2915
S'h00100071'
p3275
sg2917
S'192.168.0.38'
p3276
sg2919
S'00:00:00:00:00:47'
p3277
sg2921
g2952
sg2923
I1
sg2924
I71
sbag1
(g2911
g3
NtRp3278
(dp3279
g2914
I1
sg2915
S'h00100072'
p3280
sg2917
S'10.0.0.36'
p3281
sg2919
S'00:00:00:00:00:48'
p3282
sg2921
g2930
sg2923
I1
sg2924
I72
sbag1
(g2911
g3
NtRp3283
(dp3284
g2914
I1
sg2915
S'h00100073'
p3285
sg2917
S'192.168.0.39'
p3286
sg2919
S'00:00:00:00:00:49'
p3287
sg2921
g2952
sg2923
I1
sg2924
I73
sbag1
(g2911
g3
NtRp3288
(dp3289
g2914
I1
sg2915
S'h00100074'
p3290
sg2917
S'10.0.0.37'
p3291
sg2919
S'00:00:00:00:00:4a'
p3292
sg2921
g2922
sg2923
I2
sg2924
I74
sbag1
(g2911
g3
NtRp3293
(dp3294
g2914
I1
sg2915
S'h00100075'
p3295
sg2917
S'10.0.0.38'
p3296
sg2919
S'00:00:00:00:00:4b'
p3297
sg2921
g2930
sg2923
I1
sg2924
I75
sbag1
(g2911
g3
NtRp3298
(dp3299
g2914
I1
sg2915
S'h00100076'
p3300
sg2917
S'192.168.0.40'
p3301
sg2919
S'00:00:00:00:00:4c'
p3302
sg2921
g2936
sg2923
I2
sg2924
I76
sbag1
(g2911
g3
NtRp3303
(dp3304
g2914
I1
sg2915
S'h00100077'
p3305
sg2917
S'10.0.0.39'
p3306
sg2919
S'00:00:00:00:00:4d'
p3307
sg2921
g2922
sg2923
I2
sg2924
I77
sbag1
(g2911
g3
NtRp3308
(dp3309
g2914
I1
sg2915
S'h00100078'
p3310
sg2917
S'192.168.0.41'
p3311
sg2919
S'00:00:00:00:00:4e'
p3312
sg2921
g2952
sg2923
I1
sg2924
I78
sbag1
(g2911
g3
NtRp3313
(dp3314
g2914
I1
sg2915
S'h00100079'
p3315
sg2917
S'192.168.0.42'
p3316
sg2919
S'00:00:00:00:00:4f'
p3317
sg2921
g2936
sg2923
I2
sg2924
I79
sbag1
(g2911
g3
NtRp3318
(dp3319
g2914
I1
sg2915
S'h00100080'
p3320
sg2917
S'192.168.0.43'
p3321
sg2919
S'00:00:00:00:00:50'
p3322
sg2921
g2936
sg2923
I2
sg2924
I80
sbag1
(g2911
g3
NtRp3323
(dp3324
g2914
I1
sg2915
S'h00100081'
p3325
sg2917
S'192.168.0.44'
p3326
sg2919
S'00:00:00:00:00:51'
p3327
sg2921
g2952
sg2923
I1
sg2924
I81
sbag1
(g2911
g3
NtRp3328
(dp3329
g2914
I1
sg2915
S'h00100082'
p3330
sg2917
S'192.168.0.45'
p3331
sg2919
S'00:00:00:00:00:52'
p3332
sg2921
g2936
sg2923
I2
sg2924
I82
sbag1
(g2911
g3
NtRp3333
(dp3334
g2914
I1
sg2915
S'h00100083'
p3335
sg2917
S'10.0.0.40'
p3336
sg2919
S'00:00:00:00:00:53'
p3337
sg2921
g2930
sg2923
I1
sg2924
I83
sbag1
(g2911
g3
NtRp3338
(dp3339
g2914
I1
sg2915
S'h00100084'
p3340
sg2917
S'10.0.0.41'
p3341
sg2919
S'00:00:00:00:00:54'
p3342
sg2921
g2922
sg2923
I2
sg2924
I84
sbag1
(g2911
g3
NtRp3343
(dp3344
g2914
I1
sg2915
S'h00100085'
p3345
sg2917
S'192.168.0.46'
p3346
sg2919
S'00:00:00:00:00:55'
p3347
sg2921
g2936
sg2923
I2
sg2924
I85
sbag1
(g2911
g3
NtRp3348
(dp3349
g2914
I1
sg2915
S'h00100086'
p3350
sg2917
S'192.168.0.47'
p3351
sg2919
S'00:00:00:00:00:56'
p3352
sg2921
g2936
sg2923
I2
sg2924
I86
sbag1
(g2911
g3
NtRp3353
(dp3354
g2914
I1
sg2915
S'h00100087'
p3355
sg2917
S'10.0.0.42'
p3356
sg2919
S'00:00:00:00:00:57'
p3357
sg2921
g2922
sg2923
I2
sg2924
I87
sbag1
(g2911
g3
NtRp3358
(dp3359
g2914
I1
sg2915
S'h00100088'
p3360
sg2917
S'10.0.0.43'
p3361
sg2919
S'00:00:00:00:00:58'
p3362
sg2921
g2930
sg2923
I1
sg2924
I88
sbag1
(g2911
g3
NtRp3363
(dp3364
g2914
I1
sg2915
S'h00100089'
p3365
sg2917
S'192.168.0.48'
p3366
sg2919
S'00:00:00:00:00:59'
p3367
sg2921
g2952
sg2923
I1
sg2924
I89
sbag1
(g2911
g3
NtRp3368
(dp3369
g2914
I1
sg2915
S'h00100090'
p3370
sg2917
S'10.0.0.44'
p3371
sg2919
S'00:00:00:00:00:5a'
p3372
sg2921
g2922
sg2923
I2
sg2924
I90
sbag1
(g2911
g3
NtRp3373
(dp3374
g2914
I1
sg2915
S'h00100091'
p3375
sg2917
S'192.168.0.49'
p3376
sg2919
S'00:00:00:00:00:5b'
p3377
sg2921
g2952
sg2923
I1
sg2924
I91
sbag1
(g2911
g3
NtRp3378
(dp3379
g2914
I1
sg2915
S'h00100092'
p3380
sg2917
S'10.0.0.45'
p3381
sg2919
S'00:00:00:00:00:5c'
p3382
sg2921
g2930
sg2923
I1
sg2924
I92
sbag1
(g2911
g3
NtRp3383
(dp3384
g2914
I1
sg2915
S'h00100093'
p3385
sg2917
S'192.168.0.50'
p3386
sg2919
S'00:00:00:00:00:5d'
p3387
sg2921
g2952
sg2923
I1
sg2924
I93
sbag1
(g2911
g3
NtRp3388
(dp3389
g2914
I1
sg2915
S'h00100094'
p3390
sg2917
S'192.168.0.51'
p3391
sg2919
S'00:00:00:00:00:5e'
p3392
sg2921
g2936
sg2923
I2
sg2924
I94
sbag1
(g2911
g3
NtRp3393
(dp3394
g2914
I1
sg2915
S'h00100095'
p3395
sg2917
S'10.0.0.46'
p3396
sg2919
S'00:00:00:00:00:5f'
p3397
sg2921
g2930
sg2923
I1
sg2924
I95
sbag1
(g2911
g3
NtRp3398
(dp3399
g2914
I1
sg2915
S'h00100096'
p3400
sg2917
S'10.0.0.47'
p3401
sg2919
S'00:00:00:00:00:60'
p3402
sg2921
g2930
sg2923
I1
sg2924
I96
sbag1
(g2911
g3
NtRp3403
(dp3404
g2914
I1
sg2915
S'h00100097'
p3405
sg2917
S'192.168.0.52'
p3406
sg2919
S'00:00:00:00:00:61'
p3407
sg2921
g2936
sg2923
I2
sg2924
I97
sbag1
(g2911
g3
NtRp3408
(dp3409
g2914
I1
sg2915
S'h00100098'
p3410
sg2917
S'192.168.0.53'
p3411
sg2919
S'00:00:00:00:00:62'
p3412
sg2921
g2936
sg2923
I2
sg2924
I98
sbag1
(g2911
g3
NtRp3413
(dp3414
g2914
I1
sg2915
S'h00100099'
p3415
sg2917
S'192.168.0.54'
p3416
sg2919
S'00:00:00:00:00:63'
p3417
sg2921
g2936
sg2923
I2
sg2924
I99
sbag1
(g2911
g3
NtRp3418
(dp3419
g2914
I1
sg2915
S'h00100100'
p3420
sg2917
S'10.0.0.48'
p3421
sg2919
S'00:00:00:00:00:64'
p3422
sg2921
g2930
sg2923
I1
sg2924
I100
sbasS'datacenters'
p3423
(lp3424
g1
(cAutoTest.Model.Datacenter
Datacenter
p3425
g3
NtRp3426
(dp3427
S'gateway_density'
p3428
I50
sS'switches'
p3429
(lp3430
g1
(cAutoTest.Model.Device
Switch
p3431
g3
NtRp3432
(dp3433
g2915
S's00100001'
p3434
sS'connected_device'
p3435
(lp3436
S's00100002'
p3437
ag3260
ag3285
ag3085
ag3365
ag2949
ag2965
ag3400
ag3360
ag3180
ag3275
asg2917
S'131.0.0.2'
p3438
sg2919
S'00:00:00:00:00:65'
p3439
sS'inner_ports'
p3440
(dp3441
I1
(g1
(g3431
g3
NtRp3442
(dp3443
g2915
g3437
sg3435
(lp3444
g3434
aS's00100003'
p3445
ag3120
ag3385
ag3375
ag2970
ag3150
ag2995
ag2955
ag2975
ag3005
ag3090
asg2917
S'131.0.0.3'
p3446
sg2919
S'00:00:00:00:00:66'
p3447
sg3440
(dp3448
I1
(g3432
I0
tp3449
sI2
(g1
(g3431
g3
NtRp3450
(dp3451
g2915
g3445
sg3435
(lp3452
g3437
aS's00100004'
p3453
ag3015
ag3225
ag3035
ag3325
ag3000
ag3140
ag3175
ag3210
ag3295
ag3380
asg2917
S'131.0.0.4'
p3454
sg2919
S'00:00:00:00:00:67'
p3455
sg3440
(dp3456
I1
(g3442
I0
tp3457
sI2
(g1
(g3431
g3
NtRp3458
(dp3459
g2915
g3453
sg3435
(lp3460
g3445
aS's00100005'
p3461
ag3170
ag2927
ag3420
ag3335
ag3160
ag3050
ag2990
ag3230
ag3130
ag3200
asg2917
S'131.0.0.5'
p3462
sg2919
S'00:00:00:00:00:68'
p3463
sg3440
(dp3464
I1
(g3450
I0
tp3465
sI2
(g1
(g3431
g3
NtRp3466
(dp3467
g2915
g3461
sg3435
(lp3468
g3453
ag3045
ag3055
ag3135
ag3145
ag3190
ag3280
ag3310
ag3395
asg2917
S'131.0.0.6'
p3469
sg2919
S'00:00:00:00:00:69'
p3470
sg3440
(dp3471
I1
(g3458
I0
tp3472
sI2
(g3043
I0
tp3473
sI3
(g3053
I0
tp3474
sI4
(g3133
I0
tp3475
sI5
(g3143
I0
tp3476
sI6
(g3188
I0
tp3477
sI7
(g3278
I0
tp3478
sI8
(g3308
I0
tp3479
sI9
(g3393
I0
tp3480
ssS'dpid'
p3481
I5
sg2923
I1
sg2924
I5
sS'current_port'
p3482
I10
sbI0
tp3483
sI3
(g3168
I0
tp3484
sI4
(g2925
I0
tp3485
sI5
(g3418
I0
tp3486
sI6
(g3333
I0
tp3487
sI7
(g3158
I0
tp3488
sI8
(g3048
I0
tp3489
sI9
(g2988
I0
tp3490
sI10
(g3228
I0
tp3491
sI11
(g3128
I0
tp3492
sI12
(g3198
I0
tp3493
ssg3481
I4
sg2923
I1
sg2924
I4
sg3482
I13
sbI0
tp3494
sI3
(g3013
I0
tp3495
sI4
(g3223
I0
tp3496
sI5
(g3033
I0
tp3497
sI6
(g3323
I0
tp3498
sI7
(g2998
I0
tp3499
sI8
(g3138
I0
tp3500
sI9
(g3173
I0
tp3501
sI10
(g3208
I0
tp3502
sI11
(g3293
I0
tp3503
sI12
(g3378
I0
tp3504
ssg3481
I3
sg2923
I1
sg2924
I3
sg3482
I13
sbI0
tp3505
sI3
(g3118
I0
tp3506
sI4
(g3383
I0
tp3507
sI5
(g3373
I0
tp3508
sI6
(g2968
I0
tp3509
sI7
(g3148
I0
tp3510
sI8
(g2993
I0
tp3511
sI9
(g2953
I0
tp3512
sI10
(g2973
I0
tp3513
sI11
(g3003
I0
tp3514
sI12
(g3088
I0
tp3515
ssg3481
I2
sg2923
I1
sg2924
I2
sg3482
I13
sbI0
tp3516
sI2
(g3258
I0
tp3517
sI3
(g3283
I0
tp3518
sI4
(g3083
I0
tp3519
sI5
(g3363
I0
tp3520
sI6
(g2947
I0
tp3521
sI7
(g2963
I0
tp3522
sI8
(g3398
I0
tp3523
sI9
(g3358
I0
tp3524
sI10
(g3178
I0
tp3525
sI11
(g3273
I0
tp3526
ssg3481
I1
sg2923
I1
sg2924
I1
sg3482
I12
sbag3442
ag3450
ag3458
ag3466
asS'gateway_ips'
p3527
(dp3528
g2906
g2930
sg2905
g2952
ssg6
g8
sS'subnets'
p3529
(lp3530
g2905
ag2906
asS'gateway_ip_pool'
p3531
g1
(g7
g3
NtRp3532
(dp3533
g10
(lp3534
S'132.0.0.2'
p3535
aS'132.0.0.3'
p3536
aS'132.0.0.4'
p3537
aS'132.0.0.5'
p3538
aS'132.0.0.6'
p3539
aS'132.0.0.7'
p3540
aS'132.0.0.8'
p3541
aS'132.0.0.9'
p3542
aS'132.0.0.10'
p3543
aS'132.0.0.11'
p3544
asbsS'dc_topo'
p3545
g1
(cAutoTest.Model.Topo
LinearTopo
p3546
g3
NtRp3547
(dp3548
g3429
g3430
sS'graph'
p3549
g1
(cnetworkx.classes.graph
Graph
p3550
g3
NtRp3551
(dp3552
S'adjlist_inner_dict_factory'
p3553
c__builtin__
dict
p3554
sS'node_dict_factory'
p3555
g3554
sS'edge_attr_dict_factory'
p3556
g3554
sS'_node'
p3557
(dp3558
g3208
(dp3559
S'type'
p3560
S'Host'
p3561
ssg3358
(dp3562
g3560
g3561
ssg3053
(dp3563
g3560
g3561
ssg2973
(dp3564
g3560
g3561
ssg3373
(dp3565
g3560
g3561
ssg3283
(dp3566
g3560
g3561
ssg3223
(dp3567
g3560
g3561
ssg3418
(dp3568
g3560
g3561
ssg3228
(dp3569
g3560
g3561
ssg3378
(dp3570
g3560
g3561
ssg3158
(dp3571
g3560
g3561
ssg3393
(dp3572
g3560
g3561
ssg3083
(dp3573
g3560
g3561
ssg3133
(dp3574
g3560
g3561
ssg3118
(dp3575
g3560
g3561
ssg3088
(dp3576
g3560
g3561
ssg3188
(dp3577
g3560
g3561
ssg3258
(dp3578
g3560
g3561
ssg2947
(dp3579
g3560
g3561
ssg2925
(dp3580
g3560
g3561
ssg2953
(dp3581
g3560
g3561
ssg3278
(dp3582
g3560
g3561
ssg3273
(dp3583
g3560
g3561
ssg3138
(dp3584
g3560
g3561
ssg2963
(dp3585
g3560
g3561
ssg2968
(dp3586
g3560
g3561
ssg3450
(dp3587
g3560
S'Switch'
p3588
ssg3458
(dp3589
g3560
g3588
ssg3168
(dp3590
g3560
g3561
ssg3466
(dp3591
g3560
g3588
ssg2988
(dp3592
g3560
g3561
ssg3143
(dp3593
g3560
g3561
ssg2993
(dp3594
g3560
g3561
ssg3308
(dp3595
g3560
g3561
ssg2998
(dp3596
g3560
g3561
ssg3432
(dp3597
g3560
g3588
ssg3003
(dp3598
g3560
g3561
ssg3323
(dp3599
g3560
g3561
ssg3333
(dp3600
g3560
g3561
ssg3013
(dp3601
g3560
g3561
ssg3173
(dp3602
g3560
g3561
ssg3148
(dp3603
g3560
g3561
ssg3178
(dp3604
g3560
g3561
ssg3293
(dp3605
g3560
g3561
ssg3383
(dp3606
g3560
g3561
ssg3128
(dp3607
g3560
g3561
ssg3442
(dp3608
g3560
g3588
ssg3033
(dp3609
g3560
g3561
ssg3398
(dp3610
g3560
g3561
ssg3043
(dp3611
g3560
g3561
ssg3363
(dp3612
g3560
g3561
ssg3048
(dp3613
g3560
g3561
ssg3198
(dp3614
g3560
g3561
sssg3549
(dp3615
sS'_adj'
p3616
(dp3617
g3208
(dp3618
g3450
(dp3619
ssg3358
(dp3620
g3432
(dp3621
ssg3053
(dp3622
g3466
(dp3623
ssg2973
(dp3624
g3442
(dp3625
ssg3373
(dp3626
g3442
(dp3627
ssg3283
(dp3628
g3432
(dp3629
ssg3223
(dp3630
g3450
(dp3631
ssg3418
(dp3632
g3458
(dp3633
ssg3228
(dp3634
g3458
(dp3635
ssg3378
(dp3636
g3450
(dp3637
ssg3158
(dp3638
g3458
(dp3639
ssg3393
(dp3640
g3466
(dp3641
ssg3083
(dp3642
g3432
(dp3643
ssg3133
(dp3644
g3466
(dp3645
ssg3118
(dp3646
g3442
(dp3647
ssg3088
(dp3648
g3442
(dp3649
ssg3188
(dp3650
g3466
(dp3651
ssg3258
(dp3652
g3432
(dp3653
ssg2947
(dp3654
g3432
(dp3655
ssg2925
(dp3656
g3458
(dp3657
ssg2953
(dp3658
g3442
(dp3659
ssg3278
(dp3660
g3466
(dp3661
ssg3273
(dp3662
g3432
(dp3663
ssg3138
(dp3664
g3450
(dp3665
ssg2963
(dp3666
g3432
(dp3667
ssg2968
(dp3668
g3442
(dp3669
ssg3450
(dp3670
g3013
(dp3671
sg3458
(dp3672
S'bw'
p3673
I0
sS'port'
p3674
(dp3675
g3445
I2
sg3453
I1
sssg3208
g3619
sg3138
g3665
sg3293
(dp3676
sg3223
g3631
sg3442
(dp3677
g3673
I0
sg3674
(dp3678
g3445
I1
sg3437
I2
sssg3033
(dp3679
sg3378
g3637
sg2998
(dp3680
sg3323
(dp3681
sg3173
(dp3682
ssg3458
(dp3683
g3450
g3672
sg3333
(dp3684
sg3168
(dp3685
sg3466
(dp3686
g3673
I0
sg3674
(dp3687
g3461
I1
sg3453
I2
sssg2988
(dp3688
sg3418
g3633
sg3128
(dp3689
sg3048
(dp3690
sg3228
g3635
sg3198
(dp3691
sg3158
g3639
sg2925
g3657
ssg3168
(dp3692
g3458
g3685
ssg3466
(dp3693
g3053
g3623
sg3458
g3686
sg3308
(dp3694
sg3143
(dp3695
sg3188
g3651
sg3278
g3661
sg3043
(dp3696
sg3393
g3641
sg3133
g3645
ssg2988
(dp3697
g3458
g3688
ssg3143
(dp3698
g3466
g3695
ssg2993
(dp3699
g3442
(dp3700
ssg3308
(dp3701
g3466
g3694
ssg2998
(dp3702
g3450
g3680
ssg3432
(dp3703
g3358
g3621
sg3258
g3653
sg2947
g3655
sg3083
g3643
sg3398
(dp3704
sg3442
(dp3705
g3673
I0
sg3674
(dp3706
g3434
I1
sg3437
I1
sssg2963
g3667
sg3283
g3629
sg3273
g3663
sg3363
(dp3707
sg3178
(dp3708
ssg3003
(dp3709
g3442
(dp3710
ssg3323
(dp3711
g3450
g3681
ssg3333
(dp3712
g3458
g3684
ssg3013
(dp3713
g3450
g3671
ssg3173
(dp3714
g3450
g3682
ssg3148
(dp3715
g3442
(dp3716
ssg3178
(dp3717
g3432
g3708
ssg3293
(dp3718
g3450
g3676
ssg3383
(dp3719
g3442
(dp3720
ssg3128
(dp3721
g3458
g3689
ssg3442
(dp3722
g3450
g3677
sg2993
g3700
sg2953
g3659
sg3148
g3716
sg3373
g3627
sg2973
g3625
sg3088
g3649
sg3383
g3720
sg3003
g3710
sg3118
g3647
sg3432
g3705
sg2968
g3669
ssg3033
(dp3723
g3450
g3679
ssg3398
(dp3724
g3432
g3704
ssg3043
(dp3725
g3466
g3696
ssg3363
(dp3726
g3432
g3707
ssg3048
(dp3727
g3458
g3690
ssg3198
(dp3728
g3458
g3691
sssS'adjlist_outer_dict_factory'
p3729
g3554
sbsg2909
(lp3730
g2925
ag2947
ag2953
ag2963
ag2968
ag2973
ag2988
ag2993
ag2998
ag3003
ag3013
ag3033
ag3043
ag3048
ag3053
ag3083
ag3088
ag3118
ag3128
ag3133
ag3138
ag3143
ag3148
ag3158
ag3168
ag3173
ag3178
ag3188
ag3198
ag3208
ag3223
ag3228
ag3258
ag3273
ag3278
ag3283
ag3293
ag3308
ag3323
ag3333
ag3358
ag3363
ag3373
ag3378
ag3383
ag3393
ag3398
ag3418
asS'gateways'
p3731
(lp3732
g1
(cAutoTest.Model.Device
Gateway
p3733
g3
NtRp3734
(dp3735
g2915
S'g00100001'
p3736
sg3435
(lp3737
g1
(g3733
g3
NtRp3738
(dp3739
g2915
S'g00200001'
p3740
sg3435
(lp3741
g3734
asg2917
S'132.0.0.2'
p3742
sS'outer_ports'
p3743
(dp3744
I1
(g3734
g3426
tp3745
ssg2919
S'00:00:00:00:00:71'
p3746
sg3440
(dp3747
sg3481
I7
sg2923
I2
sg2924
I1
sg3482
I2
sbasg2917
g3535
sg3743
(dp3748
I1
(g3738
g1
(g3425
g3
NtRp3749
(dp3750
g3428
I50
sg3429
(lp3751
g1
(g3431
g3
NtRp3752
(dp3753
g2915
S's00200001'
p3754
sg3435
(lp3755
S's00200002'
p3756
ag2916
ag3115
ag3345
ag3205
ag3020
ag2933
ag3265
ag3410
ag3300
ag3355
asg2917
S'131.0.0.2'
p3757
sg2919
S'00:00:00:00:00:6a'
p3758
sg3440
(dp3759
I1
(g1
(g3431
g3
NtRp3760
(dp3761
g2915
g3756
sg3435
(lp3762
g3754
aS's00200003'
p3763
ag2944
ag2960
ag3240
ag2939
ag3390
ag3415
ag3080
ag3315
ag3060
ag3220
asg2917
S'131.0.0.3'
p3764
sg2919
S'00:00:00:00:00:6b'
p3765
sg3440
(dp3766
I1
(g3752
I0
tp3767
sI2
(g1
(g3431
g3
NtRp3768
(dp3769
g2915
g3763
sg3435
(lp3770
g3756
aS's00200004'
p3771
ag3195
ag3075
ag3305
ag3270
ag3040
ag3025
ag3010
ag3320
ag3245
ag3185
asg2917
S'131.0.0.4'
p3772
sg2919
S'00:00:00:00:00:6c'
p3773
sg3440
(dp3774
I1
(g3760
I0
tp3775
sI2
(g1
(g3431
g3
NtRp3776
(dp3777
g2915
g3771
sg3435
(lp3778
g3763
aS's00200005'
p3779
ag2980
ag3330
ag3030
ag3070
ag2985
ag3235
ag3255
ag3095
ag3340
ag3370
asg2917
S'131.0.0.5'
p3780
sg2919
S'00:00:00:00:00:6d'
p3781
sg3440
(dp3782
I1
(g3768
I0
tp3783
sI2
(g1
(g3431
g3
NtRp3784
(dp3785
g2915
g3779
sg3435
(lp3786
g3771
aS's00200006'
p3787
ag3215
ag3065
ag3165
ag3105
ag3110
ag3155
ag3125
ag3100
ag3250
ag3290
asg2917
S'131.0.0.6'
p3788
sg2919
S'00:00:00:00:00:6e'
p3789
sg3440
(dp3790
I1
(g3776
I0
tp3791
sI2
(g1
(g3431
g3
NtRp3792
(dp3793
g2915
g3787
sg3435
(lp3794
g3779
ag3350
ag3405
asg2917
S'131.0.0.7'
p3795
sg2919
S'00:00:00:00:00:6f'
p3796
sg3440
(dp3797
I1
(g3784
I0
tp3798
sI2
(g3348
I0
tp3799
sI3
(g3403
I0
tp3800
ssg3481
I6
sg2923
I2
sg2924
I6
sg3482
I4
sbI0
tp3801
sI3
(g3213
I0
tp3802
sI4
(g3063
I0
tp3803
sI5
(g3163
I0
tp3804
sI6
(g3103
I0
tp3805
sI7
(g3108
I0
tp3806
sI8
(g3153
I0
tp3807
sI9
(g3123
I0
tp3808
sI10
(g3098
I0
tp3809
sI11
(g3248
I0
tp3810
sI12
(g3288
I0
tp3811
ssg3481
I5
sg2923
I2
sg2924
I5
sg3482
I13
sbI0
tp3812
sI3
(g2978
I0
tp3813
sI4
(g3328
I0
tp3814
sI5
(g3028
I0
tp3815
sI6
(g3068
I0
tp3816
sI7
(g2983
I0
tp3817
sI8
(g3233
I0
tp3818
sI9
(g3253
I0
tp3819
sI10
(g3093
I0
tp3820
sI11
(g3338
I0
tp3821
sI12
(g3368
I0
tp3822
ssg3481
I4
sg2923
I2
sg2924
I4
sg3482
I13
sbI0
tp3823
sI3
(g3193
I0
tp3824
sI4
(g3073
I0
tp3825
sI5
(g3303
I0
tp3826
sI6
(g3268
I0
tp3827
sI7
(g3038
I0
tp3828
sI8
(g3023
I0
tp3829
sI9
(g3008
I0
tp3830
sI10
(g3318
I0
tp3831
sI11
(g3243
I0
tp3832
sI12
(g3183
I0
tp3833
ssg3481
I3
sg2923
I2
sg2924
I3
sg3482
I13
sbI0
tp3834
sI3
(g2942
I0
tp3835
sI4
(g2958
I0
tp3836
sI5
(g3238
I0
tp3837
sI6
(g2937
I0
tp3838
sI7
(g3388
I0
tp3839
sI8
(g3413
I0
tp3840
sI9
(g3078
I0
tp3841
sI10
(g3313
I0
tp3842
sI11
(g3058
I0
tp3843
sI12
(g3218
I0
tp3844
ssg3481
I2
sg2923
I2
sg2924
I2
sg3482
I13
sbI0
tp3845
sI2
(g2912
I0
tp3846
sI3
(g3113
I0
tp3847
sI4
(g3343
I0
tp3848
sI5
(g3203
I0
tp3849
sI6
(g3018
I0
tp3850
sI7
(g2931
I0
tp3851
sI8
(g3263
I0
tp3852
sI9
(g3408
I0
tp3853
sI10
(g3298
I0
tp3854
sI11
(g3353
I0
tp3855
ssg3481
I1
sg2923
I2
sg2924
I1
sg3482
I12
sbag3760
ag3768
ag3776
ag3784
ag3792
asg3527
(dp3856
g2906
g2922
sg2905
g2936
ssg6
g8
sg3529
(lp3857
g2905
ag2906
asg3531
g1
(g7
g3
NtRp3858
(dp3859
g10
(lp3860
g3742
aS'132.0.0.3'
p3861
aS'132.0.0.4'
p3862
aS'132.0.0.5'
p3863
aS'132.0.0.6'
p3864
aS'132.0.0.7'
p3865
aS'132.0.0.8'
p3866
aS'132.0.0.9'
p3867
aS'132.0.0.10'
p3868
aS'132.0.0.11'
p3869
asbsg3545
g1
(g3546
g3
NtRp3870
(dp3871
g3429
g3751
sg3549
g1
(g3550
g3
NtRp3872
(dp3873
g3553
g3554
sg3555
g3554
sg3556
g3554
sg3557
(dp3874
g3413
(dp3875
g3560
g3561
ssg3388
(dp3876
g3560
g3561
ssg3213
(dp3877
g3560
g3561
ssg3193
(dp3878
g3560
g3561
ssg3058
(dp3879
g3560
g3561
ssg3353
(dp3880
g3560
g3561
ssg3063
(dp3881
g3560
g3561
ssg3183
(dp3882
g3560
g3561
ssg2912
(dp3883
g3560
g3561
ssg3073
(dp3884
g3560
g3561
ssg3238
(dp3885
g3560
g3561
ssg3078
(dp3886
g3560
g3561
ssg3343
(dp3887
g3560
g3561
ssg3243
(dp3888
g3560
g3561
ssg3368
(dp3889
g3560
g3561
ssg2931
(dp3890
g3560
g3561
ssg3338
(dp3891
g3560
g3561
ssg2937
(dp3892
g3560
g3561
ssg3268
(dp3893
g3560
g3561
ssg2942
(dp3894
g3560
g3561
ssg3408
(dp3895
g3560
g3561
ssg3263
(dp3896
g3560
g3561
ssg3103
(dp3897
g3560
g3561
ssg3776
(dp3898
g3560
g3588
ssg3108
(dp3899
g3560
g3561
ssg3328
(dp3900
g3560
g3561
ssg2958
(dp3901
g3560
g3561
ssg3163
(dp3902
g3560
g3561
ssg3218
(dp3903
g3560
g3561
ssg3123
(dp3904
g3560
g3561
ssg3113
(dp3905
g3560
g3561
ssg3288
(dp3906
g3560
g3561
ssg3318
(dp3907
g3560
g3561
ssg2978
(dp3908
g3560
g3561
ssg3248
(dp3909
g3560
g3561
ssg3233
(dp3910
g3560
g3561
ssg2983
(dp3911
g3560
g3561
ssg3313
(dp3912
g3560
g3561
ssg3303
(dp3913
g3560
g3561
ssg3752
(dp3914
g3560
g3588
ssg3403
(dp3915
g3560
g3561
ssg3760
(dp3916
g3560
g3588
ssg3768
(dp3917
g3560
g3588
ssg3008
(dp3918
g3560
g3561
ssg3018
(dp3919
g3560
g3561
ssg3784
(dp3920
g3560
g3588
ssg3298
(dp3921
g3560
g3561
ssg3792
(dp3922
g3560
g3588
ssg3068
(dp3923
g3560
g3561
ssg3093
(dp3924
g3560
g3561
ssg3023
(dp3925
g3560
g3561
ssg3028
(dp3926
g3560
g3561
ssg3348
(dp3927
g3560
g3561
ssg3038
(dp3928
g3560
g3561
ssg3098
(dp3929
g3560
g3561
ssg3253
(dp3930
g3560
g3561
ssg3203
(dp3931
g3560
g3561
ssg3153
(dp3932
g3560
g3561
sssg3549
(dp3933
sg3616
(dp3934
g3413
(dp3935
g3760
(dp3936
ssg3388
(dp3937
g3760
(dp3938
ssg3213
(dp3939
g3784
(dp3940
ssg3193
(dp3941
g3768
(dp3942
ssg3058
(dp3943
g3760
(dp3944
ssg3353
(dp3945
g3752
(dp3946
ssg3063
(dp3947
g3784
(dp3948
ssg3183
(dp3949
g3768
(dp3950
ssg2912
(dp3951
g3752
(dp3952
ssg3073
(dp3953
g3768
(dp3954
ssg3238
(dp3955
g3760
(dp3956
ssg3078
(dp3957
g3760
(dp3958
ssg3343
(dp3959
g3752
(dp3960
ssg3243
(dp3961
g3768
(dp3962
ssg3368
(dp3963
g3776
(dp3964
ssg2931
(dp3965
g3752
(dp3966
ssg3338
(dp3967
g3776
(dp3968
ssg2937
(dp3969
g3760
(dp3970
ssg3268
(dp3971
g3768
(dp3972
ssg2942
(dp3973
g3760
(dp3974
ssg3408
(dp3975
g3752
(dp3976
ssg3263
(dp3977
g3752
(dp3978
ssg3103
(dp3979
g3784
(dp3980
ssg3776
(dp3981
g3328
(dp3982
sg3368
g3964
sg2978
(dp3983
sg3784
(dp3984
g3673
I0
sg3674
(dp3985
g3771
I2
sg3779
I1
sssg3093
(dp3986
sg2983
(dp3987
sg3028
(dp3988
sg3068
(dp3989
sg3233
(dp3990
sg3338
g3968
sg3768
(dp3991
g3673
I0
sg3674
(dp3992
g3763
I2
sg3771
I1
sssg3253
(dp3993
ssg3108
(dp3994
g3784
(dp3995
ssg3328
(dp3996
g3776
g3982
ssg2958
(dp3997
g3760
(dp3998
ssg3163
(dp3999
g3784
(dp4000
ssg3218
(dp4001
g3760
(dp4002
ssg3123
(dp4003
g3784
(dp4004
ssg3113
(dp4005
g3752
(dp4006
ssg3288
(dp4007
g3784
(dp4008
ssg3318
(dp4009
g3768
(dp4010
ssg2978
(dp4011
g3776
g3983
ssg3248
(dp4012
g3784
(dp4013
ssg3233
(dp4014
g3776
g3990
ssg2983
(dp4015
g3776
g3987
ssg3313
(dp4016
g3760
(dp4017
ssg3303
(dp4018
g3768
(dp4019
ssg3752
(dp4020
g2931
g3966
sg3018
(dp4021
sg3298
(dp4022
sg3408
g3976
sg3353
g3946
sg3343
g3960
sg3263
g3978
sg2912
g3952
sg3760
(dp4023
g3673
I0
sg3674
(dp4024
g3754
I1
sg3756
I1
sssg3203
(dp4025
sg3113
g4006
ssg3403
(dp4026
g3792
(dp4027
ssg3760
(dp4028
g3218
g4002
sg2937
g3970
sg2942
g3974
sg3313
g4017
sg3752
g4023
sg2958
g3998
sg3768
(dp4029
g3673
I0
sg3674
(dp4030
g3756
I2
sg3763
I1
sssg3238
g3956
sg3058
g3944
sg3078
g3958
sg3413
g3936
sg3388
g3938
ssg3768
(dp4031
g3760
g4029
sg3023
(dp4032
sg3303
g4019
sg3008
(dp4033
sg3268
g3972
sg3193
g3942
sg3183
g3950
sg3243
g3962
sg3318
g4010
sg3038
(dp4034
sg3776
g3991
sg3073
g3954
ssg3008
(dp4035
g3768
g4033
ssg3018
(dp4036
g3752
g4021
ssg3784
(dp4037
g3248
g4013
sg3213
g3940
sg3288
g4008
sg3098
(dp4038
sg3103
g3980
sg3063
g3948
sg3108
g3995
sg3153
(dp4039
sg3163
g4000
sg3123
g4004
sg3776
g3984
sg3792
(dp4040
g3673
I0
sg3674
(dp4041
g3779
I2
sg3787
I1
ssssg3298
(dp4042
g3752
g4022
ssg3792
(dp4043
g3784
g4040
sg3403
g4027
sg3348
(dp4044
ssg3068
(dp4045
g3776
g3989
ssg3093
(dp4046
g3776
g3986
ssg3023
(dp4047
g3768
g4032
ssg3028
(dp4048
g3776
g3988
ssg3348
(dp4049
g3792
g4044
ssg3038
(dp4050
g3768
g4034
ssg3098
(dp4051
g3784
g4038
ssg3253
(dp4052
g3776
g3993
ssg3203
(dp4053
g3752
g4025
ssg3153
(dp4054
g3784
g4039
sssg3729
g3554
sbsg2909
(lp4055
g2912
ag2931
ag2937
ag2942
ag2958
ag2978
ag2983
ag3008
ag3018
ag3023
ag3028
ag3038
ag3058
ag3063
ag3068
ag3073
ag3078
ag3093
ag3098
ag3103
ag3108
ag3113
ag3123
ag3153
ag3163
ag3183
ag3193
ag3203
ag3213
ag3218
ag3233
ag3238
ag3243
ag3248
ag3253
ag3263
ag3268
ag3288
ag3298
ag3303
ag3313
ag3318
ag3328
ag3338
ag3343
ag3348
ag3353
ag3368
ag3388
ag3403
ag3408
ag3413
asg3731
(lp4056
g3738
ag1
(g3733
g3
NtRp4057
(dp4058
g2915
S'g00200002'
p4059
sg3435
(lp4060
g3734
asg2917
g3742
sg3743
(dp4061
I1
(g3734
g3426
tp4062
ssg2919
S'00:00:00:00:00:72'
p4063
sg3440
(dp4064
sg3481
I8
sg2923
I2
sg2924
I2
sg3482
I2
sbasS'density'
p4065
I10
sbsS'simulator'
p4066
NsS'current_dpid'
p4067
I9
sS'datacenter_id'
p4068
I2
sS'controller'
p4069
(dp4070
Vtype
p4071
Vlocal
p4072
sVport
p4073
I6633
ssS'switch_density'
p4074
I10
sg2909
g4055
sg3731
g4056
sS'switch_ip_pool'
p4075
g1
(g7
g3
NtRp4076
(dp4077
g10
(lp4078
S'131.0.0.8'
p4079
aS'131.0.0.9'
p4080
aS'131.0.0.10'
p4081
aS'131.0.0.11'
p4082
aS'131.0.0.12'
p4083
aS'131.0.0.13'
p4084
aS'131.0.0.14'
p4085
aS'131.0.0.15'
p4086
aS'131.0.0.16'
p4087
aS'131.0.0.17'
p4088
aS'131.0.0.18'
p4089
aS'131.0.0.19'
p4090
aS'131.0.0.20'
p4091
aS'131.0.0.21'
p4092
aS'131.0.0.22'
p4093
aS'131.0.0.23'
p4094
aS'131.0.0.24'
p4095
aS'131.0.0.25'
p4096
aS'131.0.0.26'
p4097
aS'131.0.0.27'
p4098
aS'131.0.0.28'
p4099
aS'131.0.0.29'
p4100
aS'131.0.0.30'
p4101
aS'131.0.0.31'
p4102
aS'131.0.0.32'
p4103
aS'131.0.0.33'
p4104
aS'131.0.0.34'
p4105
aS'131.0.0.35'
p4106
aS'131.0.0.36'
p4107
aS'131.0.0.37'
p4108
aS'131.0.0.38'
p4109
aS'131.0.0.39'
p4110
aS'131.0.0.40'
p4111
aS'131.0.0.41'
p4112
aS'131.0.0.42'
p4113
aS'131.0.0.43'
p4114
aS'131.0.0.44'
p4115
aS'131.0.0.45'
p4116
aS'131.0.0.46'
p4117
aS'131.0.0.47'
p4118
aS'131.0.0.48'
p4119
aS'131.0.0.49'
p4120
aS'131.0.0.50'
p4121
aS'131.0.0.51'
p4122
asbsS'topo_conf'
p4123
(lp4124
Vlinear
p4125
aI10
asg2898
(lp4126
g2901
asS'flow_simulator'
p4127
Nsbtp4128
ssg2919
S'00:00:00:00:00:70'
p4129
sg3440
(dp4130
sg3481
I6
sg2923
I1
sg2924
I1
sg3482
I2
sbasg4065
I10
sbsg4066
Nsg4067
I7
sg4068
I1
sg4069
g4070
sg4074
I10
sg2909
g3730
sg3731
g3732
sg4075
g1
(g7
g3
NtRp4131
(dp4132
g10
(lp4133
S'131.0.0.7'
p4134
aS'131.0.0.8'
p4135
aS'131.0.0.9'
p4136
aS'131.0.0.10'
p4137
aS'131.0.0.11'
p4138
aS'131.0.0.12'
p4139
aS'131.0.0.13'
p4140
aS'131.0.0.14'
p4141
aS'131.0.0.15'
p4142
aS'131.0.0.16'
p4143
aS'131.0.0.17'
p4144
aS'131.0.0.18'
p4145
aS'131.0.0.19'
p4146
aS'131.0.0.20'
p4147
aS'131.0.0.21'
p4148
aS'131.0.0.22'
p4149
aS'131.0.0.23'
p4150
aS'131.0.0.24'
p4151
aS'131.0.0.25'
p4152
aS'131.0.0.26'
p4153
aS'131.0.0.27'
p4154
aS'131.0.0.28'
p4155
aS'131.0.0.29'
p4156
aS'131.0.0.30'
p4157
aS'131.0.0.31'
p4158
aS'131.0.0.32'
p4159
aS'131.0.0.33'
p4160
aS'131.0.0.34'
p4161
aS'131.0.0.35'
p4162
aS'131.0.0.36'
p4163
aS'131.0.0.37'
p4164
aS'131.0.0.38'
p4165
aS'131.0.0.39'
p4166
aS'131.0.0.40'
p4167
aS'131.0.0.41'
p4168
aS'131.0.0.42'
p4169
aS'131.0.0.43'
p4170
aS'131.0.0.44'
p4171
aS'131.0.0.45'
p4172
aS'131.0.0.46'
p4173
aS'131.0.0.47'
p4174
aS'131.0.0.48'
p4175
aS'131.0.0.49'
p4176
aS'131.0.0.50'
p4177
aS'131.0.0.51'
p4178
asbsg4123
g4124
sg2898
(lp4179
g2901
asg4127
Nsbag3749
asS'host_num'
p4180
I100
sS'ip_pool'
p4181
(lp4182
g1
(g7
g3
NtRp4183
(dp4184
g10
(lp4185
S'192.168.0.55'
p4186
aS'192.168.0.56'
p4187
aS'192.168.0.57'
p4188
aS'192.168.0.58'
p4189
aS'192.168.0.59'
p4190
aS'192.168.0.60'
p4191
aS'192.168.0.61'
p4192
aS'192.168.0.62'
p4193
aS'192.168.0.63'
p4194
aS'192.168.0.64'
p4195
aS'192.168.0.65'
p4196
aS'192.168.0.66'
p4197
aS'192.168.0.67'
p4198
aS'192.168.0.68'
p4199
aS'192.168.0.69'
p4200
aS'192.168.0.70'
p4201
aS'192.168.0.71'
p4202
aS'192.168.0.72'
p4203
aS'192.168.0.73'
p4204
aS'192.168.0.74'
p4205
aS'192.168.0.75'
p4206
aS'192.168.0.76'
p4207
aS'192.168.0.77'
p4208
aS'192.168.0.78'
p4209
aS'192.168.0.79'
p4210
aS'192.168.0.80'
p4211
aS'192.168.0.81'
p4212
aS'192.168.0.82'
p4213
aS'192.168.0.83'
p4214
aS'192.168.0.84'
p4215
aS'192.168.0.85'
p4216
aS'192.168.0.86'
p4217
aS'192.168.0.87'
p4218
aS'192.168.0.88'
p4219
aS'192.168.0.89'
p4220
aS'192.168.0.90'
p4221
aS'192.168.0.91'
p4222
aS'192.168.0.92'
p4223
aS'192.168.0.93'
p4224
aS'192.168.0.94'
p4225
aS'192.168.0.95'
p4226
aS'192.168.0.96'
p4227
aS'192.168.0.97'
p4228
aS'192.168.0.98'
p4229
aS'192.168.0.99'
p4230
aS'192.168.0.100'
p4231
aS'192.168.0.101'
p4232
asbag1
(g7
g3
NtRp4233
(dp4234
g10
(lp4235
S'10.0.0.49'
p4236
aS'10.0.0.50'
p4237
aS'10.0.0.51'
p4238
aS'10.0.0.52'
p4239
aS'10.0.0.53'
p4240
aS'10.0.0.54'
p4241
aS'10.0.0.55'
p4242
aS'10.0.0.56'
p4243
aS'10.0.0.57'
p4244
aS'10.0.0.58'
p4245
aS'10.0.0.59'
p4246
aS'10.0.0.60'
p4247
aS'10.0.0.61'
p4248
aS'10.0.0.62'
p4249
aS'10.0.0.63'
p4250
aS'10.0.0.64'
p4251
aS'10.0.0.65'
p4252
aS'10.0.0.66'
p4253
aS'10.0.0.67'
p4254
aS'10.0.0.68'
p4255
aS'10.0.0.69'
p4256
aS'10.0.0.70'
p4257
aS'10.0.0.71'
p4258
aS'10.0.0.72'
p4259
aS'10.0.0.73'
p4260
aS'10.0.0.74'
p4261
aS'10.0.0.75'
p4262
aS'10.0.0.76'
p4263
aS'10.0.0.77'
p4264
aS'10.0.0.78'
p4265
aS'10.0.0.79'
p4266
aS'10.0.0.80'
p4267
aS'10.0.0.81'
p4268
aS'10.0.0.82'
p4269
aS'10.0.0.83'
p4270
aS'10.0.0.84'
p4271
aS'10.0.0.85'
p4272
aS'10.0.0.86'
p4273
aS'10.0.0.87'
p4274
aS'10.0.0.88'
p4275
aS'10.0.0.89'
p4276
aS'10.0.0.90'
p4277
aS'10.0.0.91'
p4278
aS'10.0.0.92'
p4279
aS'10.0.0.93'
p4280
aS'10.0.0.94'
p4281
aS'10.0.0.95'
p4282
aS'10.0.0.96'
p4283
aS'10.0.0.97'
p4284
aS'10.0.0.98'
p4285
aS'10.0.0.99'
p4286
aS'10.0.0.100'
p4287
aS'10.0.0.101'
p4288
asbasbssS'conf_file'
p4289
S'../config/net.json'
p4290
sg2909
(lp4291
g2912
ag2925
ag2931
ag2937
ag2942
ag2947
ag2953
ag2958
ag2963
ag2968
ag2973
ag2978
ag2983
ag2988
ag2993
ag2998
ag3003
ag3008
ag3013
ag3018
ag3023
ag3028
ag3033
ag3038
ag3043
ag3048
ag3053
ag3058
ag3063
ag3068
ag3073
ag3078
ag3083
ag3088
ag3093
ag3098
ag3103
ag3108
ag3113
ag3118
ag3123
ag3128
ag3133
ag3138
ag3143
ag3148
ag3153
ag3158
ag3163
ag3168
ag3173
ag3178
ag3183
ag3188
ag3193
ag3198
ag3203
ag3208
ag3213
ag3218
ag3223
ag3228
ag3233
ag3238
ag3243
ag3248
ag3253
ag3258
ag3263
ag3268
ag3273
ag3278
ag3283
ag3288
ag3293
ag3298
ag3303
ag3308
ag3313
ag3318
ag3323
ag3328
ag3333
ag3338
ag3343
ag3348
ag3353
ag3358
ag3363
ag3368
ag3373
ag3378
ag3383
ag3388
ag3393
ag3398
ag3403
ag3408
ag3413
ag3418
asS'conf_dic'
p4292
(dp4293
Vtopo_type
p4294
g4124
sVname
p4295
VtestNet
p4296
sVhosts_per_gateway
p4297
I50
sVmac_num
p4298
I3000
sVcontroller
p4299
g4070
sVgateway_ip
p4300
V132.0.0.0/16
p4301
sVswitch_ip
p4302
V131.0.0.0/16
p4303
sVhosts_per_switch
p4304
I10
sVdatacenters
p4305
(lp4306
I1
aI2
asValter_ip
p4307
(dp4308
V1
g2905
sV2
g2906
ssVtenant
p4309
(dp4310
V1
(dp4311
Vpriority
p4312
VHIGH
p4313
sVdatacenters
p4314
(lp4315
I1
aI2
asValter_ip
p4316
(lp4317
I1
aI2
asVhost_num
p4318
I100
ssssg3423
(dp4319
I1
g3426
sI2
g3749
ssS'net'
p4320
NsS'alter_IP'
p4321
(dp4322
I1
g2905
sI2
g2906
ssb.