(dp1
I0
ccopy_reg
_reconstructor
p2
(cAutoTest.Model.Flow
Flow
p3
c__builtin__
object
p4
NtRp5
(dp6
S'duration'
p7
I0
sS'src'
p8
g2
(cAutoTest.Model.Device
Host
p9
g4
NtRp10
(dp11
S't_id'
p12
I2
sS'name'
p13
S'h00200007'
p14
sS'ip'
p15
S'10.0.0.7'
p16
sS'mac'
p17
S'00:00:00:00:00:11'
p18
sS'gw_ip'
p19
V10.0.0.0
p20
sS'dc_id'
p21
I1
sS'id'
p22
I7
sbsS'dst'
p23
g2
(g9
g4
NtRp24
(dp25
g12
I2
sg13
S'h00200010'
p26
sg15
S'10.0.0.10'
p27
sg17
S'00:00:00:00:00:14'
p28
sg19
g20
sg21
I1
sg22
I10
sbsS'start_tmie'
p29
I0
sS'size'
p30
F42042
sbsI1
g2
(g3
g4
NtRp31
(dp32
g7
I0
sg8
g2
(g9
g4
NtRp33
(dp34
g12
I1
sg13
S'h00100003'
p35
sg15
S'10.0.0.3'
p36
sg17
S'00:00:00:00:00:03'
p37
sg19
g20
sg21
I1
sg22
I3
sbsg23
g2
(g9
g4
NtRp38
(dp39
g12
I1
sg13
S'h00100005'
p40
sg15
S'10.0.0.4'
p41
sg17
S'00:00:00:00:00:05'
p42
sg19
g20
sg21
I1
sg22
I5
sbsg29
I0
sg30
F81238
sbsI2
g2
(g3
g4
NtRp43
(dp44
g7
I0
sg8
g2
(g9
g4
NtRp45
(dp46
g12
I1
sg13
S'h00100007'
p47
sg15
S'192.168.0.3'
p48
sg17
S'00:00:00:00:00:07'
p49
sg19
V192.168.0.0
p50
sg21
I1
sg22
I7
sbsg23
g2
(g9
g4
NtRp51
(dp52
g12
I1
sg13
S'h00100010'
p53
sg15
S'192.168.0.5'
p54
sg17
S'00:00:00:00:00:0a'
p55
sg19
g50
sg21
I1
sg22
I10
sbsg29
I0
sg30
F5877
sbsI3
g2
(g3
g4
NtRp56
(dp57
g7
I0
sg8
g2
(g9
g4
NtRp58
(dp59
g12
I2
sg13
S'h00200009'
p60
sg15
S'10.0.0.9'
p61
sg17
S'00:00:00:00:00:13'
p62
sg19
g20
sg21
I1
sg22
I9
sbsg23
g24
sg29
I0
sg30
F34295
sbsI4
g2
(g3
g4
NtRp63
(dp64
g7
I0
sg8
g45
sg23
g51
sg29
I1
sg30
F32477
sbsI5
g2
(g3
g4
NtRp65
(dp66
g7
I0
sg8
g2
(g9
g4
NtRp67
(dp68
g12
I2
sg13
S'h00200004'
p69
sg15
S'10.0.0.4'
p70
sg17
S'00:00:00:00:00:0e'
p71
sg19
g20
sg21
I1
sg22
I4
sbsg23
g10
sg29
I1
sg30
F259960
sbsI6
g2
(g3
g4
NtRp72
(dp73
g7
I0
sg8
g45
sg23
g51
sg29
I1
sg30
F102012
sbsI7
g2
(g3
g4
NtRp74
(dp75
g7
I0
sg8
g45
sg23
g2
(g9
g4
NtRp76
(dp77
g12
I1
sg13
S'h00100006'
p78
sg15
S'192.168.0.2'
p79
sg17
S'00:00:00:00:00:06'
p80
sg19
g50
sg21
I1
sg22
I6
sbsg29
I1
sg30
F20756
sbsI8
g2
(g3
g4
NtRp81
(dp82
g7
I0
sg8
g24
sg23
g2
(g9
g4
NtRp83
(dp84
g12
I2
sg13
S'h00200003'
p85
sg15
S'10.0.0.3'
p86
sg17
S'00:00:00:00:00:0d'
p87
sg19
g20
sg21
I1
sg22
I3
sbsg29
I2
sg30
F23106
sbsI9
g2
(g3
g4
NtRp88
(dp89
g7
I0
sg8
g58
sg23
g67
sg29
I2
sg30
F17285
sbsI10
g2
(g3
g4
NtRp90
(dp91
g7
I0
sg8
g24
sg23
g10
sg29
I2
sg30
F32783
sbsI11
g2
(g3
g4
NtRp92
(dp93
g7
I0
sg8
g24
sg23
g67
sg29
I2
sg30
F21764
sbsI12
g2
(g3
g4
NtRp94
(dp95
g7
I0
sg8
g67
sg23
g83
sg29
I3
sg30
F10678
sbsI13
g2
(g3
g4
NtRp96
(dp97
g7
I0
sg8
g83
sg23
g58
sg29
I3
sg30
F9957
sbsI14
g2
(g3
g4
NtRp98
(dp99
g7
I0
sg8
g2
(g9
g4
NtRp100
(dp101
g12
I1
sg13
S'h00100009'
p102
sg15
S'10.0.0.5'
p103
sg17
S'00:00:00:00:00:09'
p104
sg19
g20
sg21
I1
sg22
I9
sbsg23
g33
sg29
I3
sg30
F12024
sbsI15
g2
(g3
g4
NtRp105
(dp106
g7
I0
sg8
g67
sg23
g10
sg29
I3
sg30
F172865
sbsI16
g2
(g3
g4
NtRp107
(dp108
g7
I0
sg8
g76
sg23
g45
sg29
I4
sg30
F5391
sbsI17
g2
(g3
g4
NtRp109
(dp110
g7
I0
sg8
g33
sg23
g38
sg29
I4
sg30
F76210
sbsI18
g2
(g3
g4
NtRp111
(dp112
g7
I0
sg8
g24
sg23
g58
sg29
I4
sg30
F20399
sbsI19
g2
(g3
g4
NtRp113
(dp114
g7
I0
sg8
g76
sg23
g51
sg29
I4
sg30
F47608
sbsI20
g2
(g3
g4
NtRp115
(dp116
g7
I0
sg8
g51
sg23
g76
sg29
I5
sg30
F8437
sbsI21
g2
(g3
g4
NtRp117
(dp118
g7
I0
sg8
g51
sg23
g76
sg29
I5
sg30
F18336
sbsI22
g2
(g3
g4
NtRp119
(dp120
g7
I0
sg8
g67
sg23
g10
sg29
I5
sg30
F14688
sbsI23
g2
(g3
g4
NtRp121
(dp122
g7
I0
sg8
g10
sg23
g24
sg29
I5
sg30
F4735
sbsI24
g2
(g3
g4
NtRp123
(dp124
g7
I0
sg8
g45
sg23
g76
sg29
I6
sg30
F103144
sbsI25
g2
(g3
g4
NtRp125
(dp126
g7
I0
sg8
g76
sg23
g51
sg29
I6
sg30
F37453
sbsI26
g2
(g3
g4
NtRp127
(dp128
g7
I0
sg8
g10
sg23
g83
sg29
I6
sg30
F57685
sbsI27
g2
(g3
g4
NtRp129
(dp130
g7
I0
sg8
g100
sg23
g33
sg29
I6
sg30
F34556
sbsI28
g2
(g3
g4
NtRp131
(dp132
g7
I0
sg8
g67
sg23
g58
sg29
I7
sg30
F79372
sbsI29
g2
(g3
g4
NtRp133
(dp134
g7
I0
sg8
g100
sg23
g33
sg29
I7
sg30
F82530
sbsI30
g2
(g3
g4
NtRp135
(dp136
g7
I0
sg8
g10
sg23
g58
sg29
I7
sg30
F59855
sbsI31
g2
(g3
g4
NtRp137
(dp138
g7
I0
sg8
g33
sg23
g38
sg29
I7
sg30
F17724
sbsI32
g2
(g3
g4
NtRp139
(dp140
g7
I0
sg8
g58
sg23
g24
sg29
I8
sg30
F208914
sbsI33
g2
(g3
g4
NtRp141
(dp142
g7
I0
sg8
g33
sg23
g100
sg29
I8
sg30
F143032
sbsI34
g2
(g3
g4
NtRp143
(dp144
g7
I0
sg8
g76
sg23
g45
sg29
I8
sg30
F7060
sbsI35
g2
(g3
g4
NtRp145
(dp146
g7
I0
sg8
g38
sg23
g33
sg29
I8
sg30
F2737
sbsI36
g2
(g3
g4
NtRp147
(dp148
g7
I0
sg8
g58
sg23
g10
sg29
I9
sg30
F133511
sbsI37
g2
(g3
g4
NtRp149
(dp150
g7
I0
sg8
g45
sg23
g51
sg29
I9
sg30
F8560
sbsI38
g2
(g3
g4
NtRp151
(dp152
g7
I0
sg8
g45
sg23
g76
sg29
I9
sg30
F44094
sbsI39
g2
(g3
g4
NtRp153
(dp154
g7
I0
sg8
g67
sg23
g24
sg29
I9
sg30
F12238
sbsI40
g2
(g3
g4
NtRp155
(dp156
g7
I0
sg8
g51
sg23
g45
sg29
I10
sg30
F36689
sbsI41
g2
(g3
g4
NtRp157
(dp158
g7
I0
sg8
g83
sg23
g10
sg29
I10
sg30
F94885
sbsI42
g2
(g3
g4
NtRp159
(dp160
g7
I0
sg8
g10
sg23
g24
sg29
I10
sg30
F12614
sbsI43
g2
(g3
g4
NtRp161
(dp162
g7
I0
sg8
g100
sg23
g38
sg29
I10
sg30
F25280
sbsI44
g2
(g3
g4
NtRp163
(dp164
g7
I0
sg8
g45
sg23
g76
sg29
I11
sg30
F17375
sbsI45
g2
(g3
g4
NtRp165
(dp166
g7
I0
sg8
g45
sg23
g76
sg29
I11
sg30
F1867
sbsI46
g2
(g3
g4
NtRp167
(dp168
g7
I0
sg8
g67
sg23
g24
sg29
I11
sg30
F172170
sbsI47
g2
(g3
g4
NtRp169
(dp170
g7
I0
sg8
g76
sg23
g45
sg29
I11
sg30
F116396
sbsI48
g2
(g3
g4
NtRp171
(dp172
g7
I0
sg8
g58
sg23
g83
sg29
I12
sg30
F125519
sbsI49
g2
(g3
g4
NtRp173
(dp174
g7
I0
sg8
g67
sg23
g10
sg29
I12
sg30
F19753
sbsI50
g2
(g3
g4
NtRp175
(dp176
g7
I0
sg8
g38
sg23
g33
sg29
I12
sg30
F26122
sbsI51
g2
(g3
g4
NtRp177
(dp178
g7
I0
sg8
g38
sg23
g33
sg29
I12
sg30
F36173
sbsI52
g2
(g3
g4
NtRp179
(dp180
g7
I0
sg8
g76
sg23
g45
sg29
I13
sg30
F11808
sbsI53
g2
(g3
g4
NtRp181
(dp182
g7
I0
sg8
g10
sg23
g24
sg29
I13
sg30
F23423
sbsI54
g2
(g3
g4
NtRp183
(dp184
g7
I0
sg8
g83
sg23
g58
sg29
I13
sg30
F46057
sbsI55
g2
(g3
g4
NtRp185
(dp186
g7
I0
sg8
g24
sg23
g67
sg29
I13
sg30
F1713
sbsI56
g2
(g3
g4
NtRp187
(dp188
g7
I0
sg8
g58
sg23
g83
sg29
I14
sg30
F6496
sbsI57
g2
(g3
g4
NtRp189
(dp190
g7
I0
sg8
g10
sg23
g83
sg29
I14
sg30
F37583
sbsI58
g2
(g3
g4
NtRp191
(dp192
g7
I0
sg8
g76
sg23
g51
sg29
I14
sg30
F76455
sbsI59
g2
(g3
g4
NtRp193
(dp194
g7
I0
sg8
g38
sg23
g33
sg29
I14
sg30
F78980
sbsI60
g2
(g3
g4
NtRp195
(dp196
g7
I0
sg8
g33
sg23
g38
sg29
I15
sg30
F136482
sbsI61
g2
(g3
g4
NtRp197
(dp198
g7
I0
sg8
g100
sg23
g38
sg29
I15
sg30
F63423
sbsI62
g2
(g3
g4
NtRp199
(dp200
g7
I0
sg8
g51
sg23
g45
sg29
I15
sg30
F27873
sbsI63
g2
(g3
g4
NtRp201
(dp202
g7
I0
sg8
g45
sg23
g51
sg29
I15
sg30
F21981
sbsI64
g2
(g3
g4
NtRp203
(dp204
g7
I0
sg8
g58
sg23
g67
sg29
I16
sg30
F5035
sbsI65
g2
(g3
g4
NtRp205
(dp206
g7
I0
sg8
g100
sg23
g33
sg29
I16
sg30
F16261
sbsI66
g2
(g3
g4
NtRp207
(dp208
g7
I0
sg8
g51
sg23
g45
sg29
I16
sg30
F9085
sbsI67
g2
(g3
g4
NtRp209
(dp210
g7
I0
sg8
g33
sg23
g38
sg29
I16
sg30
F47725
sbsI68
g2
(g3
g4
NtRp211
(dp212
g7
I0
sg8
g83
sg23
g67
sg29
I17
sg30
F18800
sbsI69
g2
(g3
g4
NtRp213
(dp214
g7
I0
sg8
g100
sg23
g33
sg29
I17
sg30
F190951
sbsI70
g2
(g3
g4
NtRp215
(dp216
g7
I0
sg8
g51
sg23
g45
sg29
I17
sg30
F49194
sbsI71
g2
(g3
g4
NtRp217
(dp218
g7
I0
sg8
g83
sg23
g10
sg29
I17
sg30
F24882
sbsI72
g2
(g3
g4
NtRp219
(dp220
g7
I0
sg8
g100
sg23
g33
sg29
I18
sg30
F4830
sbsI73
g2
(g3
g4
NtRp221
(dp222
g7
I0
sg8
g67
sg23
g10
sg29
I18
sg30
F29899
sbsI74
g2
(g3
g4
NtRp223
(dp224
g7
I0
sg8
g45
sg23
g76
sg29
I18
sg30
F36806
sbsI75
g2
(g3
g4
NtRp225
(dp226
g7
I0
sg8
g67
sg23
g83
sg29
I18
sg30
F37258
sbsI76
g2
(g3
g4
NtRp227
(dp228
g7
I0
sg8
g67
sg23
g24
sg29
I19
sg30
F61916
sbsI77
g2
(g3
g4
NtRp229
(dp230
g7
I0
sg8
g45
sg23
g51
sg29
I19
sg30
F50632
sbsI78
g2
(g3
g4
NtRp231
(dp232
g7
I0
sg8
g51
sg23
g76
sg29
I19
sg30
F8907
sbsI79
g2
(g3
g4
NtRp233
(dp234
g7
I0
sg8
g33
sg23
g100
sg29
I19
sg30
F33902
sbsI80
g2
(g3
g4
NtRp235
(dp236
g7
I0
sg8
g58
sg23
g24
sg29
I20
sg30
F68960
sbsI81
g2
(g3
g4
NtRp237
(dp238
g7
I0
sg8
g45
sg23
g51
sg29
I20
sg30
F10073
sbsI82
g2
(g3
g4
NtRp239
(dp240
g7
I0
sg8
g67
sg23
g83
sg29
I20
sg30
F22909
sbsI83
g2
(g3
g4
NtRp241
(dp242
g7
I0
sg8
g76
sg23
g51
sg29
I20
sg30
F9266
sbsI84
g2
(g3
g4
NtRp243
(dp244
g7
I0
sg8
g45
sg23
g51
sg29
I21
sg30
F72252
sbsI85
g2
(g3
g4
NtRp245
(dp246
g7
I0
sg8
g38
sg23
g100
sg29
I21
sg30
F41170
sbsI86
g2
(g3
g4
NtRp247
(dp248
g7
I0
sg8
g100
sg23
g38
sg29
I21
sg30
F18783
sbsI87
g2
(g3
g4
NtRp249
(dp250
g7
I0
sg8
g67
sg23
g10
sg29
I21
sg30
F4375
sbsI88
g2
(g3
g4
NtRp251
(dp252
g7
I0
sg8
g24
sg23
g67
sg29
I22
sg30
F8933
sbsI89
g2
(g3
g4
NtRp253
(dp254
g7
I0
sg8
g33
sg23
g100
sg29
I22
sg30
F8785
sbsI90
g2
(g3
g4
NtRp255
(dp256
g7
I0
sg8
g83
sg23
g58
sg29
I22
sg30
F35106
sbsI91
g2
(g3
g4
NtRp257
(dp258
g7
I0
sg8
g10
sg23
g58
sg29
I22
sg30
F4855
sbsI92
g2
(g3
g4
NtRp259
(dp260
g7
I0
sg8
g45
sg23
g76
sg29
I23
sg30
F15694
sbsI93
g2
(g3
g4
NtRp261
(dp262
g7
I0
sg8
g45
sg23
g51
sg29
I23
sg30
F123697
sbsI94
g2
(g3
g4
NtRp263
(dp264
g7
I0
sg8
g67
sg23
g10
sg29
I23
sg30
F42949
sbsI95
g2
(g3
g4
NtRp265
(dp266
g7
I0
sg8
g45
sg23
g51
sg29
I23
sg30
F9257
sbsI96
g2
(g3
g4
NtRp267
(dp268
g7
I0
sg8
g38
sg23
g33
sg29
I24
sg30
F18909
sbsI97
g2
(g3
g4
NtRp269
(dp270
g7
I0
sg8
g45
sg23
g76
sg29
I24
sg30
F67189
sbsI98
g2
(g3
g4
NtRp271
(dp272
g7
I0
sg8
g51
sg23
g45
sg29
I24
sg30
F3635
sbsI99
g2
(g3
g4
NtRp273
(dp274
g7
I0
sg8
g45
sg23
g51
sg29
I24
sg30
F18671
sbsI100
g2
(g3
g4
NtRp275
(dp276
g7
I0
sg8
g58
sg23
g83
sg29
I25
sg30
F21030
sbsI101
g2
(g3
g4
NtRp277
(dp278
g7
I0
sg8
g24
sg23
g83
sg29
I25
sg30
F211202
sbsI102
g2
(g3
g4
NtRp279
(dp280
g7
I0
sg8
g38
sg23
g100
sg29
I25
sg30
F52472
sbsI103
g2
(g3
g4
NtRp281
(dp282
g7
I0
sg8
g10
sg23
g83
sg29
I25
sg30
F10237
sbsI104
g2
(g3
g4
NtRp283
(dp284
g7
I0
sg8
g83
sg23
g58
sg29
I26
sg30
F23986
sbsI105
g2
(g3
g4
NtRp285
(dp286
g7
I0
sg8
g38
sg23
g100
sg29
I26
sg30
F59852
sbsI106
g2
(g3
g4
NtRp287
(dp288
g7
I0
sg8
g33
sg23
g38
sg29
I26
sg30
F71093
sbsI107
g2
(g3
g4
NtRp289
(dp290
g7
I0
sg8
g24
sg23
g10
sg29
I26
sg30
F20620
sbsI108
g2
(g3
g4
NtRp291
(dp292
g7
I0
sg8
g83
sg23
g67
sg29
I27
sg30
F7235
sbsI109
g2
(g3
g4
NtRp293
(dp294
g7
I0
sg8
g100
sg23
g33
sg29
I27
sg30
F33260
sbsI110
g2
(g3
g4
NtRp295
(dp296
g7
I0
sg8
g58
sg23
g24
sg29
I27
sg30
F41975
sbsI111
g2
(g3
g4
NtRp297
(dp298
g7
I0
sg8
g24
sg23
g83
sg29
I27
sg30
F41575
sbsI112
g2
(g3
g4
NtRp299
(dp300
g7
I0
sg8
g51
sg23
g45
sg29
I28
sg30
F15532
sbsI113
g2
(g3
g4
NtRp301
(dp302
g7
I0
sg8
g38
sg23
g100
sg29
I28
sg30
F8423
sbsI114
g2
(g3
g4
NtRp303
(dp304
g7
I0
sg8
g67
sg23
g24
sg29
I28
sg30
F62944
sbsI115
g2
(g3
g4
NtRp305
(dp306
g7
I0
sg8
g24
sg23
g58
sg29
I28
sg30
F12265
sbsI116
g2
(g3
g4
NtRp307
(dp308
g7
I0
sg8
g58
sg23
g67
sg29
I29
sg30
F76904
sbsI117
g2
(g3
g4
NtRp309
(dp310
g7
I0
sg8
g51
sg23
g76
sg29
I29
sg30
F8267
sbsI118
g2
(g3
g4
NtRp311
(dp312
g7
I0
sg8
g83
sg23
g24
sg29
I29
sg30
F61175
sbsI119
g2
(g3
g4
NtRp313
(dp314
g7
I0
sg8
g24
sg23
g83
sg29
I29
sg30
F16653
sbsI120
g2
(g3
g4
NtRp315
(dp316
g7
I0
sg8
g76
sg23
g45
sg29
I30
sg30
F9403
sbsI121
g2
(g3
g4
NtRp317
(dp318
g7
I0
sg8
g24
sg23
g10
sg29
I30
sg30
F25675
sbsI122
g2
(g3
g4
NtRp319
(dp320
g7
I0
sg8
g76
sg23
g45
sg29
I30
sg30
F51316
sbsI123
g2
(g3
g4
NtRp321
(dp322
g7
I0
sg8
g45
sg23
g51
sg29
I30
sg30
F14713
sbsI124
g2
(g3
g4
NtRp323
(dp324
g7
I0
sg8
g24
sg23
g58
sg29
I31
sg30
F39444
sbsI125
g2
(g3
g4
NtRp325
(dp326
g7
I0
sg8
g10
sg23
g67
sg29
I31
sg30
F19998
sbsI126
g2
(g3
g4
NtRp327
(dp328
g7
I0
sg8
g45
sg23
g51
sg29
I31
sg30
F15420
sbsI127
g2
(g3
g4
NtRp329
(dp330
g7
I0
sg8
g51
sg23
g45
sg29
I31
sg30
F5971
sbsI128
g2
(g3
g4
NtRp331
(dp332
g7
I0
sg8
g83
sg23
g67
sg29
I32
sg30
F48370
sbsI129
g2
(g3
g4
NtRp333
(dp334
g7
I0
sg8
g58
sg23
g24
sg29
I32
sg30
F187653
sbsI130
g2
(g3
g4
NtRp335
(dp336
g7
I0
sg8
g10
sg23
g83
sg29
I32
sg30
F29560
sbsI131
g2
(g3
g4
NtRp337
(dp338
g7
I0
sg8
g76
sg23
g45
sg29
I32
sg30
F41686
sbsI132
g2
(g3
g4
NtRp339
(dp340
g7
I0
sg8
g100
sg23
g33
sg29
I33
sg30
F6384
sbsI133
g2
(g3
g4
NtRp341
(dp342
g7
I0
sg8
g45
sg23
g51
sg29
I33
sg30
F8622
sbsI134
g2
(g3
g4
NtRp343
(dp344
g7
I0
sg8
g67
sg23
g24
sg29
I33
sg30
F38072
sbsI135
g2
(g3
g4
NtRp345
(dp346
g7
I0
sg8
g33
sg23
g38
sg29
I33
sg30
F3440
sbsI136
g2
(g3
g4
NtRp347
(dp348
g7
I0
sg8
g45
sg23
g51
sg29
I34
sg30
F6005
sbsI137
g2
(g3
g4
NtRp349
(dp350
g7
I0
sg8
g83
sg23
g67
sg29
I34
sg30
F51488
sbsI138
g2
(g3
g4
NtRp351
(dp352
g7
I0
sg8
g58
sg23
g67
sg29
I34
sg30
F49631
sbsI139
g2
(g3
g4
NtRp353
(dp354
g7
I0
sg8
g67
sg23
g10
sg29
I34
sg30
F13113
sbsI140
g2
(g3
g4
NtRp355
(dp356
g7
I0
sg8
g58
sg23
g24
sg29
I35
sg30
F5979
sbsI141
g2
(g3
g4
NtRp357
(dp358
g7
I0
sg8
g83
sg23
g24
sg29
I35
sg30
F20492
sbsI142
g2
(g3
g4
NtRp359
(dp360
g7
I0
sg8
g45
sg23
g51
sg29
I35
sg30
F31786
sbsI143
g2
(g3
g4
NtRp361
(dp362
g7
I0
sg8
g67
sg23
g24
sg29
I35
sg30
F73107
sbsI144
g2
(g3
g4
NtRp363
(dp364
g7
I0
sg8
g51
sg23
g45
sg29
I36
sg30
F9466
sbsI145
g2
(g3
g4
NtRp365
(dp366
g7
I0
sg8
g58
sg23
g10
sg29
I36
sg30
F97781
sbsI146
g2
(g3
g4
NtRp367
(dp368
g7
I0
sg8
g51
sg23
g45
sg29
I36
sg30
F6178
sbsI147
g2
(g3
g4
NtRp369
(dp370
g7
I0
sg8
g45
sg23
g76
sg29
I36
sg30
F18346
sbsI148
g2
(g3
g4
NtRp371
(dp372
g7
I0
sg8
g33
sg23
g38
sg29
I37
sg30
F28441
sbsI149
g2
(g3
g4
NtRp373
(dp374
g7
I0
sg8
g76
sg23
g45
sg29
I37
sg30
F964
sbsI150
g2
(g3
g4
NtRp375
(dp376
g7
I0
sg8
g67
sg23
g10
sg29
I37
sg30
F14611
sbsI151
g2
(g3
g4
NtRp377
(dp378
g7
I0
sg8
g33
sg23
g100
sg29
I37
sg30
F52712
sbsI152
g2
(g3
g4
NtRp379
(dp380
g7
I0
sg8
g100
sg23
g33
sg29
I38
sg30
F4108
sbsI153
g2
(g3
g4
NtRp381
(dp382
g7
I0
sg8
g58
sg23
g67
sg29
I38
sg30
F9585
sbsI154
g2
(g3
g4
NtRp383
(dp384
g7
I0
sg8
g33
sg23
g100
sg29
I38
sg30
F83189
sbsI155
g2
(g3
g4
NtRp385
(dp386
g7
I0
sg8
g33
sg23
g100
sg29
I38
sg30
F29145
sbsI156
g2
(g3
g4
NtRp387
(dp388
g7
I0
sg8
g51
sg23
g76
sg29
I39
sg30
F259461
sbsI157
g2
(g3
g4
NtRp389
(dp390
g7
I0
sg8
g10
sg23
g67
sg29
I39
sg30
F3188
sbsI158
g2
(g3
g4
NtRp391
(dp392
g7
I0
sg8
g33
sg23
g100
sg29
I39
sg30
F5868
sbsI159
g2
(g3
g4
NtRp393
(dp394
g7
I0
sg8
g45
sg23
g51
sg29
I39
sg30
F1257
sbsI160
g2
(g3
g4
NtRp395
(dp396
g7
I0
sg8
g67
sg23
g83
sg29
I40
sg30
F10517
sbsI161
g2
(g3
g4
NtRp397
(dp398
g7
I0
sg8
g83
sg23
g67
sg29
I40
sg30
F4234
sbsI162
g2
(g3
g4
NtRp399
(dp400
g7
I0
sg8
g24
sg23
g83
sg29
I40
sg30
F21714
sbsI163
g2
(g3
g4
NtRp401
(dp402
g7
I0
sg8
g33
sg23
g100
sg29
I40
sg30
F5129
sbsI164
g2
(g3
g4
NtRp403
(dp404
g7
I0
sg8
g76
sg23
g51
sg29
I41
sg30
F162278
sbsI165
g2
(g3
g4
NtRp405
(dp406
g7
I0
sg8
g24
sg23
g83
sg29
I41
sg30
F185364
sbsI166
g2
(g3
g4
NtRp407
(dp408
g7
I0
sg8
g45
sg23
g76
sg29
I41
sg30
F19916
sbsI167
g2
(g3
g4
NtRp409
(dp410
g7
I0
sg8
g38
sg23
g100
sg29
I41
sg30
F3386
sbsI168
g2
(g3
g4
NtRp411
(dp412
g7
I0
sg8
g100
sg23
g33
sg29
I42
sg30
F14112
sbsI169
g2
(g3
g4
NtRp413
(dp414
g7
I0
sg8
g45
sg23
g51
sg29
I42
sg30
F26507
sbsI170
g2
(g3
g4
NtRp415
(dp416
g7
I0
sg8
g10
sg23
g83
sg29
I42
sg30
F51302
sbsI171
g2
(g3
g4
NtRp417
(dp418
g7
I0
sg8
g76
sg23
g45
sg29
I42
sg30
F413960
sbsI172
g2
(g3
g4
NtRp419
(dp420
g7
I0
sg8
g10
sg23
g67
sg29
I43
sg30
F20019
sbsI173
g2
(g3
g4
NtRp421
(dp422
g7
I0
sg8
g45
sg23
g51
sg29
I43
sg30
F16984
sbsI174
g2
(g3
g4
NtRp423
(dp424
g7
I0
sg8
g67
sg23
g58
sg29
I43
sg30
F7362
sbsI175
g2
(g3
g4
NtRp425
(dp426
g7
I0
sg8
g100
sg23
g33
sg29
I43
sg30
F54630
sbsI176
g2
(g3
g4
NtRp427
(dp428
g7
I0
sg8
g10
sg23
g83
sg29
I44
sg30
F27442
sbsI177
g2
(g3
g4
NtRp429
(dp430
g7
I0
sg8
g58
sg23
g24
sg29
I44
sg30
F47872
sbsI178
g2
(g3
g4
NtRp431
(dp432
g7
I0
sg8
g24
sg23
g58
sg29
I44
sg30
F17037
sbsI179
g2
(g3
g4
NtRp433
(dp434
g7
I0
sg8
g33
sg23
g38
sg29
I44
sg30
F17825
sbsI180
g2
(g3
g4
NtRp435
(dp436
g7
I0
sg8
g83
sg23
g67
sg29
I45
sg30
F82803
sbsI181
g2
(g3
g4
NtRp437
(dp438
g7
I0
sg8
g33
sg23
g38
sg29
I45
sg30
F25271
sbsI182
g2
(g3
g4
NtRp439
(dp440
g7
I0
sg8
g38
sg23
g100
sg29
I45
sg30
F18077
sbsI183
g2
(g3
g4
NtRp441
(dp442
g7
I0
sg8
g45
sg23
g76
sg29
I45
sg30
F5770
sbsI184
g2
(g3
g4
NtRp443
(dp444
g7
I0
sg8
g83
sg23
g24
sg29
I46
sg30
F18725
sbsI185
g2
(g3
g4
NtRp445
(dp446
g7
I0
sg8
g45
sg23
g51
sg29
I46
sg30
F7380
sbsI186
g2
(g3
g4
NtRp447
(dp448
g7
I0
sg8
g58
sg23
g24
sg29
I46
sg30
F10477
sbsI187
g2
(g3
g4
NtRp449
(dp450
g7
I0
sg8
g24
sg23
g10
sg29
I46
sg30
F133322
sbsI188
g2
(g3
g4
NtRp451
(dp452
g7
I0
sg8
g76
sg23
g51
sg29
I47
sg30
F16861
sbsI189
g2
(g3
g4
NtRp453
(dp454
g7
I0
sg8
g100
sg23
g33
sg29
I47
sg30
F1296
sbsI190
g2
(g3
g4
NtRp455
(dp456
g7
I0
sg8
g51
sg23
g45
sg29
I47
sg30
F8566
sbsI191
g2
(g3
g4
NtRp457
(dp458
g7
I0
sg8
g10
sg23
g83
sg29
I47
sg30
F11894
sbsI192
g2
(g3
g4
NtRp459
(dp460
g7
I0
sg8
g76
sg23
g51
sg29
I48
sg30
F31706
sbsI193
g2
(g3
g4
NtRp461
(dp462
g7
I0
sg8
g45
sg23
g51
sg29
I48
sg30
F79646
sbsI194
g2
(g3
g4
NtRp463
(dp464
g7
I0
sg8
g45
sg23
g76
sg29
I48
sg30
F40496
sbsI195
g2
(g3
g4
NtRp465
(dp466
g7
I0
sg8
g51
sg23
g45
sg29
I48
sg30
F10201
sbsI196
g2
(g3
g4
NtRp467
(dp468
g7
I0
sg8
g38
sg23
g100
sg29
I49
sg30
F12496
sbsI197
g2
(g3
g4
NtRp469
(dp470
g7
I0
sg8
g24
sg23
g58
sg29
I49
sg30
F23258
sbsI198
g2
(g3
g4
NtRp471
(dp472
g7
I0
sg8
g38
sg23
g33
sg29
I49
sg30
F87464
sbsI199
g2
(g3
g4
NtRp473
(dp474
g7
I0
sg8
g51
sg23
g76
sg29
I49
sg30
F49288
sbsI200
g2
(g3
g4
NtRp475
(dp476
g7
I0
sg8
g100
sg23
g38
sg29
I50
sg30
F15584
sbsI201
g2
(g3
g4
NtRp477
(dp478
g7
I0
sg8
g33
sg23
g38
sg29
I50
sg30
F25096
sbsI202
g2
(g3
g4
NtRp479
(dp480
g7
I0
sg8
g51
sg23
g45
sg29
I50
sg30
F14530
sbsI203
g2
(g3
g4
NtRp481
(dp482
g7
I0
sg8
g33
sg23
g100
sg29
I50
sg30
F17568
sbsI204
g2
(g3
g4
NtRp483
(dp484
g7
I0
sg8
g58
sg23
g10
sg29
I51
sg30
F31797
sbsI205
g2
(g3
g4
NtRp485
(dp486
g7
I0
sg8
g100
sg23
g38
sg29
I51
sg30
F1923
sbsI206
g2
(g3
g4
NtRp487
(dp488
g7
I0
sg8
g67
sg23
g24
sg29
I51
sg30
F7840
sbsI207
g2
(g3
g4
NtRp489
(dp490
g7
I0
sg8
g76
sg23
g45
sg29
I51
sg30
F26964
sbsI208
g2
(g3
g4
NtRp491
(dp492
g7
I0
sg8
g45
sg23
g51
sg29
I52
sg30
F52805
sbsI209
g2
(g3
g4
NtRp493
(dp494
g7
I0
sg8
g100
sg23
g33
sg29
I52
sg30
F53804
sbsI210
g2
(g3
g4
NtRp495
(dp496
g7
I0
sg8
g33
sg23
g100
sg29
I52
sg30
F65544
sbsI211
g2
(g3
g4
NtRp497
(dp498
g7
I0
sg8
g10
sg23
g58
sg29
I52
sg30
F4285
sbsI212
g2
(g3
g4
NtRp499
(dp500
g7
I0
sg8
g33
sg23
g38
sg29
I53
sg30
F50977
sbsI213
g2
(g3
g4
NtRp501
(dp502
g7
I0
sg8
g67
sg23
g83
sg29
I53
sg30
F9667
sbsI214
g2
(g3
g4
NtRp503
(dp504
g7
I0
sg8
g38
sg23
g100
sg29
I53
sg30
F32377
sbsI215
g2
(g3
g4
NtRp505
(dp506
g7
I0
sg8
g38
sg23
g33
sg29
I53
sg30
F5260
sbsI216
g2
(g3
g4
NtRp507
(dp508
g7
I0
sg8
g24
sg23
g10
sg29
I54
sg30
F28876
sbsI217
g2
(g3
g4
NtRp509
(dp510
g7
I0
sg8
g76
sg23
g45
sg29
I54
sg30
F270685
sbsI218
g2
(g3
g4
NtRp511
(dp512
g7
I0
sg8
g67
sg23
g58
sg29
I54
sg30
F27026
sbsI219
g2
(g3
g4
NtRp513
(dp514
g7
I0
sg8
g67
sg23
g83
sg29
I54
sg30
F245695
sbsI220
g2
(g3
g4
NtRp515
(dp516
g7
I0
sg8
g45
sg23
g76
sg29
I55
sg30
F7039
sbsI221
g2
(g3
g4
NtRp517
(dp518
g7
I0
sg8
g38
sg23
g33
sg29
I55
sg30
F72756
sbsI222
g2
(g3
g4
NtRp519
(dp520
g7
I0
sg8
g67
sg23
g24
sg29
I55
sg30
F45167
sbsI223
g2
(g3
g4
NtRp521
(dp522
g7
I0
sg8
g58
sg23
g24
sg29
I55
sg30
F189459
sbsI224
g2
(g3
g4
NtRp523
(dp524
g7
I0
sg8
g38
sg23
g100
sg29
I56
sg30
F26431
sbsI225
g2
(g3
g4
NtRp525
(dp526
g7
I0
sg8
g45
sg23
g76
sg29
I56
sg30
F26033
sbsI226
g2
(g3
g4
NtRp527
(dp528
g7
I0
sg8
g51
sg23
g45
sg29
I56
sg30
F1919
sbsI227
g2
(g3
g4
NtRp529
(dp530
g7
I0
sg8
g33
sg23
g100
sg29
I56
sg30
F13432
sbsI228
g2
(g3
g4
NtRp531
(dp532
g7
I0
sg8
g38
sg23
g33
sg29
I57
sg30
F31316
sbsI229
g2
(g3
g4
NtRp533
(dp534
g7
I0
sg8
g76
sg23
g45
sg29
I57
sg30
F43577
sbsI230
g2
(g3
g4
NtRp535
(dp536
g7
I0
sg8
g100
sg23
g38
sg29
I57
sg30
F16265
sbsI231
g2
(g3
g4
NtRp537
(dp538
g7
I0
sg8
g58
sg23
g10
sg29
I57
sg30
F29162
sbsI232
g2
(g3
g4
NtRp539
(dp540
g7
I0
sg8
g58
sg23
g83
sg29
I58
sg30
F18144
sbsI233
g2
(g3
g4
NtRp541
(dp542
g7
I0
sg8
g38
sg23
g100
sg29
I58
sg30
F65032
sbsI234
g2
(g3
g4
NtRp543
(dp544
g7
I0
sg8
g67
sg23
g58
sg29
I58
sg30
F134214
sbsI235
g2
(g3
g4
NtRp545
(dp546
g7
I0
sg8
g67
sg23
g83
sg29
I58
sg30
F4049
sbsI236
g2
(g3
g4
NtRp547
(dp548
g7
I0
sg8
g76
sg23
g45
sg29
I59
sg30
F8122
sbsI237
g2
(g3
g4
NtRp549
(dp550
g7
I0
sg8
g58
sg23
g10
sg29
I59
sg30
F27779
sbsI238
g2
(g3
g4
NtRp551
(dp552
g7
I0
sg8
g58
sg23
g24
sg29
I59
sg30
F18483
sbsI239
g2
(g3
g4
NtRp553
(dp554
g7
I0
sg8
g10
sg23
g24
sg29
I59
sg30
F19823
sbs.