(dp1
I0
ccopy_reg
_reconstructor
p2
(cAutoTest.Model.Flow
Flow
p3
c__builtin__
object
p4
NtRp5
(dp6
S'duration'
p7
I0
sS'src'
p8
g2
(cAutoTest.Model.Device
Host
p9
g4
NtRp10
(dp11
S't_id'
p12
I1
sS'name'
p13
S'h00100062'
p14
sS'ip'
p15
S'10.0.0.39'
p16
sS'mac'
p17
S'00:00:00:00:00:3e'
p18
sS'gw_ip'
p19
V10.0.0.1
p20
sS'dc_id'
p21
I1
sS'id'
p22
I62
sbsS'dst'
p23
g2
(g9
g4
NtRp24
(dp25
g12
I1
sg13
S'h00100048'
p26
sg15
S'10.0.0.30'
p27
sg17
S'00:00:00:00:00:30'
p28
sg19
g20
sg21
I1
sg22
I48
sbsS'start_tmie'
p29
I0
sS'size'
p30
F6225
sbsI1
g2
(g3
g4
NtRp31
(dp32
g7
I0
sg8
g2
(g9
g4
NtRp33
(dp34
g12
I1
sg13
S'h00100028'
p35
sg15
S'10.0.0.20'
p36
sg17
S'00:00:00:00:00:1c'
p37
sg19
g20
sg21
I1
sg22
I28
sbsg23
g2
(g9
g4
NtRp38
(dp39
g12
I1
sg13
S'h00100030'
p40
sg15
S'10.0.0.21'
p41
sg17
S'00:00:00:00:00:1e'
p42
sg19
g20
sg21
I1
sg22
I30
sbsg29
I0
sg30
F24026
sbsI2
g2
(g3
g4
NtRp43
(dp44
g7
I0
sg8
g2
(g9
g4
NtRp45
(dp46
g12
I1
sg13
S'h00100051'
p47
sg15
S'192.168.0.22'
p48
sg17
S'00:00:00:00:00:33'
p49
sg19
V192.168.0.1
p50
sg21
I1
sg22
I51
sbsg23
g2
(g9
g4
NtRp51
(dp52
g12
I1
sg13
S'h00100093'
p53
sg15
S'192.168.0.46'
p54
sg17
S'00:00:00:00:00:5d'
p55
sg19
g50
sg21
I1
sg22
I93
sbsg29
I0
sg30
F40604
sbsI3
g2
(g3
g4
NtRp56
(dp57
g7
I0
sg8
g2
(g9
g4
NtRp58
(dp59
g12
I1
sg13
S'h00100060'
p60
sg15
S'10.0.0.37'
p61
sg17
S'00:00:00:00:00:3c'
p62
sg19
g20
sg21
I1
sg22
I60
sbsg23
g2
(g9
g4
NtRp63
(dp64
g12
I1
sg13
S'h00100025'
p65
sg15
S'10.0.0.17'
p66
sg17
S'00:00:00:00:00:19'
p67
sg19
g20
sg21
I1
sg22
I25
sbsg29
I0
sg30
F33556
sbsI4
g2
(g3
g4
NtRp68
(dp69
g7
I0
sg8
g2
(g9
g4
NtRp70
(dp71
g12
I1
sg13
S'h00100021'
p72
sg15
S'10.0.0.14'
p73
sg17
S'00:00:00:00:00:15'
p74
sg19
g20
sg21
I1
sg22
I21
sbsg23
g38
sg29
I0
sg30
F50381
sbsI5
g2
(g3
g4
NtRp75
(dp76
g7
I0
sg8
g63
sg23
g2
(g9
g4
NtRp77
(dp78
g12
I1
sg13
S'h00100004'
p79
sg15
S'10.0.0.5'
p80
sg17
S'00:00:00:00:00:04'
p81
sg19
g20
sg21
I1
sg22
I4
sbsg29
I0
sg30
F18880
sbsI6
g2
(g3
g4
NtRp82
(dp83
g7
I0
sg8
g2
(g9
g4
NtRp84
(dp85
g12
I1
sg13
S'h00100091'
p86
sg15
S'10.0.0.48'
p87
sg17
S'00:00:00:00:00:5b'
p88
sg19
g20
sg21
I1
sg22
I91
sbsg23
g2
(g9
g4
NtRp89
(dp90
g12
I1
sg13
S'h00100001'
p91
sg15
S'10.0.0.2'
p92
sg17
S'00:00:00:00:00:01'
p93
sg19
g20
sg21
I1
sg22
I1
sbsg29
I0
sg30
F70573
sbsI7
g2
(g3
g4
NtRp94
(dp95
g7
I0
sg8
g2
(g9
g4
NtRp96
(dp97
g12
I1
sg13
S'h00100077'
p98
sg15
S'10.0.0.44'
p99
sg17
S'00:00:00:00:00:4d'
p100
sg19
g20
sg21
I1
sg22
I77
sbsg23
g2
(g9
g4
NtRp101
(dp102
g12
I1
sg13
S'h00100079'
p103
sg15
S'10.0.0.45'
p104
sg17
S'00:00:00:00:00:4f'
p105
sg19
g20
sg21
I1
sg22
I79
sbsg29
I0
sg30
F9617
sbsI8
g2
(g3
g4
NtRp106
(dp107
g7
I0
sg8
g2
(g9
g4
NtRp108
(dp109
g12
I1
sg13
S'h00100094'
p110
sg15
S'192.168.0.47'
p111
sg17
S'00:00:00:00:00:5e'
p112
sg19
g50
sg21
I1
sg22
I94
sbsg23
g2
(g9
g4
NtRp113
(dp114
g12
I1
sg13
S'h00100039'
p115
sg15
S'192.168.0.14'
p116
sg17
S'00:00:00:00:00:27'
p117
sg19
g50
sg21
I1
sg22
I39
sbsg29
I0
sg30
F29377
sbsI9
g2
(g3
g4
NtRp118
(dp119
g7
I0
sg8
g2
(g9
g4
NtRp120
(dp121
g12
I1
sg13
S'h00100052'
p122
sg15
S'10.0.0.32'
p123
sg17
S'00:00:00:00:00:34'
p124
sg19
g20
sg21
I1
sg22
I52
sbsg23
g2
(g9
g4
NtRp125
(dp126
g12
I1
sg13
S'h00100006'
p127
sg15
S'10.0.0.7'
p128
sg17
S'00:00:00:00:00:06'
p129
sg19
g20
sg21
I1
sg22
I6
sbsg29
I0
sg30
F20798
sbsI10
g2
(g3
g4
NtRp130
(dp131
g7
I0
sg8
g2
(g9
g4
NtRp132
(dp133
g12
I1
sg13
S'h00100071'
p134
sg15
S'192.168.0.32'
p135
sg17
S'00:00:00:00:00:47'
p136
sg19
g50
sg21
I1
sg22
I71
sbsg23
g2
(g9
g4
NtRp137
(dp138
g12
I1
sg13
S'h00100010'
p139
sg15
S'192.168.0.3'
p140
sg17
S'00:00:00:00:00:0a'
p141
sg19
g50
sg21
I1
sg22
I10
sbsg29
I0
sg30
F23757
sbsI11
g2
(g3
g4
NtRp142
(dp143
g7
I0
sg8
g2
(g9
g4
NtRp144
(dp145
g12
I1
sg13
S'h00100003'
p146
sg15
S'10.0.0.4'
p147
sg17
S'00:00:00:00:00:03'
p148
sg19
g20
sg21
I1
sg22
I3
sbsg23
g70
sg29
I0
sg30
F30082
sbsI12
g2
(g3
g4
NtRp149
(dp150
g7
I0
sg8
g2
(g9
g4
NtRp151
(dp152
g12
I1
sg13
S'h00100097'
p153
sg15
S'10.0.0.52'
p154
sg17
S'00:00:00:00:00:61'
p155
sg19
g20
sg21
I1
sg22
I97
sbsg23
g33
sg29
I0
sg30
F30593
sbsI13
g2
(g3
g4
NtRp156
(dp157
g7
I0
sg8
g113
sg23
g132
sg29
I0
sg30
F19880
sbsI14
g2
(g3
g4
NtRp158
(dp159
g7
I0
sg8
g2
(g9
g4
NtRp160
(dp161
g12
I1
sg13
S'h00100080'
p162
sg15
S'192.168.0.37'
p163
sg17
S'00:00:00:00:00:50'
p164
sg19
g50
sg21
I1
sg22
I80
sbsg23
g51
sg29
I0
sg30
F50093
sbsI15
g2
(g3
g4
NtRp165
(dp166
g7
I0
sg8
g70
sg23
g38
sg29
I0
sg30
F30586
sbsI16
g2
(g3
g4
NtRp167
(dp168
g7
I0
sg8
g84
sg23
g144
sg29
I0
sg30
F22824
sbsI17
g2
(g3
g4
NtRp169
(dp170
g7
I0
sg8
g2
(g9
g4
NtRp171
(dp172
g12
I1
sg13
S'h00100024'
p173
sg15
S'192.168.0.10'
p174
sg17
S'00:00:00:00:00:18'
p175
sg19
g50
sg21
I1
sg22
I24
sbsg23
g2
(g9
g4
NtRp176
(dp177
g12
I1
sg13
S'h00100085'
p178
sg15
S'192.168.0.40'
p179
sg17
S'00:00:00:00:00:55'
p180
sg19
g50
sg21
I1
sg22
I85
sbsg29
I0
sg30
F5707
sbsI18
g2
(g3
g4
NtRp181
(dp182
g7
I0
sg8
g171
sg23
g2
(g9
g4
NtRp183
(dp184
g12
I1
sg13
S'h00100050'
p185
sg15
S'192.168.0.21'
p186
sg17
S'00:00:00:00:00:32'
p187
sg19
g50
sg21
I1
sg22
I50
sbsg29
I0
sg30
F48095
sbsI19
g2
(g3
g4
NtRp188
(dp189
g7
I0
sg8
g63
sg23
g2
(g9
g4
NtRp190
(dp191
g12
I1
sg13
S'h00100074'
p192
sg15
S'10.0.0.42'
p193
sg17
S'00:00:00:00:00:4a'
p194
sg19
g20
sg21
I1
sg22
I74
sbsg29
I1
sg30
F25010
sbsI20
g2
(g3
g4
NtRp195
(dp196
g7
I0
sg8
g2
(g9
g4
NtRp197
(dp198
g12
I1
sg13
S'h00100033'
p199
sg15
S'10.0.0.23'
p200
sg17
S'00:00:00:00:00:21'
p201
sg19
g20
sg21
I1
sg22
I33
sbsg23
g2
(g9
g4
NtRp202
(dp203
g12
I1
sg13
S'h00100082'
p204
sg15
S'10.0.0.47'
p205
sg17
S'00:00:00:00:00:52'
p206
sg19
g20
sg21
I1
sg22
I82
sbsg29
I1
sg30
F49062
sbsI21
g2
(g3
g4
NtRp207
(dp208
g7
I0
sg8
g2
(g9
g4
NtRp209
(dp210
g12
I1
sg13
S'h00100040'
p211
sg15
S'192.168.0.15'
p212
sg17
S'00:00:00:00:00:28'
p213
sg19
g50
sg21
I1
sg22
I40
sbsg23
g2
(g9
g4
NtRp214
(dp215
g12
I1
sg13
S'h00100020'
p216
sg15
S'192.168.0.9'
p217
sg17
S'00:00:00:00:00:14'
p218
sg19
g50
sg21
I1
sg22
I20
sbsg29
I1
sg30
F34723
sbsI22
g2
(g3
g4
NtRp219
(dp220
g7
I0
sg8
g183
sg23
g51
sg29
I1
sg30
F31743
sbsI23
g2
(g3
g4
NtRp221
(dp222
g7
I0
sg8
g2
(g9
g4
NtRp223
(dp224
g12
I1
sg13
S'h00100092'
p225
sg15
S'10.0.0.49'
p226
sg17
S'00:00:00:00:00:5c'
p227
sg19
g20
sg21
I1
sg22
I92
sbsg23
g2
(g9
g4
NtRp228
(dp229
g12
I1
sg13
S'h00100096'
p230
sg15
S'10.0.0.51'
p231
sg17
S'00:00:00:00:00:60'
p232
sg19
g20
sg21
I1
sg22
I96
sbsg29
I1
sg30
F8928
sbsI24
g2
(g3
g4
NtRp233
(dp234
g7
I0
sg8
g2
(g9
g4
NtRp235
(dp236
g12
I1
sg13
S'h00100058'
p237
sg15
S'10.0.0.35'
p238
sg17
S'00:00:00:00:00:3a'
p239
sg19
g20
sg21
I1
sg22
I58
sbsg23
g84
sg29
I1
sg30
F7698
sbsI25
g2
(g3
g4
NtRp240
(dp241
g7
I0
sg8
g2
(g9
g4
NtRp242
(dp243
g12
I1
sg13
S'h00100049'
p244
sg15
S'10.0.0.31'
p245
sg17
S'00:00:00:00:00:31'
p246
sg19
g20
sg21
I1
sg22
I49
sbsg23
g228
sg29
I1
sg30
F15783
sbsI26
g2
(g3
g4
NtRp247
(dp248
g7
I0
sg8
g2
(g9
g4
NtRp249
(dp250
g12
I1
sg13
S'h00100056'
p251
sg15
S'192.168.0.25'
p252
sg17
S'00:00:00:00:00:38'
p253
sg19
g50
sg21
I1
sg22
I56
sbsg23
g176
sg29
I1
sg30
F3799
sbsI27
g2
(g3
g4
NtRp254
(dp255
g7
I0
sg8
g171
sg23
g51
sg29
I1
sg30
F29636
sbsI28
g2
(g3
g4
NtRp256
(dp257
g7
I0
sg8
g2
(g9
g4
NtRp258
(dp259
g12
I1
sg13
S'h00100005'
p260
sg15
S'10.0.0.6'
p261
sg17
S'00:00:00:00:00:05'
p262
sg19
g20
sg21
I1
sg22
I5
sbsg23
g101
sg29
I1
sg30
F16487
sbsI29
g2
(g3
g4
NtRp263
(dp264
g7
I0
sg8
g132
sg23
g2
(g9
g4
NtRp265
(dp266
g12
I1
sg13
S'h00100086'
p267
sg15
S'192.168.0.41'
p268
sg17
S'00:00:00:00:00:56'
p269
sg19
g50
sg21
I1
sg22
I86
sbsg29
I1
sg30
F13038
sbsI30
g2
(g3
g4
NtRp270
(dp271
g7
I0
sg8
g144
sg23
g120
sg29
I1
sg30
F112735
sbsI31
g2
(g3
g4
NtRp272
(dp273
g7
I0
sg8
g125
sg23
g223
sg29
I1
sg30
F13071
sbsI32
g2
(g3
g4
NtRp274
(dp275
g7
I0
sg8
g258
sg23
g120
sg29
I1
sg30
F34526
sbsI33
g2
(g3
g4
NtRp276
(dp277
g7
I0
sg8
g58
sg23
g10
sg29
I1
sg30
F20496
sbsI34
g2
(g3
g4
NtRp278
(dp279
g7
I0
sg8
g24
sg23
g235
sg29
I1
sg30
F65656
sbsI35
g2
(g3
g4
NtRp280
(dp281
g7
I0
sg8
g70
sg23
g197
sg29
I1
sg30
F48874
sbsI36
g2
(g3
g4
NtRp282
(dp283
g7
I0
sg8
g2
(g9
g4
NtRp284
(dp285
g12
I1
sg13
S'h00100054'
p286
sg15
S'192.168.0.24'
p287
sg17
S'00:00:00:00:00:36'
p288
sg19
g50
sg21
I1
sg22
I54
sbsg23
g45
sg29
I1
sg30
F21865
sbsI37
g2
(g3
g4
NtRp289
(dp290
g7
I0
sg8
g63
sg23
g242
sg29
I1
sg30
F278055
sbsI38
g2
(g3
g4
NtRp291
(dp292
g7
I0
sg8
g258
sg23
g2
(g9
g4
NtRp293
(dp294
g12
I1
sg13
S'h00100100'
p295
sg15
S'10.0.0.55'
p296
sg17
S'00:00:00:00:00:64'
p297
sg19
g20
sg21
I1
sg22
I100
sbsg29
I2
sg30
F22046
sbsI39
g2
(g3
g4
NtRp298
(dp299
g7
I0
sg8
g2
(g9
g4
NtRp300
(dp301
g12
I1
sg13
S'h00100029'
p302
sg15
S'192.168.0.11'
p303
sg17
S'00:00:00:00:00:1d'
p304
sg19
g50
sg21
I1
sg22
I29
sbsg23
g176
sg29
I2
sg30
F156332
sbsI40
g2
(g3
g4
NtRp305
(dp306
g7
I0
sg8
g171
sg23
g132
sg29
I2
sg30
F18562
sbsI41
g2
(g3
g4
NtRp307
(dp308
g7
I0
sg8
g242
sg23
g10
sg29
I2
sg30
F4313
sbsI42
g2
(g3
g4
NtRp309
(dp310
g7
I0
sg8
g33
sg23
g38
sg29
I2
sg30
F15603
sbsI43
g2
(g3
g4
NtRp311
(dp312
g7
I0
sg8
g265
sg23
g176
sg29
I2
sg30
F58428
sbsI44
g2
(g3
g4
NtRp313
(dp314
g7
I0
sg8
g144
sg23
g151
sg29
I2
sg30
F23082
sbsI45
g2
(g3
g4
NtRp315
(dp316
g7
I0
sg8
g209
sg23
g249
sg29
I2
sg30
F15411
sbsI46
g2
(g3
g4
NtRp317
(dp318
g7
I0
sg8
g300
sg23
g160
sg29
I2
sg30
F11246
sbsI47
g2
(g3
g4
NtRp319
(dp320
g7
I0
sg8
g33
sg23
g10
sg29
I2
sg30
F6997
sbsI48
g2
(g3
g4
NtRp321
(dp322
g7
I0
sg8
g176
sg23
g300
sg29
I2
sg30
F278465
sbsI49
g2
(g3
g4
NtRp323
(dp324
g7
I0
sg8
g197
sg23
g2
(g9
g4
NtRp325
(dp326
g12
I1
sg13
S'h00100034'
p327
sg15
S'10.0.0.24'
p328
sg17
S'00:00:00:00:00:22'
p329
sg19
g20
sg21
I1
sg22
I34
sbsg29
I2
sg30
F13012
sbsI50
g2
(g3
g4
NtRp330
(dp331
g7
I0
sg8
g58
sg23
g258
sg29
I2
sg30
F19008
sbsI51
g2
(g3
g4
NtRp332
(dp333
g7
I0
sg8
g249
sg23
g132
sg29
I2
sg30
F26293
sbsI52
g2
(g3
g4
NtRp334
(dp335
g7
I0
sg8
g249
sg23
g176
sg29
I2
sg30
F17690
sbsI53
g2
(g3
g4
NtRp336
(dp337
g7
I0
sg8
g89
sg23
g33
sg29
I2
sg30
F97198
sbsI54
g2
(g3
g4
NtRp338
(dp339
g7
I0
sg8
g235
sg23
g58
sg29
I2
sg30
F37327
sbsI55
g2
(g3
g4
NtRp340
(dp341
g7
I0
sg8
g249
sg23
g265
sg29
I2
sg30
F18585
sbsI56
g2
(g3
g4
NtRp342
(dp343
g7
I0
sg8
g144
sg23
g2
(g9
g4
NtRp344
(dp345
g12
I1
sg13
S'h00100098'
p346
sg15
S'10.0.0.53'
p347
sg17
S'00:00:00:00:00:62'
p348
sg19
g20
sg21
I1
sg22
I98
sbsg29
I2
sg30
F15026
sbsI57
g2
(g3
g4
NtRp349
(dp350
g7
I0
sg8
g108
sg23
g160
sg29
I3
sg30
F42245
sbsI58
g2
(g3
g4
NtRp351
(dp352
g7
I0
sg8
g176
sg23
g284
sg29
I3
sg30
F18764
sbsI59
g2
(g3
g4
NtRp353
(dp354
g7
I0
sg8
g228
sg23
g325
sg29
I3
sg30
F5580
sbsI60
g2
(g3
g4
NtRp355
(dp356
g7
I0
sg8
g101
sg23
g202
sg29
I3
sg30
F40884
sbsI61
g2
(g3
g4
NtRp357
(dp358
g7
I0
sg8
g144
sg23
g38
sg29
I3
sg30
F57184
sbsI62
g2
(g3
g4
NtRp359
(dp360
g7
I0
sg8
g10
sg23
g58
sg29
I3
sg30
F10507
sbsI63
g2
(g3
g4
NtRp361
(dp362
g7
I0
sg8
g265
sg23
g214
sg29
I3
sg30
F4818
sbsI64
g2
(g3
g4
NtRp363
(dp364
g7
I0
sg8
g223
sg23
g77
sg29
I3
sg30
F67880
sbsI65
g2
(g3
g4
NtRp365
(dp366
g7
I0
sg8
g38
sg23
g101
sg29
I3
sg30
F6999
sbsI66
g2
(g3
g4
NtRp367
(dp368
g7
I0
sg8
g344
sg23
g38
sg29
I3
sg30
F20351
sbsI67
g2
(g3
g4
NtRp369
(dp370
g7
I0
sg8
g132
sg23
g176
sg29
I3
sg30
F107285
sbsI68
g2
(g3
g4
NtRp371
(dp372
g7
I0
sg8
g2
(g9
g4
NtRp373
(dp374
g12
I1
sg13
S'h00100065'
p375
sg15
S'192.168.0.28'
p376
sg17
S'00:00:00:00:00:41'
p377
sg19
g50
sg21
I1
sg22
I65
sbsg23
g209
sg29
I3
sg30
F12175
sbsI69
g2
(g3
g4
NtRp378
(dp379
g7
I0
sg8
g151
sg23
g101
sg29
I3
sg30
F16245
sbsI70
g2
(g3
g4
NtRp380
(dp381
g7
I0
sg8
g113
sg23
g249
sg29
I3
sg30
F46570
sbsI71
g2
(g3
g4
NtRp382
(dp383
g7
I0
sg8
g228
sg23
g38
sg29
I3
sg30
F2495
sbsI72
g2
(g3
g4
NtRp384
(dp385
g7
I0
sg8
g38
sg23
g242
sg29
I3
sg30
F15190
sbsI73
g2
(g3
g4
NtRp386
(dp387
g7
I0
sg8
g58
sg23
g24
sg29
I3
sg30
F126308
sbsI74
g2
(g3
g4
NtRp388
(dp389
g7
I0
sg8
g325
sg23
g63
sg29
I3
sg30
F170903
sbsI75
g2
(g3
g4
NtRp390
(dp391
g7
I0
sg8
g265
sg23
g209
sg29
I3
sg30
F29128
sbsI76
g2
(g3
g4
NtRp392
(dp393
g7
I0
sg8
g209
sg23
g265
sg29
I4
sg30
F13325
sbsI77
g2
(g3
g4
NtRp394
(dp395
g7
I0
sg8
g344
sg23
g197
sg29
I4
sg30
F58802
sbsI78
g2
(g3
g4
NtRp396
(dp397
g7
I0
sg8
g202
sg23
g125
sg29
I4
sg30
F58498
sbsI79
g2
(g3
g4
NtRp398
(dp399
g7
I0
sg8
g325
sg23
g2
(g9
g4
NtRp400
(dp401
g12
I1
sg13
S'h00100009'
p402
sg15
S'10.0.0.9'
p403
sg17
S'00:00:00:00:00:09'
p404
sg19
g20
sg21
I1
sg22
I9
sbsg29
I4
sg30
F5621
sbsI80
g2
(g3
g4
NtRp405
(dp406
g7
I0
sg8
g160
sg23
g2
(g9
g4
NtRp407
(dp408
g12
I1
sg13
S'h00100078'
p409
sg15
S'192.168.0.36'
p410
sg17
S'00:00:00:00:00:4e'
p411
sg19
g50
sg21
I1
sg22
I78
sbsg29
I4
sg30
F10092
sbsI81
g2
(g3
g4
NtRp412
(dp413
g7
I0
sg8
g51
sg23
g183
sg29
I4
sg30
F35597
sbsI82
g2
(g3
g4
NtRp414
(dp415
g7
I0
sg8
g101
sg23
g202
sg29
I4
sg30
F19956
sbsI83
g2
(g3
g4
NtRp416
(dp417
g7
I0
sg8
g70
sg23
g89
sg29
I4
sg30
F21688
sbsI84
g2
(g3
g4
NtRp418
(dp419
g7
I0
sg8
g214
sg23
g113
sg29
I4
sg30
F5381
sbsI85
g2
(g3
g4
NtRp420
(dp421
g7
I0
sg8
g258
sg23
g151
sg29
I4
sg30
F11211
sbsI86
g2
(g3
g4
NtRp422
(dp423
g7
I0
sg8
g77
sg23
g125
sg29
I4
sg30
F33475
sbsI87
g2
(g3
g4
NtRp424
(dp425
g7
I0
sg8
g10
sg23
g223
sg29
I4
sg30
F4621
sbsI88
g2
(g3
g4
NtRp426
(dp427
g7
I0
sg8
g300
sg23
g183
sg29
I4
sg30
F1986
sbsI89
g2
(g3
g4
NtRp428
(dp429
g7
I0
sg8
g70
sg23
g120
sg29
I4
sg30
F15306
sbsI90
g2
(g3
g4
NtRp430
(dp431
g7
I0
sg8
g190
sg23
g242
sg29
I4
sg30
F6370
sbsI91
g2
(g3
g4
NtRp432
(dp433
g7
I0
sg8
g235
sg23
g258
sg29
I4
sg30
F41995
sbsI92
g2
(g3
g4
NtRp434
(dp435
g7
I0
sg8
g2
(g9
g4
NtRp436
(dp437
g12
I1
sg13
S'h00100059'
p438
sg15
S'10.0.0.36'
p439
sg17
S'00:00:00:00:00:3b'
p440
sg19
g20
sg21
I1
sg22
I59
sbsg23
g197
sg29
I4
sg30
F16929
sbsI93
g2
(g3
g4
NtRp441
(dp442
g7
I0
sg8
g89
sg23
g235
sg29
I4
sg30
F25313
sbsI94
g2
(g3
g4
NtRp443
(dp444
g7
I0
sg8
g209
sg23
g265
sg29
I4
sg30
F68779
sbsI95
g2
(g3
g4
NtRp445
(dp446
g7
I0
sg8
g258
sg23
g235
sg29
I5
sg30
F23334
sbsI96
g2
(g3
g4
NtRp447
(dp448
g7
I0
sg8
g24
sg23
g101
sg29
I5
sg30
F49234
sbsI97
g2
(g3
g4
NtRp449
(dp450
g7
I0
sg8
g258
sg23
g436
sg29
I5
sg30
F15402
sbsI98
g2
(g3
g4
NtRp451
(dp452
g7
I0
sg8
g344
sg23
g293
sg29
I5
sg30
F6083
sbsI99
g2
(g3
g4
NtRp453
(dp454
g7
I0
sg8
g84
sg23
g400
sg29
I5
sg30
F22859
sbsI100
g2
(g3
g4
NtRp455
(dp456
g7
I0
sg8
g108
sg23
g407
sg29
I5
sg30
F50260
sbsI101
g2
(g3
g4
NtRp457
(dp458
g7
I0
sg8
g176
sg23
g300
sg29
I5
sg30
F32262
sbsI102
g2
(g3
g4
NtRp459
(dp460
g7
I0
sg8
g209
sg23
g160
sg29
I5
sg30
F17893
sbsI103
g2
(g3
g4
NtRp461
(dp462
g7
I0
sg8
g33
sg23
g400
sg29
I5
sg30
F17420
sbsI104
g2
(g3
g4
NtRp463
(dp464
g7
I0
sg8
g176
sg23
g113
sg29
I5
sg30
F3463
sbsI105
g2
(g3
g4
NtRp465
(dp466
g7
I0
sg8
g144
sg23
g10
sg29
I5
sg30
F23199
sbsI106
g2
(g3
g4
NtRp467
(dp468
g7
I0
sg8
g2
(g9
g4
NtRp469
(dp470
g12
I1
sg13
S'h00100007'
p471
sg15
S'192.168.0.2'
p472
sg17
S'00:00:00:00:00:07'
p473
sg19
g50
sg21
I1
sg22
I7
sbsg23
g137
sg29
I5
sg30
F25934
sbsI107
g2
(g3
g4
NtRp474
(dp475
g7
I0
sg8
g84
sg23
g2
(g9
g4
NtRp476
(dp477
g12
I1
sg13
S'h00100044'
p478
sg15
S'10.0.0.28'
p479
sg17
S'00:00:00:00:00:2c'
p480
sg19
g20
sg21
I1
sg22
I44
sbsg29
I5
sg30
F6388
sbsI108
g2
(g3
g4
NtRp481
(dp482
g7
I0
sg8
g293
sg23
g84
sg29
I5
sg30
F9946
sbsI109
g2
(g3
g4
NtRp483
(dp484
g7
I0
sg8
g407
sg23
g249
sg29
I5
sg30
F61907
sbsI110
g2
(g3
g4
NtRp485
(dp486
g7
I0
sg8
g101
sg23
g242
sg29
I5
sg30
F19045
sbsI111
g2
(g3
g4
NtRp487
(dp488
g7
I0
sg8
g113
sg23
g108
sg29
I5
sg30
F44580
sbsI112
g2
(g3
g4
NtRp489
(dp490
g7
I0
sg8
g113
sg23
g373
sg29
I5
sg30
F6265
sbsI113
g2
(g3
g4
NtRp491
(dp492
g7
I0
sg8
g202
sg23
g96
sg29
I5
sg30
F105468
sbsI114
g2
(g3
g4
NtRp493
(dp494
g7
I0
sg8
g235
sg23
g190
sg29
I6
sg30
F17459
sbsI115
g2
(g3
g4
NtRp495
(dp496
g7
I0
sg8
g120
sg23
g436
sg29
I6
sg30
F17508
sbsI116
g2
(g3
g4
NtRp497
(dp498
g7
I0
sg8
g132
sg23
g108
sg29
I6
sg30
F12110
sbsI117
g2
(g3
g4
NtRp499
(dp500
g7
I0
sg8
g151
sg23
g197
sg29
I6
sg30
F36006
sbsI118
g2
(g3
g4
NtRp501
(dp502
g7
I0
sg8
g197
sg23
g63
sg29
I6
sg30
F44490
sbsI119
g2
(g3
g4
NtRp503
(dp504
g7
I0
sg8
g96
sg23
g235
sg29
I6
sg30
F11204
sbsI120
g2
(g3
g4
NtRp505
(dp506
g7
I0
sg8
g400
sg23
g258
sg29
I6
sg30
F17833
sbsI121
g2
(g3
g4
NtRp507
(dp508
g7
I0
sg8
g373
sg23
g171
sg29
I6
sg30
F84039
sbsI122
g2
(g3
g4
NtRp509
(dp510
g7
I0
sg8
g58
sg23
g242
sg29
I6
sg30
F10462
sbsI123
g2
(g3
g4
NtRp511
(dp512
g7
I0
sg8
g400
sg23
g77
sg29
I6
sg30
F115303
sbsI124
g2
(g3
g4
NtRp513
(dp514
g7
I0
sg8
g101
sg23
g293
sg29
I6
sg30
F3444
sbsI125
g2
(g3
g4
NtRp515
(dp516
g7
I0
sg8
g132
sg23
g407
sg29
I6
sg30
F11311
sbsI126
g2
(g3
g4
NtRp517
(dp518
g7
I0
sg8
g58
sg23
g38
sg29
I6
sg30
F18239
sbsI127
g2
(g3
g4
NtRp519
(dp520
g7
I0
sg8
g344
sg23
g70
sg29
I6
sg30
F9513
sbsI128
g2
(g3
g4
NtRp521
(dp522
g7
I0
sg8
g214
sg23
g160
sg29
I6
sg30
F6917
sbsI129
g2
(g3
g4
NtRp523
(dp524
g7
I0
sg8
g209
sg23
g469
sg29
I6
sg30
F121132
sbsI130
g2
(g3
g4
NtRp525
(dp526
g7
I0
sg8
g176
sg23
g45
sg29
I6
sg30
F60928
sbsI131
g2
(g3
g4
NtRp527
(dp528
g7
I0
sg8
g171
sg23
g469
sg29
I6
sg30
F34771
sbsI132
g2
(g3
g4
NtRp529
(dp530
g7
I0
sg8
g209
sg23
g113
sg29
I6
sg30
F112301
sbsI133
g2
(g3
g4
NtRp531
(dp532
g7
I0
sg8
g265
sg23
g284
sg29
I7
sg30
F77839
sbsI134
g2
(g3
g4
NtRp533
(dp534
g7
I0
sg8
g96
sg23
g58
sg29
I7
sg30
F27176
sbsI135
g2
(g3
g4
NtRp535
(dp536
g7
I0
sg8
g249
sg23
g284
sg29
I7
sg30
F26903
sbsI136
g2
(g3
g4
NtRp537
(dp538
g7
I0
sg8
g10
sg23
g101
sg29
I7
sg30
F17561
sbsI137
g2
(g3
g4
NtRp539
(dp540
g7
I0
sg8
g96
sg23
g258
sg29
I7
sg30
F9765
sbsI138
g2
(g3
g4
NtRp541
(dp542
g7
I0
sg8
g400
sg23
g144
sg29
I7
sg30
F24929
sbsI139
g2
(g3
g4
NtRp543
(dp544
g7
I0
sg8
g344
sg23
g151
sg29
I7
sg30
F46152
sbsI140
g2
(g3
g4
NtRp545
(dp546
g7
I0
sg8
g242
sg23
g223
sg29
I7
sg30
F60122
sbsI141
g2
(g3
g4
NtRp547
(dp548
g7
I0
sg8
g223
sg23
g202
sg29
I7
sg30
F15565
sbsI142
g2
(g3
g4
NtRp549
(dp550
g7
I0
sg8
g176
sg23
g214
sg29
I7
sg30
F36385
sbsI143
g2
(g3
g4
NtRp551
(dp552
g7
I0
sg8
g469
sg23
g300
sg29
I7
sg30
F12288
sbsI144
g2
(g3
g4
NtRp553
(dp554
g7
I0
sg8
g101
sg23
g190
sg29
I7
sg30
F52462
sbsI145
g2
(g3
g4
NtRp555
(dp556
g7
I0
sg8
g101
sg23
g242
sg29
I7
sg30
F44987
sbsI146
g2
(g3
g4
NtRp557
(dp558
g7
I0
sg8
g89
sg23
g235
sg29
I7
sg30
F13697
sbsI147
g2
(g3
g4
NtRp559
(dp560
g7
I0
sg8
g89
sg23
g125
sg29
I7
sg30
F3613
sbsI148
g2
(g3
g4
NtRp561
(dp562
g7
I0
sg8
g151
sg23
g223
sg29
I7
sg30
F19053
sbsI149
g2
(g3
g4
NtRp563
(dp564
g7
I0
sg8
g120
sg23
g101
sg29
I7
sg30
F10415
sbsI150
g2
(g3
g4
NtRp565
(dp566
g7
I0
sg8
g190
sg23
g63
sg29
I7
sg30
F29955
sbsI151
g2
(g3
g4
NtRp567
(dp568
g7
I0
sg8
g45
sg23
g214
sg29
I7
sg30
F96963
sbsI152
g2
(g3
g4
NtRp569
(dp570
g7
I0
sg8
g144
sg23
g63
sg29
I8
sg30
F8641
sbsI153
g2
(g3
g4
NtRp571
(dp572
g7
I0
sg8
g24
sg23
g400
sg29
I8
sg30
F98819
sbsI154
g2
(g3
g4
NtRp573
(dp574
g7
I0
sg8
g101
sg23
g144
sg29
I8
sg30
F14041
sbsI155
g2
(g3
g4
NtRp575
(dp576
g7
I0
sg8
g84
sg23
g77
sg29
I8
sg30
F101613
sbsI156
g2
(g3
g4
NtRp577
(dp578
g7
I0
sg8
g249
sg23
g284
sg29
I8
sg30
F4985
sbsI157
g2
(g3
g4
NtRp579
(dp580
g7
I0
sg8
g476
sg23
g400
sg29
I8
sg30
F5306
sbsI158
g2
(g3
g4
NtRp581
(dp582
g7
I0
sg8
g113
sg23
g469
sg29
I8
sg30
F29654
sbsI159
g2
(g3
g4
NtRp583
(dp584
g7
I0
sg8
g171
sg23
g373
sg29
I8
sg30
F98159
sbsI160
g2
(g3
g4
NtRp585
(dp586
g7
I0
sg8
g235
sg23
g38
sg29
I8
sg30
F24852
sbsI161
g2
(g3
g4
NtRp587
(dp588
g7
I0
sg8
g151
sg23
g58
sg29
I8
sg30
F25594
sbsI162
g2
(g3
g4
NtRp589
(dp590
g7
I0
sg8
g400
sg23
g202
sg29
I8
sg30
F37803
sbsI163
g2
(g3
g4
NtRp591
(dp592
g7
I0
sg8
g70
sg23
g144
sg29
I8
sg30
F50597
sbsI164
g2
(g3
g4
NtRp593
(dp594
g7
I0
sg8
g144
sg23
g202
sg29
I8
sg30
F95531
sbsI165
g2
(g3
g4
NtRp595
(dp596
g7
I0
sg8
g228
sg23
g400
sg29
I8
sg30
F16781
sbsI166
g2
(g3
g4
NtRp597
(dp598
g7
I0
sg8
g96
sg23
g400
sg29
I8
sg30
F18995
sbsI167
g2
(g3
g4
NtRp599
(dp600
g7
I0
sg8
g258
sg23
g190
sg29
I8
sg30
F6903
sbsI168
g2
(g3
g4
NtRp601
(dp602
g7
I0
sg8
g202
sg23
g144
sg29
I8
sg30
F29023
sbsI169
g2
(g3
g4
NtRp603
(dp604
g7
I0
sg8
g77
sg23
g89
sg29
I8
sg30
F4745
sbsI170
g2
(g3
g4
NtRp605
(dp606
g7
I0
sg8
g476
sg23
g24
sg29
I8
sg30
F54805
sbsI171
g2
(g3
g4
NtRp607
(dp608
g7
I0
sg8
g38
sg23
g58
sg29
I9
sg30
F81726
sbsI172
g2
(g3
g4
NtRp609
(dp610
g7
I0
sg8
g373
sg23
g45
sg29
I9
sg30
F15862
sbsI173
g2
(g3
g4
NtRp611
(dp612
g7
I0
sg8
g235
sg23
g325
sg29
I9
sg30
F32774
sbsI174
g2
(g3
g4
NtRp613
(dp614
g7
I0
sg8
g38
sg23
g235
sg29
I9
sg30
F24522
sbsI175
g2
(g3
g4
NtRp615
(dp616
g7
I0
sg8
g325
sg23
g202
sg29
I9
sg30
F12218
sbsI176
g2
(g3
g4
NtRp617
(dp618
g7
I0
sg8
g89
sg23
g24
sg29
I9
sg30
F128754
sbsI177
g2
(g3
g4
NtRp619
(dp620
g7
I0
sg8
g190
sg23
g58
sg29
I9
sg30
F29563
sbsI178
g2
(g3
g4
NtRp621
(dp622
g7
I0
sg8
g70
sg23
g10
sg29
I9
sg30
F10955
sbsI179
g2
(g3
g4
NtRp623
(dp624
g7
I0
sg8
g214
sg23
g249
sg29
I9
sg30
F23042
sbsI180
g2
(g3
g4
NtRp625
(dp626
g7
I0
sg8
g209
sg23
g249
sg29
I9
sg30
F2996
sbsI181
g2
(g3
g4
NtRp627
(dp628
g7
I0
sg8
g113
sg23
g108
sg29
I9
sg30
F9583
sbsI182
g2
(g3
g4
NtRp629
(dp630
g7
I0
sg8
g344
sg23
g400
sg29
I9
sg30
F81806
sbsI183
g2
(g3
g4
NtRp631
(dp632
g7
I0
sg8
g249
sg23
g108
sg29
I9
sg30
F6752
sbsI184
g2
(g3
g4
NtRp633
(dp634
g7
I0
sg8
g171
sg23
g45
sg29
I9
sg30
F103916
sbsI185
g2
(g3
g4
NtRp635
(dp636
g7
I0
sg8
g344
sg23
g223
sg29
I9
sg30
F13364
sbsI186
g2
(g3
g4
NtRp637
(dp638
g7
I0
sg8
g108
sg23
g209
sg29
I9
sg30
F43187
sbsI187
g2
(g3
g4
NtRp639
(dp640
g7
I0
sg8
g373
sg23
g132
sg29
I9
sg30
F22309
sbsI188
g2
(g3
g4
NtRp641
(dp642
g7
I0
sg8
g228
sg23
g436
sg29
I9
sg30
F44224
sbsI189
g2
(g3
g4
NtRp643
(dp644
g7
I0
sg8
g125
sg23
g202
sg29
I9
sg30
F18722
sbsI190
g2
(g3
g4
NtRp645
(dp646
g7
I0
sg8
g58
sg23
g96
sg29
I10
sg30
F32305
sbsI191
g2
(g3
g4
NtRp647
(dp648
g7
I0
sg8
g223
sg23
g242
sg29
I10
sg30
F104126
sbsI192
g2
(g3
g4
NtRp649
(dp650
g7
I0
sg8
g63
sg23
g96
sg29
I10
sg30
F17430
sbsI193
g2
(g3
g4
NtRp651
(dp652
g7
I0
sg8
g38
sg23
g101
sg29
I10
sg30
F23072
sbsI194
g2
(g3
g4
NtRp653
(dp654
g7
I0
sg8
g160
sg23
g183
sg29
I10
sg30
F17758
sbsI195
g2
(g3
g4
NtRp655
(dp656
g7
I0
sg8
g101
sg23
g258
sg29
I10
sg30
F17646
sbsI196
g2
(g3
g4
NtRp657
(dp658
g7
I0
sg8
g209
sg23
g469
sg29
I10
sg30
F54107
sbsI197
g2
(g3
g4
NtRp659
(dp660
g7
I0
sg8
g96
sg23
g190
sg29
I10
sg30
F74005
sbsI198
g2
(g3
g4
NtRp661
(dp662
g7
I0
sg8
g120
sg23
g228
sg29
I10
sg30
F5400
sbsI199
g2
(g3
g4
NtRp663
(dp664
g7
I0
sg8
g235
sg23
g63
sg29
I10
sg30
F18754
sbsI200
g2
(g3
g4
NtRp665
(dp666
g7
I0
sg8
g228
sg23
g10
sg29
I10
sg30
F27636
sbsI201
g2
(g3
g4
NtRp667
(dp668
g7
I0
sg8
g58
sg23
g242
sg29
I10
sg30
F19862
sbsI202
g2
(g3
g4
NtRp669
(dp670
g7
I0
sg8
g113
sg23
g51
sg29
I10
sg30
F18654
sbsI203
g2
(g3
g4
NtRp671
(dp672
g7
I0
sg8
g249
sg23
g176
sg29
I10
sg30
F45177
sbsI204
g2
(g3
g4
NtRp673
(dp674
g7
I0
sg8
g190
sg23
g223
sg29
I10
sg30
F28246
sbsI205
g2
(g3
g4
NtRp675
(dp676
g7
I0
sg8
g89
sg23
g144
sg29
I10
sg30
F64672
sbsI206
g2
(g3
g4
NtRp677
(dp678
g7
I0
sg8
g24
sg23
g125
sg29
I10
sg30
F6120
sbsI207
g2
(g3
g4
NtRp679
(dp680
g7
I0
sg8
g228
sg23
g89
sg29
I10
sg30
F95280
sbsI208
g2
(g3
g4
NtRp681
(dp682
g7
I0
sg8
g344
sg23
g202
sg29
I10
sg30
F16741
sbsI209
g2
(g3
g4
NtRp683
(dp684
g7
I0
sg8
g51
sg23
g209
sg29
I11
sg30
F22497
sbsI210
g2
(g3
g4
NtRp685
(dp686
g7
I0
sg8
g235
sg23
g476
sg29
I11
sg30
F1769
sbsI211
g2
(g3
g4
NtRp687
(dp688
g7
I0
sg8
g24
sg23
g10
sg29
I11
sg30
F10036
sbsI212
g2
(g3
g4
NtRp689
(dp690
g7
I0
sg8
g344
sg23
g325
sg29
I11
sg30
F180405
sbsI213
g2
(g3
g4
NtRp691
(dp692
g7
I0
sg8
g344
sg23
g125
sg29
I11
sg30
F71393
sbsI214
g2
(g3
g4
NtRp693
(dp694
g7
I0
sg8
g96
sg23
g293
sg29
I11
sg30
F60518
sbsI215
g2
(g3
g4
NtRp695
(dp696
g7
I0
sg8
g436
sg23
g235
sg29
I11
sg30
F48079
sbsI216
g2
(g3
g4
NtRp697
(dp698
g7
I0
sg8
g84
sg23
g144
sg29
I11
sg30
F70825
sbsI217
g2
(g3
g4
NtRp699
(dp700
g7
I0
sg8
g469
sg23
g284
sg29
I11
sg30
F12679
sbsI218
g2
(g3
g4
NtRp701
(dp702
g7
I0
sg8
g137
sg23
g51
sg29
I11
sg30
F9666
sbsI219
g2
(g3
g4
NtRp703
(dp704
g7
I0
sg8
g436
sg23
g223
sg29
I11
sg30
F57152
sbsI220
g2
(g3
g4
NtRp705
(dp706
g7
I0
sg8
g171
sg23
g132
sg29
I11
sg30
F17853
sbsI221
g2
(g3
g4
NtRp707
(dp708
g7
I0
sg8
g469
sg23
g51
sg29
I11
sg30
F12663
sbsI222
g2
(g3
g4
NtRp709
(dp710
g7
I0
sg8
g151
sg23
g63
sg29
I11
sg30
F3978
sbsI223
g2
(g3
g4
NtRp711
(dp712
g7
I0
sg8
g51
sg23
g214
sg29
I11
sg30
F2456
sbsI224
g2
(g3
g4
NtRp713
(dp714
g7
I0
sg8
g10
sg23
g77
sg29
I11
sg30
F16998
sbsI225
g2
(g3
g4
NtRp715
(dp716
g7
I0
sg8
g235
sg23
g77
sg29
I11
sg30
F6720
sbsI226
g2
(g3
g4
NtRp717
(dp718
g7
I0
sg8
g202
sg23
g84
sg29
I11
sg30
F65993
sbsI227
g2
(g3
g4
NtRp719
(dp720
g7
I0
sg8
g84
sg23
g293
sg29
I11
sg30
F51063
sbsI228
g2
(g3
g4
NtRp721
(dp722
g7
I0
sg8
g125
sg23
g235
sg29
I12
sg30
F70846
sbsI229
g2
(g3
g4
NtRp723
(dp724
g7
I0
sg8
g89
sg23
g242
sg29
I12
sg30
F76866
sbsI230
g2
(g3
g4
NtRp725
(dp726
g7
I0
sg8
g209
sg23
g108
sg29
I12
sg30
F25232
sbsI231
g2
(g3
g4
NtRp727
(dp728
g7
I0
sg8
g120
sg23
g89
sg29
I12
sg30
F33927
sbsI232
g2
(g3
g4
NtRp729
(dp730
g7
I0
sg8
g258
sg23
g24
sg29
I12
sg30
F8925
sbsI233
g2
(g3
g4
NtRp731
(dp732
g7
I0
sg8
g120
sg23
g125
sg29
I12
sg30
F28379
sbsI234
g2
(g3
g4
NtRp733
(dp734
g7
I0
sg8
g77
sg23
g33
sg29
I12
sg30
F22040
sbsI235
g2
(g3
g4
NtRp735
(dp736
g7
I0
sg8
g407
sg23
g176
sg29
I12
sg30
F81683
sbsI236
g2
(g3
g4
NtRp737
(dp738
g7
I0
sg8
g151
sg23
g10
sg29
I12
sg30
F25104
sbsI237
g2
(g3
g4
NtRp739
(dp740
g7
I0
sg8
g214
sg23
g51
sg29
I12
sg30
F18926
sbsI238
g2
(g3
g4
NtRp741
(dp742
g7
I0
sg8
g258
sg23
g58
sg29
I12
sg30
F18363
sbsI239
g2
(g3
g4
NtRp743
(dp744
g7
I0
sg8
g33
sg23
g258
sg29
I12
sg30
F26043
sbsI240
g2
(g3
g4
NtRp745
(dp746
g7
I0
sg8
g190
sg23
g125
sg29
I12
sg30
F27339
sbsI241
g2
(g3
g4
NtRp747
(dp748
g7
I0
sg8
g63
sg23
g151
sg29
I12
sg30
F41415
sbsI242
g2
(g3
g4
NtRp749
(dp750
g7
I0
sg8
g300
sg23
g171
sg29
I12
sg30
F4323
sbsI243
g2
(g3
g4
NtRp751
(dp752
g7
I0
sg8
g33
sg23
g63
sg29
I12
sg30
F3616
sbsI244
g2
(g3
g4
NtRp753
(dp754
g7
I0
sg8
g436
sg23
g151
sg29
I12
sg30
F100573
sbsI245
g2
(g3
g4
NtRp755
(dp756
g7
I0
sg8
g373
sg23
g300
sg29
I12
sg30
F5186
sbsI246
g2
(g3
g4
NtRp757
(dp758
g7
I0
sg8
g469
sg23
g132
sg29
I12
sg30
F48507
sbsI247
g2
(g3
g4
NtRp759
(dp760
g7
I0
sg8
g77
sg23
g151
sg29
I13
sg30
F32731
sbsI248
g2
(g3
g4
NtRp761
(dp762
g7
I0
sg8
g209
sg23
g137
sg29
I13
sg30
F10050
sbsI249
g2
(g3
g4
NtRp763
(dp764
g7
I0
sg8
g223
sg23
g89
sg29
I13
sg30
F16454
sbsI250
g2
(g3
g4
NtRp765
(dp766
g7
I0
sg8
g469
sg23
g284
sg29
I13
sg30
F35798
sbsI251
g2
(g3
g4
NtRp767
(dp768
g7
I0
sg8
g400
sg23
g190
sg29
I13
sg30
F59725
sbsI252
g2
(g3
g4
NtRp769
(dp770
g7
I0
sg8
g436
sg23
g77
sg29
I13
sg30
F6174
sbsI253
g2
(g3
g4
NtRp771
(dp772
g7
I0
sg8
g400
sg23
g242
sg29
I13
sg30
F8116
sbsI254
g2
(g3
g4
NtRp773
(dp774
g7
I0
sg8
g77
sg23
g242
sg29
I13
sg30
F19801
sbsI255
g2
(g3
g4
NtRp775
(dp776
g7
I0
sg8
g101
sg23
g436
sg29
I13
sg30
F60709
sbsI256
g2
(g3
g4
NtRp777
(dp778
g7
I0
sg8
g190
sg23
g223
sg29
I13
sg30
F62812
sbsI257
g2
(g3
g4
NtRp779
(dp780
g7
I0
sg8
g137
sg23
g209
sg29
I13
sg30
F6469
sbsI258
g2
(g3
g4
NtRp781
(dp782
g7
I0
sg8
g38
sg23
g235
sg29
I13
sg30
F20811
sbsI259
g2
(g3
g4
NtRp783
(dp784
g7
I0
sg8
g183
sg23
g300
sg29
I13
sg30
F151473
sbsI260
g2
(g3
g4
NtRp785
(dp786
g7
I0
sg8
g400
sg23
g125
sg29
I13
sg30
F9647
sbsI261
g2
(g3
g4
NtRp787
(dp788
g7
I0
sg8
g325
sg23
g70
sg29
I13
sg30
F2119
sbsI262
g2
(g3
g4
NtRp789
(dp790
g7
I0
sg8
g183
sg23
g214
sg29
I13
sg30
F7657
sbsI263
g2
(g3
g4
NtRp791
(dp792
g7
I0
sg8
g51
sg23
g137
sg29
I13
sg30
F12448
sbsI264
g2
(g3
g4
NtRp793
(dp794
g7
I0
sg8
g228
sg23
g77
sg29
I13
sg30
F3646
sbsI265
g2
(g3
g4
NtRp795
(dp796
g7
I0
sg8
g45
sg23
g137
sg29
I13
sg30
F24567
sbsI266
g2
(g3
g4
NtRp797
(dp798
g7
I0
sg8
g197
sg23
g144
sg29
I14
sg30
F35343
sbsI267
g2
(g3
g4
NtRp799
(dp800
g7
I0
sg8
g84
sg23
g325
sg29
I14
sg30
F8619
sbsI268
g2
(g3
g4
NtRp801
(dp802
g7
I0
sg8
g171
sg23
g214
sg29
I14
sg30
F8457
sbsI269
g2
(g3
g4
NtRp803
(dp804
g7
I0
sg8
g293
sg23
g228
sg29
I14
sg30
F37969
sbsI270
g2
(g3
g4
NtRp805
(dp806
g7
I0
sg8
g132
sg23
g183
sg29
I14
sg30
F5810
sbsI271
g2
(g3
g4
NtRp807
(dp808
g7
I0
sg8
g33
sg23
g125
sg29
I14
sg30
F4614
sbsI272
g2
(g3
g4
NtRp809
(dp810
g7
I0
sg8
g183
sg23
g249
sg29
I14
sg30
F41896
sbsI273
g2
(g3
g4
NtRp811
(dp812
g7
I0
sg8
g51
sg23
g214
sg29
I14
sg30
F16096
sbsI274
g2
(g3
g4
NtRp813
(dp814
g7
I0
sg8
g176
sg23
g265
sg29
I14
sg30
F35650
sbsI275
g2
(g3
g4
NtRp815
(dp816
g7
I0
sg8
g70
sg23
g24
sg29
I14
sg30
F3840
sbsI276
g2
(g3
g4
NtRp817
(dp818
g7
I0
sg8
g84
sg23
g235
sg29
I14
sg30
F16104
sbsI277
g2
(g3
g4
NtRp819
(dp820
g7
I0
sg8
g190
sg23
g84
sg29
I14
sg30
F16134
sbsI278
g2
(g3
g4
NtRp821
(dp822
g7
I0
sg8
g223
sg23
g436
sg29
I14
sg30
F24318
sbsI279
g2
(g3
g4
NtRp823
(dp824
g7
I0
sg8
g214
sg23
g265
sg29
I14
sg30
F8090
sbsI280
g2
(g3
g4
NtRp825
(dp826
g7
I0
sg8
g190
sg23
g235
sg29
I14
sg30
F12141
sbsI281
g2
(g3
g4
NtRp827
(dp828
g7
I0
sg8
g89
sg23
g223
sg29
I14
sg30
F44169
sbsI282
g2
(g3
g4
NtRp829
(dp830
g7
I0
sg8
g113
sg23
g249
sg29
I14
sg30
F14650
sbsI283
g2
(g3
g4
NtRp831
(dp832
g7
I0
sg8
g38
sg23
g33
sg29
I14
sg30
F95950
sbsI284
g2
(g3
g4
NtRp833
(dp834
g7
I0
sg8
g344
sg23
g84
sg29
I14
sg30
F40896
sbsI285
g2
(g3
g4
NtRp835
(dp836
g7
I0
sg8
g137
sg23
g45
sg29
I15
sg30
F22955
sbsI286
g2
(g3
g4
NtRp837
(dp838
g7
I0
sg8
g436
sg23
g10
sg29
I15
sg30
F55863
sbsI287
g2
(g3
g4
NtRp839
(dp840
g7
I0
sg8
g400
sg23
g202
sg29
I15
sg30
F32363
sbsI288
g2
(g3
g4
NtRp841
(dp842
g7
I0
sg8
g293
sg23
g235
sg29
I15
sg30
F5426
sbsI289
g2
(g3
g4
NtRp843
(dp844
g7
I0
sg8
g125
sg23
g10
sg29
I15
sg30
F12227
sbsI290
g2
(g3
g4
NtRp845
(dp846
g7
I0
sg8
g197
sg23
g344
sg29
I15
sg30
F89191
sbsI291
g2
(g3
g4
NtRp847
(dp848
g7
I0
sg8
g258
sg23
g144
sg29
I15
sg30
F11487
sbsI292
g2
(g3
g4
NtRp849
(dp850
g7
I0
sg8
g258
sg23
g10
sg29
I15
sg30
F2113
sbsI293
g2
(g3
g4
NtRp851
(dp852
g7
I0
sg8
g258
sg23
g84
sg29
I15
sg30
F6551
sbsI294
g2
(g3
g4
NtRp853
(dp854
g7
I0
sg8
g70
sg23
g89
sg29
I15
sg30
F11893
sbsI295
g2
(g3
g4
NtRp855
(dp856
g7
I0
sg8
g101
sg23
g89
sg29
I15
sg30
F41817
sbsI296
g2
(g3
g4
NtRp857
(dp858
g7
I0
sg8
g38
sg23
g228
sg29
I15
sg30
F41132
sbsI297
g2
(g3
g4
NtRp859
(dp860
g7
I0
sg8
g400
sg23
g223
sg29
I15
sg30
F46279
sbsI298
g2
(g3
g4
NtRp861
(dp862
g7
I0
sg8
g209
sg23
g284
sg29
I15
sg30
F5620
sbsI299
g2
(g3
g4
NtRp863
(dp864
g7
I0
sg8
g242
sg23
g38
sg29
I15
sg30
F39595
sbsI300
g2
(g3
g4
NtRp865
(dp866
g7
I0
sg8
g325
sg23
g38
sg29
I15
sg30
F4505
sbsI301
g2
(g3
g4
NtRp867
(dp868
g7
I0
sg8
g51
sg23
g300
sg29
I15
sg30
F20213
sbsI302
g2
(g3
g4
NtRp869
(dp870
g7
I0
sg8
g300
sg23
g51
sg29
I15
sg30
F9012
sbsI303
g2
(g3
g4
NtRp871
(dp872
g7
I0
sg8
g176
sg23
g265
sg29
I15
sg30
F4564
sbsI304
g2
(g3
g4
NtRp873
(dp874
g7
I0
sg8
g63
sg23
g235
sg29
I16
sg30
F6194
sbsI305
g2
(g3
g4
NtRp875
(dp876
g7
I0
sg8
g38
sg23
g258
sg29
I16
sg30
F88578
sbsI306
g2
(g3
g4
NtRp877
(dp878
g7
I0
sg8
g235
sg23
g258
sg29
I16
sg30
F203742
sbsI307
g2
(g3
g4
NtRp879
(dp880
g7
I0
sg8
g183
sg23
g132
sg29
I16
sg30
F70279
sbsI308
g2
(g3
g4
NtRp881
(dp882
g7
I0
sg8
g235
sg23
g202
sg29
I16
sg30
F50146
sbsI309
g2
(g3
g4
NtRp883
(dp884
g7
I0
sg8
g407
sg23
g160
sg29
I16
sg30
F6706
sbsI310
g2
(g3
g4
NtRp885
(dp886
g7
I0
sg8
g137
sg23
g284
sg29
I16
sg30
F13745
sbsI311
g2
(g3
g4
NtRp887
(dp888
g7
I0
sg8
g24
sg23
g89
sg29
I16
sg30
F11398
sbsI312
g2
(g3
g4
NtRp889
(dp890
g7
I0
sg8
g10
sg23
g223
sg29
I16
sg30
F36701
sbsI313
g2
(g3
g4
NtRp891
(dp892
g7
I0
sg8
g108
sg23
g265
sg29
I16
sg30
F8577
sbsI314
g2
(g3
g4
NtRp893
(dp894
g7
I0
sg8
g151
sg23
g235
sg29
I16
sg30
F12180
sbsI315
g2
(g3
g4
NtRp895
(dp896
g7
I0
sg8
g144
sg23
g151
sg29
I16
sg30
F21909
sbsI316
g2
(g3
g4
NtRp897
(dp898
g7
I0
sg8
g33
sg23
g77
sg29
I16
sg30
F142155
sbsI317
g2
(g3
g4
NtRp899
(dp900
g7
I0
sg8
g436
sg23
g235
sg29
I16
sg30
F24696
sbsI318
g2
(g3
g4
NtRp901
(dp902
g7
I0
sg8
g228
sg23
g70
sg29
I16
sg30
F11502
sbsI319
g2
(g3
g4
NtRp903
(dp904
g7
I0
sg8
g51
sg23
g214
sg29
I16
sg30
F3162
sbsI320
g2
(g3
g4
NtRp905
(dp906
g7
I0
sg8
g144
sg23
g84
sg29
I16
sg30
F19267
sbsI321
g2
(g3
g4
NtRp907
(dp908
g7
I0
sg8
g373
sg23
g300
sg29
I16
sg30
F4831
sbsI322
g2
(g3
g4
NtRp909
(dp910
g7
I0
sg8
g89
sg23
g38
sg29
I16
sg30
F25240
sbsI323
g2
(g3
g4
NtRp911
(dp912
g7
I0
sg8
g209
sg23
g300
sg29
I17
sg30
F18264
sbsI324
g2
(g3
g4
NtRp913
(dp914
g7
I0
sg8
g58
sg23
g325
sg29
I17
sg30
F12272
sbsI325
g2
(g3
g4
NtRp915
(dp916
g7
I0
sg8
g325
sg23
g89
sg29
I17
sg30
F18614
sbsI326
g2
(g3
g4
NtRp917
(dp918
g7
I0
sg8
g58
sg23
g223
sg29
I17
sg30
F13484
sbsI327
g2
(g3
g4
NtRp919
(dp920
g7
I0
sg8
g38
sg23
g84
sg29
I17
sg30
F87873
sbsI328
g2
(g3
g4
NtRp921
(dp922
g7
I0
sg8
g108
sg23
g407
sg29
I17
sg30
F307172
sbsI329
g2
(g3
g4
NtRp923
(dp924
g7
I0
sg8
g284
sg23
g183
sg29
I17
sg30
F18841
sbsI330
g2
(g3
g4
NtRp925
(dp926
g7
I0
sg8
g77
sg23
g144
sg29
I17
sg30
F131589
sbsI331
g2
(g3
g4
NtRp927
(dp928
g7
I0
sg8
g70
sg23
g293
sg29
I17
sg30
F7101
sbsI332
g2
(g3
g4
NtRp929
(dp930
g7
I0
sg8
g235
sg23
g258
sg29
I17
sg30
F19731
sbsI333
g2
(g3
g4
NtRp931
(dp932
g7
I0
sg8
g202
sg23
g96
sg29
I17
sg30
F3942
sbsI334
g2
(g3
g4
NtRp933
(dp934
g7
I0
sg8
g176
sg23
g45
sg29
I17
sg30
F53549
sbsI335
g2
(g3
g4
NtRp935
(dp936
g7
I0
sg8
g202
sg23
g293
sg29
I17
sg30
F3943
sbsI336
g2
(g3
g4
NtRp937
(dp938
g7
I0
sg8
g407
sg23
g51
sg29
I17
sg30
F86366
sbsI337
g2
(g3
g4
NtRp939
(dp940
g7
I0
sg8
g108
sg23
g51
sg29
I17
sg30
F64579
sbsI338
g2
(g3
g4
NtRp941
(dp942
g7
I0
sg8
g132
sg23
g209
sg29
I17
sg30
F588690
sbsI339
g2
(g3
g4
NtRp943
(dp944
g7
I0
sg8
g151
sg23
g197
sg29
I17
sg30
F29250
sbsI340
g2
(g3
g4
NtRp945
(dp946
g7
I0
sg8
g223
sg23
g436
sg29
I17
sg30
F12890
sbsI341
g2
(g3
g4
NtRp947
(dp948
g7
I0
sg8
g38
sg23
g293
sg29
I17
sg30
F17023
sbsI342
g2
(g3
g4
NtRp949
(dp950
g7
I0
sg8
g63
sg23
g258
sg29
I18
sg30
F16376
sbsI343
g2
(g3
g4
NtRp951
(dp952
g7
I0
sg8
g223
sg23
g89
sg29
I18
sg30
F19237
sbsI344
g2
(g3
g4
NtRp953
(dp954
g7
I0
sg8
g249
sg23
g469
sg29
I18
sg30
F60522
sbsI345
g2
(g3
g4
NtRp955
(dp956
g7
I0
sg8
g183
sg23
g113
sg29
I18
sg30
F270304
sbsI346
g2
(g3
g4
NtRp957
(dp958
g7
I0
sg8
g132
sg23
g373
sg29
I18
sg30
F17856
sbsI347
g2
(g3
g4
NtRp959
(dp960
g7
I0
sg8
g96
sg23
g38
sg29
I18
sg30
F96549
sbsI348
g2
(g3
g4
NtRp961
(dp962
g7
I0
sg8
g151
sg23
g33
sg29
I18
sg30
F91723
sbsI349
g2
(g3
g4
NtRp963
(dp964
g7
I0
sg8
g24
sg23
g258
sg29
I18
sg30
F229289
sbsI350
g2
(g3
g4
NtRp965
(dp966
g7
I0
sg8
g228
sg23
g235
sg29
I18
sg30
F7479
sbsI351
g2
(g3
g4
NtRp967
(dp968
g7
I0
sg8
g89
sg23
g33
sg29
I18
sg30
F6815
sbsI352
g2
(g3
g4
NtRp969
(dp970
g7
I0
sg8
g77
sg23
g125
sg29
I18
sg30
F12599
sbsI353
g2
(g3
g4
NtRp971
(dp972
g7
I0
sg8
g137
sg23
g407
sg29
I18
sg30
F34746
sbsI354
g2
(g3
g4
NtRp973
(dp974
g7
I0
sg8
g45
sg23
g265
sg29
I18
sg30
F131678
sbsI355
g2
(g3
g4
NtRp975
(dp976
g7
I0
sg8
g132
sg23
g45
sg29
I18
sg30
F7647
sbsI356
g2
(g3
g4
NtRp977
(dp978
g7
I0
sg8
g325
sg23
g293
sg29
I18
sg30
F15374
sbsI357
g2
(g3
g4
NtRp979
(dp980
g7
I0
sg8
g373
sg23
g160
sg29
I18
sg30
F302875
sbsI358
g2
(g3
g4
NtRp981
(dp982
g7
I0
sg8
g258
sg23
g144
sg29
I18
sg30
F42278
sbsI359
g2
(g3
g4
NtRp983
(dp984
g7
I0
sg8
g176
sg23
g407
sg29
I18
sg30
F12785
sbsI360
g2
(g3
g4
NtRp985
(dp986
g7
I0
sg8
g101
sg23
g151
sg29
I18
sg30
F8715
sbsI361
g2
(g3
g4
NtRp987
(dp988
g7
I0
sg8
g300
sg23
g132
sg29
I19
sg30
F6984
sbsI362
g2
(g3
g4
NtRp989
(dp990
g7
I0
sg8
g171
sg23
g183
sg29
I19
sg30
F8371
sbsI363
g2
(g3
g4
NtRp991
(dp992
g7
I0
sg8
g293
sg23
g235
sg29
I19
sg30
F6845
sbsI364
g2
(g3
g4
NtRp993
(dp994
g7
I0
sg8
g101
sg23
g63
sg29
I19
sg30
F12429
sbsI365
g2
(g3
g4
NtRp995
(dp996
g7
I0
sg8
g51
sg23
g108
sg29
I19
sg30
F10047
sbsI366
g2
(g3
g4
NtRp997
(dp998
g7
I0
sg8
g293
sg23
g400
sg29
I19
sg30
F14977
sbsI367
g2
(g3
g4
NtRp999
(dp1000
g7
I0
sg8
g249
sg23
g160
sg29
I19
sg30
F40410
sbsI368
g2
(g3
g4
NtRp1001
(dp1002
g7
I0
sg8
g265
sg23
g160
sg29
I19
sg30
F10558
sbsI369
g2
(g3
g4
NtRp1003
(dp1004
g7
I0
sg8
g436
sg23
g258
sg29
I19
sg30
F165926
sbsI370
g2
(g3
g4
NtRp1005
(dp1006
g7
I0
sg8
g120
sg23
g400
sg29
I19
sg30
F61204
sbsI371
g2
(g3
g4
NtRp1007
(dp1008
g7
I0
sg8
g258
sg23
g228
sg29
I19
sg30
F24958
sbsI372
g2
(g3
g4
NtRp1009
(dp1010
g7
I0
sg8
g89
sg23
g96
sg29
I19
sg30
F8697
sbsI373
g2
(g3
g4
NtRp1011
(dp1012
g7
I0
sg8
g242
sg23
g125
sg29
I19
sg30
F6432
sbsI374
g2
(g3
g4
NtRp1013
(dp1014
g7
I0
sg8
g223
sg23
g10
sg29
I19
sg30
F83162
sbsI375
g2
(g3
g4
NtRp1015
(dp1016
g7
I0
sg8
g325
sg23
g58
sg29
I19
sg30
F18408
sbsI376
g2
(g3
g4
NtRp1017
(dp1018
g7
I0
sg8
g51
sg23
g214
sg29
I19
sg30
F26314
sbsI377
g2
(g3
g4
NtRp1019
(dp1020
g7
I0
sg8
g284
sg23
g249
sg29
I19
sg30
F61550
sbsI378
g2
(g3
g4
NtRp1021
(dp1022
g7
I0
sg8
g45
sg23
g51
sg29
I19
sg30
F120276
sbsI379
g2
(g3
g4
NtRp1023
(dp1024
g7
I0
sg8
g70
sg23
g84
sg29
I19
sg30
F59828
sbsI380
g2
(g3
g4
NtRp1025
(dp1026
g7
I0
sg8
g190
sg23
g400
sg29
I20
sg30
F20565
sbsI381
g2
(g3
g4
NtRp1027
(dp1028
g7
I0
sg8
g24
sg23
g344
sg29
I20
sg30
F22879
sbsI382
g2
(g3
g4
NtRp1029
(dp1030
g7
I0
sg8
g407
sg23
g469
sg29
I20
sg30
F10944
sbsI383
g2
(g3
g4
NtRp1031
(dp1032
g7
I0
sg8
g373
sg23
g171
sg29
I20
sg30
F97709
sbsI384
g2
(g3
g4
NtRp1033
(dp1034
g7
I0
sg8
g235
sg23
g197
sg29
I20
sg30
F19879
sbsI385
g2
(g3
g4
NtRp1035
(dp1036
g7
I0
sg8
g300
sg23
g171
sg29
I20
sg30
F120588
sbsI386
g2
(g3
g4
NtRp1037
(dp1038
g7
I0
sg8
g284
sg23
g160
sg29
I20
sg30
F57665
sbsI387
g2
(g3
g4
NtRp1039
(dp1040
g7
I0
sg8
g469
sg23
g407
sg29
I20
sg30
F17126
sbsI388
g2
(g3
g4
NtRp1041
(dp1042
g7
I0
sg8
g63
sg23
g293
sg29
I20
sg30
F74965
sbsI389
g2
(g3
g4
NtRp1043
(dp1044
g7
I0
sg8
g176
sg23
g209
sg29
I20
sg30
F10240
sbsI390
g2
(g3
g4
NtRp1045
(dp1046
g7
I0
sg8
g197
sg23
g101
sg29
I20
sg30
F28579
sbsI391
g2
(g3
g4
NtRp1047
(dp1048
g7
I0
sg8
g171
sg23
g160
sg29
I20
sg30
F36010
sbsI392
g2
(g3
g4
NtRp1049
(dp1050
g7
I0
sg8
g70
sg23
g38
sg29
I20
sg30
F32650
sbsI393
g2
(g3
g4
NtRp1051
(dp1052
g7
I0
sg8
g344
sg23
g38
sg29
I20
sg30
F41324
sbsI394
g2
(g3
g4
NtRp1053
(dp1054
g7
I0
sg8
g214
sg23
g373
sg29
I20
sg30
F266870
sbsI395
g2
(g3
g4
NtRp1055
(dp1056
g7
I0
sg8
g84
sg23
g89
sg29
I20
sg30
F62525
sbsI396
g2
(g3
g4
NtRp1057
(dp1058
g7
I0
sg8
g10
sg23
g77
sg29
I20
sg30
F41866
sbsI397
g2
(g3
g4
NtRp1059
(dp1060
g7
I0
sg8
g190
sg23
g58
sg29
I20
sg30
F10682
sbsI398
g2
(g3
g4
NtRp1061
(dp1062
g7
I0
sg8
g214
sg23
g183
sg29
I20
sg30
F10630
sbsI399
g2
(g3
g4
NtRp1063
(dp1064
g7
I0
sg8
g228
sg23
g10
sg29
I21
sg30
F37143
sbsI400
g2
(g3
g4
NtRp1065
(dp1066
g7
I0
sg8
g144
sg23
g293
sg29
I21
sg30
F46187
sbsI401
g2
(g3
g4
NtRp1067
(dp1068
g7
I0
sg8
g176
sg23
g171
sg29
I21
sg30
F8509
sbsI402
g2
(g3
g4
NtRp1069
(dp1070
g7
I0
sg8
g151
sg23
g125
sg29
I21
sg30
F55223
sbsI403
g2
(g3
g4
NtRp1071
(dp1072
g7
I0
sg8
g96
sg23
g151
sg29
I21
sg30
F16848
sbsI404
g2
(g3
g4
NtRp1073
(dp1074
g7
I0
sg8
g108
sg23
g284
sg29
I21
sg30
F10414
sbsI405
g2
(g3
g4
NtRp1075
(dp1076
g7
I0
sg8
g183
sg23
g45
sg29
I21
sg30
F34206
sbsI406
g2
(g3
g4
NtRp1077
(dp1078
g7
I0
sg8
g202
sg23
g101
sg29
I21
sg30
F39625
sbsI407
g2
(g3
g4
NtRp1079
(dp1080
g7
I0
sg8
g96
sg23
g400
sg29
I21
sg30
F8472
sbsI408
g2
(g3
g4
NtRp1081
(dp1082
g7
I0
sg8
g407
sg23
g51
sg29
I21
sg30
F12683
sbsI409
g2
(g3
g4
NtRp1083
(dp1084
g7
I0
sg8
g137
sg23
g183
sg29
I21
sg30
F2877
sbsI410
g2
(g3
g4
NtRp1085
(dp1086
g7
I0
sg8
g101
sg23
g400
sg29
I21
sg30
F18976
sbsI411
g2
(g3
g4
NtRp1087
(dp1088
g7
I0
sg8
g125
sg23
g190
sg29
I21
sg30
F17893
sbsI412
g2
(g3
g4
NtRp1089
(dp1090
g7
I0
sg8
g228
sg23
g325
sg29
I21
sg30
F17985
sbsI413
g2
(g3
g4
NtRp1091
(dp1092
g7
I0
sg8
g77
sg23
g325
sg29
I21
sg30
F65937
sbsI414
g2
(g3
g4
NtRp1093
(dp1094
g7
I0
sg8
g284
sg23
g373
sg29
I21
sg30
F15698
sbsI415
g2
(g3
g4
NtRp1095
(dp1096
g7
I0
sg8
g120
sg23
g144
sg29
I21
sg30
F5125
sbsI416
g2
(g3
g4
NtRp1097
(dp1098
g7
I0
sg8
g235
sg23
g144
sg29
I21
sg30
F3764
sbsI417
g2
(g3
g4
NtRp1099
(dp1100
g7
I0
sg8
g144
sg23
g293
sg29
I21
sg30
F29366
sbsI418
g2
(g3
g4
NtRp1101
(dp1102
g7
I0
sg8
g209
sg23
g171
sg29
I22
sg30
F7820
sbsI419
g2
(g3
g4
NtRp1103
(dp1104
g7
I0
sg8
g373
sg23
g407
sg29
I22
sg30
F52340
sbsI420
g2
(g3
g4
NtRp1105
(dp1106
g7
I0
sg8
g171
sg23
g265
sg29
I22
sg30
F47733
sbsI421
g2
(g3
g4
NtRp1107
(dp1108
g7
I0
sg8
g77
sg23
g24
sg29
I22
sg30
F9428
sbsI422
g2
(g3
g4
NtRp1109
(dp1110
g7
I0
sg8
g151
sg23
g202
sg29
I22
sg30
F27795
sbsI423
g2
(g3
g4
NtRp1111
(dp1112
g7
I0
sg8
g120
sg23
g63
sg29
I22
sg30
F5977
sbsI424
g2
(g3
g4
NtRp1113
(dp1114
g7
I0
sg8
g235
sg23
g89
sg29
I22
sg30
F54692
sbsI425
g2
(g3
g4
NtRp1115
(dp1116
g7
I0
sg8
g38
sg23
g400
sg29
I22
sg30
F45223
sbsI426
g2
(g3
g4
NtRp1117
(dp1118
g7
I0
sg8
g284
sg23
g137
sg29
I22
sg30
F16758
sbsI427
g2
(g3
g4
NtRp1119
(dp1120
g7
I0
sg8
g258
sg23
g436
sg29
I22
sg30
F33539
sbsI428
g2
(g3
g4
NtRp1121
(dp1122
g7
I0
sg8
g197
sg23
g33
sg29
I22
sg30
F14329
sbsI429
g2
(g3
g4
NtRp1123
(dp1124
g7
I0
sg8
g258
sg23
g190
sg29
I22
sg30
F15667
sbsI430
g2
(g3
g4
NtRp1125
(dp1126
g7
I0
sg8
g436
sg23
g24
sg29
I22
sg30
F18485
sbsI431
g2
(g3
g4
NtRp1127
(dp1128
g7
I0
sg8
g325
sg23
g235
sg29
I22
sg30
F4521
sbsI432
g2
(g3
g4
NtRp1129
(dp1130
g7
I0
sg8
g249
sg23
g407
sg29
I22
sg30
F5983
sbsI433
g2
(g3
g4
NtRp1131
(dp1132
g7
I0
sg8
g300
sg23
g407
sg29
I22
sg30
F9527
sbsI434
g2
(g3
g4
NtRp1133
(dp1134
g7
I0
sg8
g70
sg23
g190
sg29
I22
sg30
F12388
sbsI435
g2
(g3
g4
NtRp1135
(dp1136
g7
I0
sg8
g96
sg23
g228
sg29
I22
sg30
F67441
sbsI436
g2
(g3
g4
NtRp1137
(dp1138
g7
I0
sg8
g132
sg23
g407
sg29
I22
sg30
F14573
sbsI437
g2
(g3
g4
NtRp1139
(dp1140
g7
I0
sg8
g108
sg23
g113
sg29
I23
sg30
F27940
sbsI438
g2
(g3
g4
NtRp1141
(dp1142
g7
I0
sg8
g258
sg23
g344
sg29
I23
sg30
F22276
sbsI439
g2
(g3
g4
NtRp1143
(dp1144
g7
I0
sg8
g10
sg23
g223
sg29
I23
sg30
F28176
sbsI440
g2
(g3
g4
NtRp1145
(dp1146
g7
I0
sg8
g214
sg23
g209
sg29
I23
sg30
F26435
sbsI441
g2
(g3
g4
NtRp1147
(dp1148
g7
I0
sg8
g108
sg23
g183
sg29
I23
sg30
F55469
sbsI442
g2
(g3
g4
NtRp1149
(dp1150
g7
I0
sg8
g284
sg23
g160
sg29
I23
sg30
F37364
sbsI443
g2
(g3
g4
NtRp1151
(dp1152
g7
I0
sg8
g58
sg23
g258
sg29
I23
sg30
F8813
sbsI444
g2
(g3
g4
NtRp1153
(dp1154
g7
I0
sg8
g249
sg23
g284
sg29
I23
sg30
F12013
sbsI445
g2
(g3
g4
NtRp1155
(dp1156
g7
I0
sg8
g202
sg23
g228
sg29
I23
sg30
F57906
sbsI446
g2
(g3
g4
NtRp1157
(dp1158
g7
I0
sg8
g176
sg23
g108
sg29
I23
sg30
F34092
sbsI447
g2
(g3
g4
NtRp1159
(dp1160
g7
I0
sg8
g84
sg23
g190
sg29
I23
sg30
F47392
sbsI448
g2
(g3
g4
NtRp1161
(dp1162
g7
I0
sg8
g144
sg23
g70
sg29
I23
sg30
F223584
sbsI449
g2
(g3
g4
NtRp1163
(dp1164
g7
I0
sg8
g101
sg23
g228
sg29
I23
sg30
F20254
sbsI450
g2
(g3
g4
NtRp1165
(dp1166
g7
I0
sg8
g125
sg23
g197
sg29
I23
sg30
F10612
sbsI451
g2
(g3
g4
NtRp1167
(dp1168
g7
I0
sg8
g101
sg23
g58
sg29
I23
sg30
F15529
sbsI452
g2
(g3
g4
NtRp1169
(dp1170
g7
I0
sg8
g132
sg23
g160
sg29
I23
sg30
F15786
sbsI453
g2
(g3
g4
NtRp1171
(dp1172
g7
I0
sg8
g183
sg23
g51
sg29
I23
sg30
F60515
sbsI454
g2
(g3
g4
NtRp1173
(dp1174
g7
I0
sg8
g300
sg23
g183
sg29
I23
sg30
F80522
sbsI455
g2
(g3
g4
NtRp1175
(dp1176
g7
I0
sg8
g151
sg23
g400
sg29
I23
sg30
F33711
sbsI456
g2
(g3
g4
NtRp1177
(dp1178
g7
I0
sg8
g197
sg23
g24
sg29
I24
sg30
F37710
sbsI457
g2
(g3
g4
NtRp1179
(dp1180
g7
I0
sg8
g108
sg23
g284
sg29
I24
sg30
F6758
sbsI458
g2
(g3
g4
NtRp1181
(dp1182
g7
I0
sg8
g24
sg23
g242
sg29
I24
sg30
F42612
sbsI459
g2
(g3
g4
NtRp1183
(dp1184
g7
I0
sg8
g469
sg23
g113
sg29
I24
sg30
F9271
sbsI460
g2
(g3
g4
NtRp1185
(dp1186
g7
I0
sg8
g242
sg23
g325
sg29
I24
sg30
F27978
sbsI461
g2
(g3
g4
NtRp1187
(dp1188
g7
I0
sg8
g33
sg23
g325
sg29
I24
sg30
F33474
sbsI462
g2
(g3
g4
NtRp1189
(dp1190
g7
I0
sg8
g176
sg23
g113
sg29
I24
sg30
F20937
sbsI463
g2
(g3
g4
NtRp1191
(dp1192
g7
I0
sg8
g45
sg23
g300
sg29
I24
sg30
F34245
sbsI464
g2
(g3
g4
NtRp1193
(dp1194
g7
I0
sg8
g183
sg23
g300
sg29
I24
sg30
F5131
sbsI465
g2
(g3
g4
NtRp1195
(dp1196
g7
I0
sg8
g137
sg23
g160
sg29
I24
sg30
F210677
sbsI466
g2
(g3
g4
NtRp1197
(dp1198
g7
I0
sg8
g235
sg23
g228
sg29
I24
sg30
F21206
sbsI467
g2
(g3
g4
NtRp1199
(dp1200
g7
I0
sg8
g132
sg23
g249
sg29
I24
sg30
F67124
sbsI468
g2
(g3
g4
NtRp1201
(dp1202
g7
I0
sg8
g125
sg23
g436
sg29
I24
sg30
F16672
sbsI469
g2
(g3
g4
NtRp1203
(dp1204
g7
I0
sg8
g228
sg23
g101
sg29
I24
sg30
F44315
sbsI470
g2
(g3
g4
NtRp1205
(dp1206
g7
I0
sg8
g160
sg23
g249
sg29
I24
sg30
F32820
sbsI471
g2
(g3
g4
NtRp1207
(dp1208
g7
I0
sg8
g58
sg23
g125
sg29
I24
sg30
F14004
sbsI472
g2
(g3
g4
NtRp1209
(dp1210
g7
I0
sg8
g325
sg23
g197
sg29
I24
sg30
F43701
sbsI473
g2
(g3
g4
NtRp1211
(dp1212
g7
I0
sg8
g209
sg23
g176
sg29
I24
sg30
F72777
sbsI474
g2
(g3
g4
NtRp1213
(dp1214
g7
I0
sg8
g202
sg23
g77
sg29
I24
sg30
F23268
sbsI475
g2
(g3
g4
NtRp1215
(dp1216
g7
I0
sg8
g249
sg23
g373
sg29
I25
sg30
F39682
sbsI476
g2
(g3
g4
NtRp1217
(dp1218
g7
I0
sg8
g10
sg23
g400
sg29
I25
sg30
F24747
sbsI477
g2
(g3
g4
NtRp1219
(dp1220
g7
I0
sg8
g51
sg23
g407
sg29
I25
sg30
F9148
sbsI478
g2
(g3
g4
NtRp1221
(dp1222
g7
I0
sg8
g400
sg23
g202
sg29
I25
sg30
F24364
sbsI479
g2
(g3
g4
NtRp1223
(dp1224
g7
I0
sg8
g190
sg23
g58
sg29
I25
sg30
F9960
sbsI480
g2
(g3
g4
NtRp1225
(dp1226
g7
I0
sg8
g96
sg23
g293
sg29
I25
sg30
F2936
sbsI481
g2
(g3
g4
NtRp1227
(dp1228
g7
I0
sg8
g24
sg23
g101
sg29
I25
sg30
F89520
sbsI482
g2
(g3
g4
NtRp1229
(dp1230
g7
I0
sg8
g51
sg23
g171
sg29
I25
sg30
F5683
sbsI483
g2
(g3
g4
NtRp1231
(dp1232
g7
I0
sg8
g344
sg23
g24
sg29
I25
sg30
F53506
sbsI484
g2
(g3
g4
NtRp1233
(dp1234
g7
I0
sg8
g476
sg23
g325
sg29
I25
sg30
F25080
sbsI485
g2
(g3
g4
NtRp1235
(dp1236
g7
I0
sg8
g70
sg23
g400
sg29
I25
sg30
F42206
sbsI486
g2
(g3
g4
NtRp1237
(dp1238
g7
I0
sg8
g469
sg23
g407
sg29
I25
sg30
F40776
sbsI487
g2
(g3
g4
NtRp1239
(dp1240
g7
I0
sg8
g293
sg23
g70
sg29
I25
sg30
F50252
sbsI488
g2
(g3
g4
NtRp1241
(dp1242
g7
I0
sg8
g407
sg23
g176
sg29
I25
sg30
F88865
sbsI489
g2
(g3
g4
NtRp1243
(dp1244
g7
I0
sg8
g70
sg23
g325
sg29
I25
sg30
F26279
sbsI490
g2
(g3
g4
NtRp1245
(dp1246
g7
I0
sg8
g38
sg23
g10
sg29
I25
sg30
F24907
sbsI491
g2
(g3
g4
NtRp1247
(dp1248
g7
I0
sg8
g258
sg23
g70
sg29
I25
sg30
F24733
sbsI492
g2
(g3
g4
NtRp1249
(dp1250
g7
I0
sg8
g209
sg23
g300
sg29
I25
sg30
F9420
sbsI493
g2
(g3
g4
NtRp1251
(dp1252
g7
I0
sg8
g293
sg23
g344
sg29
I25
sg30
F7792
sbsI494
g2
(g3
g4
NtRp1253
(dp1254
g7
I0
sg8
g63
sg23
g77
sg29
I26
sg30
F108694
sbsI495
g2
(g3
g4
NtRp1255
(dp1256
g7
I0
sg8
g137
sg23
g45
sg29
I26
sg30
F34464
sbsI496
g2
(g3
g4
NtRp1257
(dp1258
g7
I0
sg8
g214
sg23
g469
sg29
I26
sg30
F12746
sbsI497
g2
(g3
g4
NtRp1259
(dp1260
g7
I0
sg8
g96
sg23
g77
sg29
I26
sg30
F8604
sbsI498
g2
(g3
g4
NtRp1261
(dp1262
g7
I0
sg8
g469
sg23
g51
sg29
I26
sg30
F16492
sbsI499
g2
(g3
g4
NtRp1263
(dp1264
g7
I0
sg8
g242
sg23
g96
sg29
I26
sg30
F3897
sbsI500
g2
(g3
g4
NtRp1265
(dp1266
g7
I0
sg8
g120
sg23
g144
sg29
I26
sg30
F22540
sbsI501
g2
(g3
g4
NtRp1267
(dp1268
g7
I0
sg8
g469
sg23
g160
sg29
I26
sg30
F2674
sbsI502
g2
(g3
g4
NtRp1269
(dp1270
g7
I0
sg8
g63
sg23
g190
sg29
I26
sg30
F99597
sbsI503
g2
(g3
g4
NtRp1271
(dp1272
g7
I0
sg8
g197
sg23
g344
sg29
I26
sg30
F4843
sbsI504
g2
(g3
g4
NtRp1273
(dp1274
g7
I0
sg8
g293
sg23
g84
sg29
I26
sg30
F16001
sbsI505
g2
(g3
g4
NtRp1275
(dp1276
g7
I0
sg8
g300
sg23
g137
sg29
I26
sg30
F25184
sbsI506
g2
(g3
g4
NtRp1277
(dp1278
g7
I0
sg8
g10
sg23
g190
sg29
I26
sg30
F26763
sbsI507
g2
(g3
g4
NtRp1279
(dp1280
g7
I0
sg8
g293
sg23
g63
sg29
I26
sg30
F33857
sbsI508
g2
(g3
g4
NtRp1281
(dp1282
g7
I0
sg8
g120
sg23
g77
sg29
I26
sg30
F6586
sbsI509
g2
(g3
g4
NtRp1283
(dp1284
g7
I0
sg8
g70
sg23
g89
sg29
I26
sg30
F15384
sbsI510
g2
(g3
g4
NtRp1285
(dp1286
g7
I0
sg8
g51
sg23
g113
sg29
I26
sg30
F31940
sbsI511
g2
(g3
g4
NtRp1287
(dp1288
g7
I0
sg8
g400
sg23
g120
sg29
I26
sg30
F30875
sbsI512
g2
(g3
g4
NtRp1289
(dp1290
g7
I0
sg8
g190
sg23
g89
sg29
I26
sg30
F4157
sbsI513
g2
(g3
g4
NtRp1291
(dp1292
g7
I0
sg8
g293
sg23
g10
sg29
I27
sg30
F7561
sbsI514
g2
(g3
g4
NtRp1293
(dp1294
g7
I0
sg8
g436
sg23
g235
sg29
I27
sg30
F7889
sbsI515
g2
(g3
g4
NtRp1295
(dp1296
g7
I0
sg8
g33
sg23
g223
sg29
I27
sg30
F38411
sbsI516
g2
(g3
g4
NtRp1297
(dp1298
g7
I0
sg8
g38
sg23
g400
sg29
I27
sg30
F151217
sbsI517
g2
(g3
g4
NtRp1299
(dp1300
g7
I0
sg8
g407
sg23
g300
sg29
I27
sg30
F3507
sbsI518
g2
(g3
g4
NtRp1301
(dp1302
g7
I0
sg8
g284
sg23
g137
sg29
I27
sg30
F19800
sbsI519
g2
(g3
g4
NtRp1303
(dp1304
g7
I0
sg8
g96
sg23
g125
sg29
I27
sg30
F37417
sbsI520
g2
(g3
g4
NtRp1305
(dp1306
g7
I0
sg8
g84
sg23
g197
sg29
I27
sg30
F50648
sbsI521
g2
(g3
g4
NtRp1307
(dp1308
g7
I0
sg8
g407
sg23
g45
sg29
I27
sg30
F94450
sbsI522
g2
(g3
g4
NtRp1309
(dp1310
g7
I0
sg8
g235
sg23
g33
sg29
I27
sg30
F34386
sbsI523
g2
(g3
g4
NtRp1311
(dp1312
g7
I0
sg8
g51
sg23
g249
sg29
I27
sg30
F10790
sbsI524
g2
(g3
g4
NtRp1313
(dp1314
g7
I0
sg8
g144
sg23
g38
sg29
I27
sg30
F48806
sbsI525
g2
(g3
g4
NtRp1315
(dp1316
g7
I0
sg8
g151
sg23
g24
sg29
I27
sg30
F21210
sbsI526
g2
(g3
g4
NtRp1317
(dp1318
g7
I0
sg8
g344
sg23
g476
sg29
I27
sg30
F9639
sbsI527
g2
(g3
g4
NtRp1319
(dp1320
g7
I0
sg8
g10
sg23
g476
sg29
I27
sg30
F33415
sbsI528
g2
(g3
g4
NtRp1321
(dp1322
g7
I0
sg8
g183
sg23
g113
sg29
I27
sg30
F8741
sbsI529
g2
(g3
g4
NtRp1323
(dp1324
g7
I0
sg8
g58
sg23
g235
sg29
I27
sg30
F17392
sbsI530
g2
(g3
g4
NtRp1325
(dp1326
g7
I0
sg8
g101
sg23
g344
sg29
I27
sg30
F21608
sbsI531
g2
(g3
g4
NtRp1327
(dp1328
g7
I0
sg8
g38
sg23
g70
sg29
I27
sg30
F13597
sbsI532
g2
(g3
g4
NtRp1329
(dp1330
g7
I0
sg8
g70
sg23
g120
sg29
I28
sg30
F31789
sbsI533
g2
(g3
g4
NtRp1331
(dp1332
g7
I0
sg8
g209
sg23
g300
sg29
I28
sg30
F65731
sbsI534
g2
(g3
g4
NtRp1333
(dp1334
g7
I0
sg8
g373
sg23
g108
sg29
I28
sg30
F54045
sbsI535
g2
(g3
g4
NtRp1335
(dp1336
g7
I0
sg8
g84
sg23
g24
sg29
I28
sg30
F3591
sbsI536
g2
(g3
g4
NtRp1337
(dp1338
g7
I0
sg8
g160
sg23
g407
sg29
I28
sg30
F42686
sbsI537
g2
(g3
g4
NtRp1339
(dp1340
g7
I0
sg8
g120
sg23
g24
sg29
I28
sg30
F20277
sbsI538
g2
(g3
g4
NtRp1341
(dp1342
g7
I0
sg8
g24
sg23
g63
sg29
I28
sg30
F31054
sbsI539
g2
(g3
g4
NtRp1343
(dp1344
g7
I0
sg8
g258
sg23
g96
sg29
I28
sg30
F9882
sbsI540
g2
(g3
g4
NtRp1345
(dp1346
g7
I0
sg8
g344
sg23
g228
sg29
I28
sg30
F33460
sbsI541
g2
(g3
g4
NtRp1347
(dp1348
g7
I0
sg8
g235
sg23
g10
sg29
I28
sg30
F4042
sbsI542
g2
(g3
g4
NtRp1349
(dp1350
g7
I0
sg8
g249
sg23
g300
sg29
I28
sg30
F125864
sbsI543
g2
(g3
g4
NtRp1351
(dp1352
g7
I0
sg8
g202
sg23
g190
sg29
I28
sg30
F8123
sbsI544
g2
(g3
g4
NtRp1353
(dp1354
g7
I0
sg8
g373
sg23
g183
sg29
I28
sg30
F136295
sbsI545
g2
(g3
g4
NtRp1355
(dp1356
g7
I0
sg8
g24
sg23
g58
sg29
I28
sg30
F11240
sbsI546
g2
(g3
g4
NtRp1357
(dp1358
g7
I0
sg8
g344
sg23
g70
sg29
I28
sg30
F7543
sbsI547
g2
(g3
g4
NtRp1359
(dp1360
g7
I0
sg8
g132
sg23
g45
sg29
I28
sg30
F41738
sbsI548
g2
(g3
g4
NtRp1361
(dp1362
g7
I0
sg8
g125
sg23
g58
sg29
I28
sg30
F113527
sbsI549
g2
(g3
g4
NtRp1363
(dp1364
g7
I0
sg8
g38
sg23
g400
sg29
I28
sg30
F21255
sbsI550
g2
(g3
g4
NtRp1365
(dp1366
g7
I0
sg8
g70
sg23
g151
sg29
I28
sg30
F6180
sbsI551
g2
(g3
g4
NtRp1367
(dp1368
g7
I0
sg8
g300
sg23
g284
sg29
I29
sg30
F44913
sbsI552
g2
(g3
g4
NtRp1369
(dp1370
g7
I0
sg8
g197
sg23
g10
sg29
I29
sg30
F47955
sbsI553
g2
(g3
g4
NtRp1371
(dp1372
g7
I0
sg8
g258
sg23
g476
sg29
I29
sg30
F18048
sbsI554
g2
(g3
g4
NtRp1373
(dp1374
g7
I0
sg8
g190
sg23
g33
sg29
I29
sg30
F7176
sbsI555
g2
(g3
g4
NtRp1375
(dp1376
g7
I0
sg8
g400
sg23
g144
sg29
I29
sg30
F76890
sbsI556
g2
(g3
g4
NtRp1377
(dp1378
g7
I0
sg8
g24
sg23
g190
sg29
I29
sg30
F101145
sbsI557
g2
(g3
g4
NtRp1379
(dp1380
g7
I0
sg8
g214
sg23
g265
sg29
I29
sg30
F52887
sbsI558
g2
(g3
g4
NtRp1381
(dp1382
g7
I0
sg8
g258
sg23
g400
sg29
I29
sg30
F73049
sbsI559
g2
(g3
g4
NtRp1383
(dp1384
g7
I0
sg8
g51
sg23
g176
sg29
I29
sg30
F27226
sbsI560
g2
(g3
g4
NtRp1385
(dp1386
g7
I0
sg8
g137
sg23
g300
sg29
I29
sg30
F141350
sbsI561
g2
(g3
g4
NtRp1387
(dp1388
g7
I0
sg8
g242
sg23
g125
sg29
I29
sg30
F77638
sbsI562
g2
(g3
g4
NtRp1389
(dp1390
g7
I0
sg8
g96
sg23
g125
sg29
I29
sg30
F3946
sbsI563
g2
(g3
g4
NtRp1391
(dp1392
g7
I0
sg8
g293
sg23
g190
sg29
I29
sg30
F11709
sbsI564
g2
(g3
g4
NtRp1393
(dp1394
g7
I0
sg8
g45
sg23
g132
sg29
I29
sg30
F19153
sbsI565
g2
(g3
g4
NtRp1395
(dp1396
g7
I0
sg8
g284
sg23
g137
sg29
I29
sg30
F19856
sbsI566
g2
(g3
g4
NtRp1397
(dp1398
g7
I0
sg8
g120
sg23
g96
sg29
I29
sg30
F38163
sbsI567
g2
(g3
g4
NtRp1399
(dp1400
g7
I0
sg8
g284
sg23
g132
sg29
I29
sg30
F17137
sbsI568
g2
(g3
g4
NtRp1401
(dp1402
g7
I0
sg8
g70
sg23
g344
sg29
I29
sg30
F33105
sbsI569
g2
(g3
g4
NtRp1403
(dp1404
g7
I0
sg8
g176
sg23
g407
sg29
I29
sg30
F9445
sbsI570
g2
(g3
g4
NtRp1405
(dp1406
g7
I0
sg8
g373
sg23
g284
sg29
I30
sg30
F90395
sbsI571
g2
(g3
g4
NtRp1407
(dp1408
g7
I0
sg8
g325
sg23
g70
sg29
I30
sg30
F2832
sbsI572
g2
(g3
g4
NtRp1409
(dp1410
g7
I0
sg8
g96
sg23
g228
sg29
I30
sg30
F73415
sbsI573
g2
(g3
g4
NtRp1411
(dp1412
g7
I0
sg8
g120
sg23
g325
sg29
I30
sg30
F13722
sbsI574
g2
(g3
g4
NtRp1413
(dp1414
g7
I0
sg8
g151
sg23
g77
sg29
I30
sg30
F18049
sbsI575
g2
(g3
g4
NtRp1415
(dp1416
g7
I0
sg8
g469
sg23
g214
sg29
I30
sg30
F20814
sbsI576
g2
(g3
g4
NtRp1417
(dp1418
g7
I0
sg8
g84
sg23
g344
sg29
I30
sg30
F191086
sbsI577
g2
(g3
g4
NtRp1419
(dp1420
g7
I0
sg8
g209
sg23
g45
sg29
I30
sg30
F18525
sbsI578
g2
(g3
g4
NtRp1421
(dp1422
g7
I0
sg8
g202
sg23
g10
sg29
I30
sg30
F52195
sbsI579
g2
(g3
g4
NtRp1423
(dp1424
g7
I0
sg8
g38
sg23
g202
sg29
I30
sg30
F4175
sbsI580
g2
(g3
g4
NtRp1425
(dp1426
g7
I0
sg8
g137
sg23
g373
sg29
I30
sg30
F49704
sbsI581
g2
(g3
g4
NtRp1427
(dp1428
g7
I0
sg8
g407
sg23
g265
sg29
I30
sg30
F19310
sbsI582
g2
(g3
g4
NtRp1429
(dp1430
g7
I0
sg8
g190
sg23
g101
sg29
I30
sg30
F85219
sbsI583
g2
(g3
g4
NtRp1431
(dp1432
g7
I0
sg8
g63
sg23
g197
sg29
I30
sg30
F5920
sbsI584
g2
(g3
g4
NtRp1433
(dp1434
g7
I0
sg8
g132
sg23
g160
sg29
I30
sg30
F18368
sbsI585
g2
(g3
g4
NtRp1435
(dp1436
g7
I0
sg8
g101
sg23
g197
sg29
I30
sg30
F5060
sbsI586
g2
(g3
g4
NtRp1437
(dp1438
g7
I0
sg8
g45
sg23
g51
sg29
I30
sg30
F20207
sbsI587
g2
(g3
g4
NtRp1439
(dp1440
g7
I0
sg8
g77
sg23
g58
sg29
I30
sg30
F40357
sbsI588
g2
(g3
g4
NtRp1441
(dp1442
g7
I0
sg8
g171
sg23
g137
sg29
I30
sg30
F45190
sbsI589
g2
(g3
g4
NtRp1443
(dp1444
g7
I0
sg8
g84
sg23
g89
sg29
I31
sg30
F19143
sbsI590
g2
(g3
g4
NtRp1445
(dp1446
g7
I0
sg8
g214
sg23
g160
sg29
I31
sg30
F30254
sbsI591
g2
(g3
g4
NtRp1447
(dp1448
g7
I0
sg8
g202
sg23
g197
sg29
I31
sg30
F8141
sbsI592
g2
(g3
g4
NtRp1449
(dp1450
g7
I0
sg8
g223
sg23
g242
sg29
I31
sg30
F16640
sbsI593
g2
(g3
g4
NtRp1451
(dp1452
g7
I0
sg8
g70
sg23
g258
sg29
I31
sg30
F11393
sbsI594
g2
(g3
g4
NtRp1453
(dp1454
g7
I0
sg8
g160
sg23
g183
sg29
I31
sg30
F22108
sbsI595
g2
(g3
g4
NtRp1455
(dp1456
g7
I0
sg8
g77
sg23
g293
sg29
I31
sg30
F6109
sbsI596
g2
(g3
g4
NtRp1457
(dp1458
g7
I0
sg8
g293
sg23
g436
sg29
I31
sg30
F50676
sbsI597
g2
(g3
g4
NtRp1459
(dp1460
g7
I0
sg8
g38
sg23
g344
sg29
I31
sg30
F22370
sbsI598
g2
(g3
g4
NtRp1461
(dp1462
g7
I0
sg8
g223
sg23
g344
sg29
I31
sg30
F53419
sbsI599
g2
(g3
g4
NtRp1463
(dp1464
g7
I0
sg8
g344
sg23
g223
sg29
I31
sg30
F20451
sbsI600
g2
(g3
g4
NtRp1465
(dp1466
g7
I0
sg8
g400
sg23
g344
sg29
I31
sg30
F10263
sbsI601
g2
(g3
g4
NtRp1467
(dp1468
g7
I0
sg8
g183
sg23
g160
sg29
I31
sg30
F120933
sbsI602
g2
(g3
g4
NtRp1469
(dp1470
g7
I0
sg8
g89
sg23
g436
sg29
I31
sg30
F16009
sbsI603
g2
(g3
g4
NtRp1471
(dp1472
g7
I0
sg8
g228
sg23
g190
sg29
I31
sg30
F40262
sbsI604
g2
(g3
g4
NtRp1473
(dp1474
g7
I0
sg8
g373
sg23
g209
sg29
I31
sg30
F44760
sbsI605
g2
(g3
g4
NtRp1475
(dp1476
g7
I0
sg8
g223
sg23
g89
sg29
I31
sg30
F21606
sbsI606
g2
(g3
g4
NtRp1477
(dp1478
g7
I0
sg8
g242
sg23
g58
sg29
I31
sg30
F14778
sbsI607
g2
(g3
g4
NtRp1479
(dp1480
g7
I0
sg8
g45
sg23
g407
sg29
I31
sg30
F17085
sbsI608
g2
(g3
g4
NtRp1481
(dp1482
g7
I0
sg8
g183
sg23
g132
sg29
I32
sg30
F4906
sbsI609
g2
(g3
g4
NtRp1483
(dp1484
g7
I0
sg8
g132
sg23
g171
sg29
I32
sg30
F6707
sbsI610
g2
(g3
g4
NtRp1485
(dp1486
g7
I0
sg8
g151
sg23
g344
sg29
I32
sg30
F17863
sbsI611
g2
(g3
g4
NtRp1487
(dp1488
g7
I0
sg8
g183
sg23
g469
sg29
I32
sg30
F28162
sbsI612
g2
(g3
g4
NtRp1489
(dp1490
g7
I0
sg8
g77
sg23
g58
sg29
I32
sg30
F64212
sbsI613
g2
(g3
g4
NtRp1491
(dp1492
g7
I0
sg8
g476
sg23
g125
sg29
I32
sg30
F8253
sbsI614
g2
(g3
g4
NtRp1493
(dp1494
g7
I0
sg8
g202
sg23
g77
sg29
I32
sg30
F11053
sbsI615
g2
(g3
g4
NtRp1495
(dp1496
g7
I0
sg8
g144
sg23
g344
sg29
I32
sg30
F96730
sbsI616
g2
(g3
g4
NtRp1497
(dp1498
g7
I0
sg8
g325
sg23
g344
sg29
I32
sg30
F97240
sbsI617
g2
(g3
g4
NtRp1499
(dp1500
g7
I0
sg8
g70
sg23
g125
sg29
I32
sg30
F3917
sbsI618
g2
(g3
g4
NtRp1501
(dp1502
g7
I0
sg8
g137
sg23
g300
sg29
I32
sg30
F16281
sbsI619
g2
(g3
g4
NtRp1503
(dp1504
g7
I0
sg8
g183
sg23
g113
sg29
I32
sg30
F36312
sbsI620
g2
(g3
g4
NtRp1505
(dp1506
g7
I0
sg8
g258
sg23
g120
sg29
I32
sg30
F54427
sbsI621
g2
(g3
g4
NtRp1507
(dp1508
g7
I0
sg8
g190
sg23
g120
sg29
I32
sg30
F172389
sbsI622
g2
(g3
g4
NtRp1509
(dp1510
g7
I0
sg8
g249
sg23
g171
sg29
I32
sg30
F28531
sbsI623
g2
(g3
g4
NtRp1511
(dp1512
g7
I0
sg8
g407
sg23
g45
sg29
I32
sg30
F66054
sbsI624
g2
(g3
g4
NtRp1513
(dp1514
g7
I0
sg8
g108
sg23
g300
sg29
I32
sg30
F52150
sbsI625
g2
(g3
g4
NtRp1515
(dp1516
g7
I0
sg8
g300
sg23
g214
sg29
I32
sg30
F17693
sbsI626
g2
(g3
g4
NtRp1517
(dp1518
g7
I0
sg8
g45
sg23
g132
sg29
I32
sg30
F9007
sbsI627
g2
(g3
g4
NtRp1519
(dp1520
g7
I0
sg8
g96
sg23
g33
sg29
I33
sg30
F9477
sbsI628
g2
(g3
g4
NtRp1521
(dp1522
g7
I0
sg8
g469
sg23
g249
sg29
I33
sg30
F130746
sbsI629
g2
(g3
g4
NtRp1523
(dp1524
g7
I0
sg8
g33
sg23
g125
sg29
I33
sg30
F21149
sbsI630
g2
(g3
g4
NtRp1525
(dp1526
g7
I0
sg8
g96
sg23
g242
sg29
I33
sg30
F48146
sbsI631
g2
(g3
g4
NtRp1527
(dp1528
g7
I0
sg8
g197
sg23
g293
sg29
I33
sg30
F15909
sbsI632
g2
(g3
g4
NtRp1529
(dp1530
g7
I0
sg8
g144
sg23
g101
sg29
I33
sg30
F52930
sbsI633
g2
(g3
g4
NtRp1531
(dp1532
g7
I0
sg8
g108
sg23
g171
sg29
I33
sg30
F22202
sbsI634
g2
(g3
g4
NtRp1533
(dp1534
g7
I0
sg8
g58
sg23
g400
sg29
I33
sg30
F29698
sbsI635
g2
(g3
g4
NtRp1535
(dp1536
g7
I0
sg8
g400
sg23
g344
sg29
I33
sg30
F14654
sbsI636
g2
(g3
g4
NtRp1537
(dp1538
g7
I0
sg8
g242
sg23
g228
sg29
I33
sg30
F83292
sbsI637
g2
(g3
g4
NtRp1539
(dp1540
g7
I0
sg8
g51
sg23
g209
sg29
I33
sg30
F39924
sbsI638
g2
(g3
g4
NtRp1541
(dp1542
g7
I0
sg8
g436
sg23
g144
sg29
I33
sg30
F44155
sbsI639
g2
(g3
g4
NtRp1543
(dp1544
g7
I0
sg8
g96
sg23
g58
sg29
I33
sg30
F40517
sbsI640
g2
(g3
g4
NtRp1545
(dp1546
g7
I0
sg8
g325
sg23
g77
sg29
I33
sg30
F74087
sbsI641
g2
(g3
g4
NtRp1547
(dp1548
g7
I0
sg8
g151
sg23
g476
sg29
I33
sg30
F29786
sbsI642
g2
(g3
g4
NtRp1549
(dp1550
g7
I0
sg8
g171
sg23
g265
sg29
I33
sg30
F27625
sbsI643
g2
(g3
g4
NtRp1551
(dp1552
g7
I0
sg8
g183
sg23
g265
sg29
I33
sg30
F10576
sbsI644
g2
(g3
g4
NtRp1553
(dp1554
g7
I0
sg8
g84
sg23
g476
sg29
I33
sg30
F14844
sbsI645
g2
(g3
g4
NtRp1555
(dp1556
g7
I0
sg8
g10
sg23
g242
sg29
I33
sg30
F8100
sbsI646
g2
(g3
g4
NtRp1557
(dp1558
g7
I0
sg8
g197
sg23
g58
sg29
I34
sg30
F32034
sbsI647
g2
(g3
g4
NtRp1559
(dp1560
g7
I0
sg8
g325
sg23
g202
sg29
I34
sg30
F42347
sbsI648
g2
(g3
g4
NtRp1561
(dp1562
g7
I0
sg8
g249
sg23
g214
sg29
I34
sg30
F17651
sbsI649
g2
(g3
g4
NtRp1563
(dp1564
g7
I0
sg8
g407
sg23
g249
sg29
I34
sg30
F28068
sbsI650
g2
(g3
g4
NtRp1565
(dp1566
g7
I0
sg8
g70
sg23
g190
sg29
I34
sg30
F9571
sbsI651
g2
(g3
g4
NtRp1567
(dp1568
g7
I0
sg8
g242
sg23
g10
sg29
I34
sg30
F2813
sbsI652
g2
(g3
g4
NtRp1569
(dp1570
g7
I0
sg8
g38
sg23
g223
sg29
I34
sg30
F20728
sbsI653
g2
(g3
g4
NtRp1571
(dp1572
g7
I0
sg8
g108
sg23
g284
sg29
I34
sg30
F174548
sbsI654
g2
(g3
g4
NtRp1573
(dp1574
g7
I0
sg8
g249
sg23
g284
sg29
I34
sg30
F15230
sbsI655
g2
(g3
g4
NtRp1575
(dp1576
g7
I0
sg8
g108
sg23
g113
sg29
I34
sg30
F16696
sbsI656
g2
(g3
g4
NtRp1577
(dp1578
g7
I0
sg8
g190
sg23
g228
sg29
I34
sg30
F11130
sbsI657
g2
(g3
g4
NtRp1579
(dp1580
g7
I0
sg8
g63
sg23
g436
sg29
I34
sg30
F10397
sbsI658
g2
(g3
g4
NtRp1581
(dp1582
g7
I0
sg8
g183
sg23
g113
sg29
I34
sg30
F25643
sbsI659
g2
(g3
g4
NtRp1583
(dp1584
g7
I0
sg8
g38
sg23
g197
sg29
I34
sg30
F18628
sbsI660
g2
(g3
g4
NtRp1585
(dp1586
g7
I0
sg8
g300
sg23
g249
sg29
I34
sg30
F27363
sbsI661
g2
(g3
g4
NtRp1587
(dp1588
g7
I0
sg8
g51
sg23
g132
sg29
I34
sg30
F7508
sbsI662
g2
(g3
g4
NtRp1589
(dp1590
g7
I0
sg8
g176
sg23
g469
sg29
I34
sg30
F9889
sbsI663
g2
(g3
g4
NtRp1591
(dp1592
g7
I0
sg8
g132
sg23
g176
sg29
I34
sg30
F19591
sbsI664
g2
(g3
g4
NtRp1593
(dp1594
g7
I0
sg8
g176
sg23
g113
sg29
I34
sg30
F5723
sbsI665
g2
(g3
g4
NtRp1595
(dp1596
g7
I0
sg8
g144
sg23
g293
sg29
I35
sg30
F31147
sbsI666
g2
(g3
g4
NtRp1597
(dp1598
g7
I0
sg8
g235
sg23
g344
sg29
I35
sg30
F10067
sbsI667
g2
(g3
g4
NtRp1599
(dp1600
g7
I0
sg8
g293
sg23
g202
sg29
I35
sg30
F120136
sbsI668
g2
(g3
g4
NtRp1601
(dp1602
g7
I0
sg8
g38
sg23
g33
sg29
I35
sg30
F2617
sbsI669
g2
(g3
g4
NtRp1603
(dp1604
g7
I0
sg8
g58
sg23
g84
sg29
I35
sg30
F70194
sbsI670
g2
(g3
g4
NtRp1605
(dp1606
g7
I0
sg8
g373
sg23
g183
sg29
I35
sg30
F14134
sbsI671
g2
(g3
g4
NtRp1607
(dp1608
g7
I0
sg8
g228
sg23
g96
sg29
I35
sg30
F15192
sbsI672
g2
(g3
g4
NtRp1609
(dp1610
g7
I0
sg8
g325
sg23
g24
sg29
I35
sg30
F75214
sbsI673
g2
(g3
g4
NtRp1611
(dp1612
g7
I0
sg8
g33
sg23
g223
sg29
I35
sg30
F23936
sbsI674
g2
(g3
g4
NtRp1613
(dp1614
g7
I0
sg8
g183
sg23
g171
sg29
I35
sg30
F41596
sbsI675
g2
(g3
g4
NtRp1615
(dp1616
g7
I0
sg8
g160
sg23
g373
sg29
I35
sg30
F4485
sbsI676
g2
(g3
g4
NtRp1617
(dp1618
g7
I0
sg8
g235
sg23
g242
sg29
I35
sg30
F16364
sbsI677
g2
(g3
g4
NtRp1619
(dp1620
g7
I0
sg8
g10
sg23
g228
sg29
I35
sg30
F11623
sbsI678
g2
(g3
g4
NtRp1621
(dp1622
g7
I0
sg8
g89
sg23
g242
sg29
I35
sg30
F49260
sbsI679
g2
(g3
g4
NtRp1623
(dp1624
g7
I0
sg8
g10
sg23
g344
sg29
I35
sg30
F56384
sbsI680
g2
(g3
g4
NtRp1625
(dp1626
g7
I0
sg8
g293
sg23
g235
sg29
I35
sg30
F12250
sbsI681
g2
(g3
g4
NtRp1627
(dp1628
g7
I0
sg8
g160
sg23
g137
sg29
I35
sg30
F30463
sbsI682
g2
(g3
g4
NtRp1629
(dp1630
g7
I0
sg8
g202
sg23
g101
sg29
I35
sg30
F44816
sbsI683
g2
(g3
g4
NtRp1631
(dp1632
g7
I0
sg8
g235
sg23
g144
sg29
I35
sg30
F85632
sbsI684
g2
(g3
g4
NtRp1633
(dp1634
g7
I0
sg8
g77
sg23
g96
sg29
I36
sg30
F14687
sbsI685
g2
(g3
g4
NtRp1635
(dp1636
g7
I0
sg8
g113
sg23
g407
sg29
I36
sg30
F16392
sbsI686
g2
(g3
g4
NtRp1637
(dp1638
g7
I0
sg8
g436
sg23
g33
sg29
I36
sg30
F9312
sbsI687
g2
(g3
g4
NtRp1639
(dp1640
g7
I0
sg8
g108
sg23
g183
sg29
I36
sg30
F8096
sbsI688
g2
(g3
g4
NtRp1641
(dp1642
g7
I0
sg8
g436
sg23
g242
sg29
I36
sg30
F5996
sbsI689
g2
(g3
g4
NtRp1643
(dp1644
g7
I0
sg8
g344
sg23
g89
sg29
I36
sg30
F8674
sbsI690
g2
(g3
g4
NtRp1645
(dp1646
g7
I0
sg8
g242
sg23
g89
sg29
I36
sg30
F17207
sbsI691
g2
(g3
g4
NtRp1647
(dp1648
g7
I0
sg8
g151
sg23
g258
sg29
I36
sg30
F2929
sbsI692
g2
(g3
g4
NtRp1649
(dp1650
g7
I0
sg8
g144
sg23
g58
sg29
I36
sg30
F3480
sbsI693
g2
(g3
g4
NtRp1651
(dp1652
g7
I0
sg8
g84
sg23
g38
sg29
I36
sg30
F7542
sbsI694
g2
(g3
g4
NtRp1653
(dp1654
g7
I0
sg8
g265
sg23
g137
sg29
I36
sg30
F15881
sbsI695
g2
(g3
g4
NtRp1655
(dp1656
g7
I0
sg8
g202
sg23
g325
sg29
I36
sg30
F7892
sbsI696
g2
(g3
g4
NtRp1657
(dp1658
g7
I0
sg8
g265
sg23
g160
sg29
I36
sg30
F12425
sbsI697
g2
(g3
g4
NtRp1659
(dp1660
g7
I0
sg8
g51
sg23
g284
sg29
I36
sg30
F21456
sbsI698
g2
(g3
g4
NtRp1661
(dp1662
g7
I0
sg8
g137
sg23
g132
sg29
I36
sg30
F27272
sbsI699
g2
(g3
g4
NtRp1663
(dp1664
g7
I0
sg8
g63
sg23
g476
sg29
I36
sg30
F14348
sbsI700
g2
(g3
g4
NtRp1665
(dp1666
g7
I0
sg8
g24
sg23
g58
sg29
I36
sg30
F4482
sbsI701
g2
(g3
g4
NtRp1667
(dp1668
g7
I0
sg8
g265
sg23
g171
sg29
I36
sg30
F20568
sbsI702
g2
(g3
g4
NtRp1669
(dp1670
g7
I0
sg8
g258
sg23
g96
sg29
I36
sg30
F28959
sbsI703
g2
(g3
g4
NtRp1671
(dp1672
g7
I0
sg8
g63
sg23
g38
sg29
I37
sg30
F9611
sbsI704
g2
(g3
g4
NtRp1673
(dp1674
g7
I0
sg8
g190
sg23
g197
sg29
I37
sg30
F2224
sbsI705
g2
(g3
g4
NtRp1675
(dp1676
g7
I0
sg8
g108
sg23
g137
sg29
I37
sg30
F17932
sbsI706
g2
(g3
g4
NtRp1677
(dp1678
g7
I0
sg8
g176
sg23
g209
sg29
I37
sg30
F68087
sbsI707
g2
(g3
g4
NtRp1679
(dp1680
g7
I0
sg8
g197
sg23
g70
sg29
I37
sg30
F6627
sbsI708
g2
(g3
g4
NtRp1681
(dp1682
g7
I0
sg8
g265
sg23
g373
sg29
I37
sg30
F114061
sbsI709
g2
(g3
g4
NtRp1683
(dp1684
g7
I0
sg8
g223
sg23
g125
sg29
I37
sg30
F5512
sbsI710
g2
(g3
g4
NtRp1685
(dp1686
g7
I0
sg8
g24
sg23
g89
sg29
I37
sg30
F7502
sbsI711
g2
(g3
g4
NtRp1687
(dp1688
g7
I0
sg8
g202
sg23
g77
sg29
I37
sg30
F88885
sbsI712
g2
(g3
g4
NtRp1689
(dp1690
g7
I0
sg8
g45
sg23
g137
sg29
I37
sg30
F47325
sbsI713
g2
(g3
g4
NtRp1691
(dp1692
g7
I0
sg8
g58
sg23
g144
sg29
I37
sg30
F57309
sbsI714
g2
(g3
g4
NtRp1693
(dp1694
g7
I0
sg8
g101
sg23
g223
sg29
I37
sg30
F51565
sbsI715
g2
(g3
g4
NtRp1695
(dp1696
g7
I0
sg8
g228
sg23
g151
sg29
I37
sg30
F15864
sbsI716
g2
(g3
g4
NtRp1697
(dp1698
g7
I0
sg8
g242
sg23
g190
sg29
I37
sg30
F19490
sbsI717
g2
(g3
g4
NtRp1699
(dp1700
g7
I0
sg8
g125
sg23
g197
sg29
I37
sg30
F4292
sbsI718
g2
(g3
g4
NtRp1701
(dp1702
g7
I0
sg8
g125
sg23
g101
sg29
I37
sg30
F48398
sbsI719
g2
(g3
g4
NtRp1703
(dp1704
g7
I0
sg8
g51
sg23
g183
sg29
I37
sg30
F97858
sbsI720
g2
(g3
g4
NtRp1705
(dp1706
g7
I0
sg8
g137
sg23
g265
sg29
I37
sg30
F13489
sbsI721
g2
(g3
g4
NtRp1707
(dp1708
g7
I0
sg8
g235
sg23
g228
sg29
I37
sg30
F50835
sbsI722
g2
(g3
g4
NtRp1709
(dp1710
g7
I0
sg8
g400
sg23
g228
sg29
I38
sg30
F46627
sbsI723
g2
(g3
g4
NtRp1711
(dp1712
g7
I0
sg8
g183
sg23
g469
sg29
I38
sg30
F108765
sbsI724
g2
(g3
g4
NtRp1713
(dp1714
g7
I0
sg8
g373
sg23
g469
sg29
I38
sg30
F19027
sbsI725
g2
(g3
g4
NtRp1715
(dp1716
g7
I0
sg8
g325
sg23
g190
sg29
I38
sg30
F75852
sbsI726
g2
(g3
g4
NtRp1717
(dp1718
g7
I0
sg8
g223
sg23
g58
sg29
I38
sg30
F14267
sbsI727
g2
(g3
g4
NtRp1719
(dp1720
g7
I0
sg8
g89
sg23
g70
sg29
I38
sg30
F1849
sbsI728
g2
(g3
g4
NtRp1721
(dp1722
g7
I0
sg8
g132
sg23
g51
sg29
I38
sg30
F114776
sbsI729
g2
(g3
g4
NtRp1723
(dp1724
g7
I0
sg8
g70
sg23
g96
sg29
I38
sg30
F21267
sbsI730
g2
(g3
g4
NtRp1725
(dp1726
g7
I0
sg8
g300
sg23
g132
sg29
I38
sg30
F13586
sbsI731
g2
(g3
g4
NtRp1727
(dp1728
g7
I0
sg8
g24
sg23
g84
sg29
I38
sg30
F4563
sbsI732
g2
(g3
g4
NtRp1729
(dp1730
g7
I0
sg8
g325
sg23
g89
sg29
I38
sg30
F15925
sbsI733
g2
(g3
g4
NtRp1731
(dp1732
g7
I0
sg8
g137
sg23
g113
sg29
I38
sg30
F22806
sbsI734
g2
(g3
g4
NtRp1733
(dp1734
g7
I0
sg8
g176
sg23
g249
sg29
I38
sg30
F49583
sbsI735
g2
(g3
g4
NtRp1735
(dp1736
g7
I0
sg8
g235
sg23
g344
sg29
I38
sg30
F56508
sbsI736
g2
(g3
g4
NtRp1737
(dp1738
g7
I0
sg8
g89
sg23
g84
sg29
I38
sg30
F8611
sbsI737
g2
(g3
g4
NtRp1739
(dp1740
g7
I0
sg8
g258
sg23
g120
sg29
I38
sg30
F29138
sbsI738
g2
(g3
g4
NtRp1741
(dp1742
g7
I0
sg8
g258
sg23
g228
sg29
I38
sg30
F8618
sbsI739
g2
(g3
g4
NtRp1743
(dp1744
g7
I0
sg8
g407
sg23
g160
sg29
I38
sg30
F27177
sbsI740
g2
(g3
g4
NtRp1745
(dp1746
g7
I0
sg8
g108
sg23
g214
sg29
I38
sg30
F2923
sbsI741
g2
(g3
g4
NtRp1747
(dp1748
g7
I0
sg8
g51
sg23
g176
sg29
I39
sg30
F30230
sbsI742
g2
(g3
g4
NtRp1749
(dp1750
g7
I0
sg8
g10
sg23
g33
sg29
I39
sg30
F132895
sbsI743
g2
(g3
g4
NtRp1751
(dp1752
g7
I0
sg8
g151
sg23
g197
sg29
I39
sg30
F2939
sbsI744
g2
(g3
g4
NtRp1753
(dp1754
g7
I0
sg8
g293
sg23
g242
sg29
I39
sg30
F4462
sbsI745
g2
(g3
g4
NtRp1755
(dp1756
g7
I0
sg8
g89
sg23
g223
sg29
I39
sg30
F29824
sbsI746
g2
(g3
g4
NtRp1757
(dp1758
g7
I0
sg8
g58
sg23
g151
sg29
I39
sg30
F31737
sbsI747
g2
(g3
g4
NtRp1759
(dp1760
g7
I0
sg8
g45
sg23
g132
sg29
I39
sg30
F40117
sbsI748
g2
(g3
g4
NtRp1761
(dp1762
g7
I0
sg8
g223
sg23
g436
sg29
I39
sg30
F53301
sbsI749
g2
(g3
g4
NtRp1763
(dp1764
g7
I0
sg8
g235
sg23
g24
sg29
I39
sg30
F31954
sbsI750
g2
(g3
g4
NtRp1765
(dp1766
g7
I0
sg8
g96
sg23
g24
sg29
I39
sg30
F4125
sbsI751
g2
(g3
g4
NtRp1767
(dp1768
g7
I0
sg8
g436
sg23
g235
sg29
I39
sg30
F20380
sbsI752
g2
(g3
g4
NtRp1769
(dp1770
g7
I0
sg8
g373
sg23
g469
sg29
I39
sg30
F17370
sbsI753
g2
(g3
g4
NtRp1771
(dp1772
g7
I0
sg8
g58
sg23
g96
sg29
I39
sg30
F15416
sbsI754
g2
(g3
g4
NtRp1773
(dp1774
g7
I0
sg8
g101
sg23
g33
sg29
I39
sg30
F15343
sbsI755
g2
(g3
g4
NtRp1775
(dp1776
g7
I0
sg8
g125
sg23
g84
sg29
I39
sg30
F63583
sbsI756
g2
(g3
g4
NtRp1777
(dp1778
g7
I0
sg8
g202
sg23
g77
sg29
I39
sg30
F46223
sbsI757
g2
(g3
g4
NtRp1779
(dp1780
g7
I0
sg8
g45
sg23
g284
sg29
I39
sg30
F11038
sbsI758
g2
(g3
g4
NtRp1781
(dp1782
g7
I0
sg8
g325
sg23
g228
sg29
I39
sg30
F10775
sbsI759
g2
(g3
g4
NtRp1783
(dp1784
g7
I0
sg8
g10
sg23
g235
sg29
I39
sg30
F3823
sbsI760
g2
(g3
g4
NtRp1785
(dp1786
g7
I0
sg8
g197
sg23
g228
sg29
I40
sg30
F34559
sbsI761
g2
(g3
g4
NtRp1787
(dp1788
g7
I0
sg8
g209
sg23
g300
sg29
I40
sg30
F9121
sbsI762
g2
(g3
g4
NtRp1789
(dp1790
g7
I0
sg8
g176
sg23
g132
sg29
I40
sg30
F16259
sbsI763
g2
(g3
g4
NtRp1791
(dp1792
g7
I0
sg8
g214
sg23
g137
sg29
I40
sg30
F38934
sbsI764
g2
(g3
g4
NtRp1793
(dp1794
g7
I0
sg8
g476
sg23
g84
sg29
I40
sg30
F20687
sbsI765
g2
(g3
g4
NtRp1795
(dp1796
g7
I0
sg8
g190
sg23
g344
sg29
I40
sg30
F7735
sbsI766
g2
(g3
g4
NtRp1797
(dp1798
g7
I0
sg8
g469
sg23
g113
sg29
I40
sg30
F11817
sbsI767
g2
(g3
g4
NtRp1799
(dp1800
g7
I0
sg8
g144
sg23
g38
sg29
I40
sg30
F2640
sbsI768
g2
(g3
g4
NtRp1801
(dp1802
g7
I0
sg8
g171
sg23
g137
sg29
I40
sg30
F42333
sbsI769
g2
(g3
g4
NtRp1803
(dp1804
g7
I0
sg8
g373
sg23
g108
sg29
I40
sg30
F4429
sbsI770
g2
(g3
g4
NtRp1805
(dp1806
g7
I0
sg8
g235
sg23
g101
sg29
I40
sg30
F6743
sbsI771
g2
(g3
g4
NtRp1807
(dp1808
g7
I0
sg8
g96
sg23
g235
sg29
I40
sg30
F25071
sbsI772
g2
(g3
g4
NtRp1809
(dp1810
g7
I0
sg8
g38
sg23
g197
sg29
I40
sg30
F9677
sbsI773
g2
(g3
g4
NtRp1811
(dp1812
g7
I0
sg8
g436
sg23
g84
sg29
I40
sg30
F27783
sbsI774
g2
(g3
g4
NtRp1813
(dp1814
g7
I0
sg8
g45
sg23
g469
sg29
I40
sg30
F54139
sbsI775
g2
(g3
g4
NtRp1815
(dp1816
g7
I0
sg8
g51
sg23
g469
sg29
I40
sg30
F22030
sbsI776
g2
(g3
g4
NtRp1817
(dp1818
g7
I0
sg8
g436
sg23
g400
sg29
I40
sg30
F46585
sbsI777
g2
(g3
g4
NtRp1819
(dp1820
g7
I0
sg8
g265
sg23
g137
sg29
I40
sg30
F14289
sbsI778
g2
(g3
g4
NtRp1821
(dp1822
g7
I0
sg8
g160
sg23
g249
sg29
I40
sg30
F6722
sbsI779
g2
(g3
g4
NtRp1823
(dp1824
g7
I0
sg8
g51
sg23
g209
sg29
I41
sg30
F19609
sbsI780
g2
(g3
g4
NtRp1825
(dp1826
g7
I0
sg8
g63
sg23
g10
sg29
I41
sg30
F141394
sbsI781
g2
(g3
g4
NtRp1827
(dp1828
g7
I0
sg8
g84
sg23
g202
sg29
I41
sg30
F57319
sbsI782
g2
(g3
g4
NtRp1829
(dp1830
g7
I0
sg8
g176
sg23
g108
sg29
I41
sg30
F52518
sbsI783
g2
(g3
g4
NtRp1831
(dp1832
g7
I0
sg8
g400
sg23
g38
sg29
I41
sg30
F72447
sbsI784
g2
(g3
g4
NtRp1833
(dp1834
g7
I0
sg8
g89
sg23
g33
sg29
I41
sg30
F13737
sbsI785
g2
(g3
g4
NtRp1835
(dp1836
g7
I0
sg8
g58
sg23
g242
sg29
I41
sg30
F8911
sbsI786
g2
(g3
g4
NtRp1837
(dp1838
g7
I0
sg8
g197
sg23
g89
sg29
I41
sg30
F17282
sbsI787
g2
(g3
g4
NtRp1839
(dp1840
g7
I0
sg8
g108
sg23
g51
sg29
I41
sg30
F9774
sbsI788
g2
(g3
g4
NtRp1841
(dp1842
g7
I0
sg8
g120
sg23
g197
sg29
I41
sg30
F18360
sbsI789
g2
(g3
g4
NtRp1843
(dp1844
g7
I0
sg8
g265
sg23
g300
sg29
I41
sg30
F2325
sbsI790
g2
(g3
g4
NtRp1845
(dp1846
g7
I0
sg8
g209
sg23
g469
sg29
I41
sg30
F32780
sbsI791
g2
(g3
g4
NtRp1847
(dp1848
g7
I0
sg8
g325
sg23
g144
sg29
I41
sg30
F6304
sbsI792
g2
(g3
g4
NtRp1849
(dp1850
g7
I0
sg8
g70
sg23
g33
sg29
I41
sg30
F52342
sbsI793
g2
(g3
g4
NtRp1851
(dp1852
g7
I0
sg8
g197
sg23
g70
sg29
I41
sg30
F133514
sbsI794
g2
(g3
g4
NtRp1853
(dp1854
g7
I0
sg8
g132
sg23
g176
sg29
I41
sg30
F10385
sbsI795
g2
(g3
g4
NtRp1855
(dp1856
g7
I0
sg8
g33
sg23
g436
sg29
I41
sg30
F2013
sbsI796
g2
(g3
g4
NtRp1857
(dp1858
g7
I0
sg8
g24
sg23
g101
sg29
I41
sg30
F37401
sbsI797
g2
(g3
g4
NtRp1859
(dp1860
g7
I0
sg8
g249
sg23
g183
sg29
I41
sg30
F4632
sbsI798
g2
(g3
g4
NtRp1861
(dp1862
g7
I0
sg8
g70
sg23
g228
sg29
I42
sg30
F96090
sbsI799
g2
(g3
g4
NtRp1863
(dp1864
g7
I0
sg8
g125
sg23
g89
sg29
I42
sg30
F9142
sbsI800
g2
(g3
g4
NtRp1865
(dp1866
g7
I0
sg8
g89
sg23
g101
sg29
I42
sg30
F27276
sbsI801
g2
(g3
g4
NtRp1867
(dp1868
g7
I0
sg8
g125
sg23
g96
sg29
I42
sg30
F65143
sbsI802
g2
(g3
g4
NtRp1869
(dp1870
g7
I0
sg8
g45
sg23
g469
sg29
I42
sg30
F17331
sbsI803
g2
(g3
g4
NtRp1871
(dp1872
g7
I0
sg8
g70
sg23
g125
sg29
I42
sg30
F22824
sbsI804
g2
(g3
g4
NtRp1873
(dp1874
g7
I0
sg8
g258
sg23
g202
sg29
I42
sg30
F81398
sbsI805
g2
(g3
g4
NtRp1875
(dp1876
g7
I0
sg8
g325
sg23
g197
sg29
I42
sg30
F122056
sbsI806
g2
(g3
g4
NtRp1877
(dp1878
g7
I0
sg8
g84
sg23
g101
sg29
I42
sg30
F46381
sbsI807
g2
(g3
g4
NtRp1879
(dp1880
g7
I0
sg8
g58
sg23
g24
sg29
I42
sg30
F39650
sbsI808
g2
(g3
g4
NtRp1881
(dp1882
g7
I0
sg8
g101
sg23
g58
sg29
I42
sg30
F14345
sbsI809
g2
(g3
g4
NtRp1883
(dp1884
g7
I0
sg8
g137
sg23
g214
sg29
I42
sg30
F70927
sbsI810
g2
(g3
g4
NtRp1885
(dp1886
g7
I0
sg8
g190
sg23
g101
sg29
I42
sg30
F41218
sbsI811
g2
(g3
g4
NtRp1887
(dp1888
g7
I0
sg8
g300
sg23
g137
sg29
I42
sg30
F6373
sbsI812
g2
(g3
g4
NtRp1889
(dp1890
g7
I0
sg8
g400
sg23
g476
sg29
I42
sg30
F21624
sbsI813
g2
(g3
g4
NtRp1891
(dp1892
g7
I0
sg8
g476
sg23
g58
sg29
I42
sg30
F87765
sbsI814
g2
(g3
g4
NtRp1893
(dp1894
g7
I0
sg8
g258
sg23
g84
sg29
I42
sg30
F19267
sbsI815
g2
(g3
g4
NtRp1895
(dp1896
g7
I0
sg8
g113
sg23
g176
sg29
I42
sg30
F5923
sbsI816
g2
(g3
g4
NtRp1897
(dp1898
g7
I0
sg8
g176
sg23
g469
sg29
I42
sg30
F47709
sbsI817
g2
(g3
g4
NtRp1899
(dp1900
g7
I0
sg8
g33
sg23
g70
sg29
I43
sg30
F16682
sbsI818
g2
(g3
g4
NtRp1901
(dp1902
g7
I0
sg8
g265
sg23
g137
sg29
I43
sg30
F3192
sbsI819
g2
(g3
g4
NtRp1903
(dp1904
g7
I0
sg8
g101
sg23
g476
sg29
I43
sg30
F5857
sbsI820
g2
(g3
g4
NtRp1905
(dp1906
g7
I0
sg8
g38
sg23
g89
sg29
I43
sg30
F4292
sbsI821
g2
(g3
g4
NtRp1907
(dp1908
g7
I0
sg8
g293
sg23
g125
sg29
I43
sg30
F77757
sbsI822
g2
(g3
g4
NtRp1909
(dp1910
g7
I0
sg8
g10
sg23
g89
sg29
I43
sg30
F6654
sbsI823
g2
(g3
g4
NtRp1911
(dp1912
g7
I0
sg8
g436
sg23
g293
sg29
I43
sg30
F134215
sbsI824
g2
(g3
g4
NtRp1913
(dp1914
g7
I0
sg8
g249
sg23
g137
sg29
I43
sg30
F12668
sbsI825
g2
(g3
g4
NtRp1915
(dp1916
g7
I0
sg8
g120
sg23
g223
sg29
I43
sg30
F75966
sbsI826
g2
(g3
g4
NtRp1917
(dp1918
g7
I0
sg8
g24
sg23
g120
sg29
I43
sg30
F17941
sbsI827
g2
(g3
g4
NtRp1919
(dp1920
g7
I0
sg8
g325
sg23
g223
sg29
I43
sg30
F18210
sbsI828
g2
(g3
g4
NtRp1921
(dp1922
g7
I0
sg8
g293
sg23
g151
sg29
I43
sg30
F50649
sbsI829
g2
(g3
g4
NtRp1923
(dp1924
g7
I0
sg8
g24
sg23
g63
sg29
I43
sg30
F18519
sbsI830
g2
(g3
g4
NtRp1925
(dp1926
g7
I0
sg8
g176
sg23
g209
sg29
I43
sg30
F119964
sbsI831
g2
(g3
g4
NtRp1927
(dp1928
g7
I0
sg8
g209
sg23
g176
sg29
I43
sg30
F14010
sbsI832
g2
(g3
g4
NtRp1929
(dp1930
g7
I0
sg8
g265
sg23
g300
sg29
I43
sg30
F11843
sbsI833
g2
(g3
g4
NtRp1931
(dp1932
g7
I0
sg8
g235
sg23
g325
sg29
I43
sg30
F27248
sbsI834
g2
(g3
g4
NtRp1933
(dp1934
g7
I0
sg8
g45
sg23
g407
sg29
I43
sg30
F9221
sbsI835
g2
(g3
g4
NtRp1935
(dp1936
g7
I0
sg8
g284
sg23
g108
sg29
I43
sg30
F18645
sbsI836
g2
(g3
g4
NtRp1937
(dp1938
g7
I0
sg8
g101
sg23
g325
sg29
I44
sg30
F7765
sbsI837
g2
(g3
g4
NtRp1939
(dp1940
g7
I0
sg8
g223
sg23
g96
sg29
I44
sg30
F228788
sbsI838
g2
(g3
g4
NtRp1941
(dp1942
g7
I0
sg8
g33
sg23
g89
sg29
I44
sg30
F39442
sbsI839
g2
(g3
g4
NtRp1943
(dp1944
g7
I0
sg8
g202
sg23
g77
sg29
I44
sg30
F41124
sbsI840
g2
(g3
g4
NtRp1945
(dp1946
g7
I0
sg8
g144
sg23
g197
sg29
I44
sg30
F11824
sbsI841
g2
(g3
g4
NtRp1947
(dp1948
g7
I0
sg8
g209
sg23
g284
sg29
I44
sg30
F6634
sbsI842
g2
(g3
g4
NtRp1949
(dp1950
g7
I0
sg8
g137
sg23
g284
sg29
I44
sg30
F2324
sbsI843
g2
(g3
g4
NtRp1951
(dp1952
g7
I0
sg8
g96
sg23
g197
sg29
I44
sg30
F48406
sbsI844
g2
(g3
g4
NtRp1953
(dp1954
g7
I0
sg8
g137
sg23
g373
sg29
I44
sg30
F9645
sbsI845
g2
(g3
g4
NtRp1955
(dp1956
g7
I0
sg8
g373
sg23
g132
sg29
I44
sg30
F4894
sbsI846
g2
(g3
g4
NtRp1957
(dp1958
g7
I0
sg8
g108
sg23
g171
sg29
I44
sg30
F202985
sbsI847
g2
(g3
g4
NtRp1959
(dp1960
g7
I0
sg8
g38
sg23
g84
sg29
I44
sg30
F79874
sbsI848
g2
(g3
g4
NtRp1961
(dp1962
g7
I0
sg8
g38
sg23
g151
sg29
I44
sg30
F11045
sbsI849
g2
(g3
g4
NtRp1963
(dp1964
g7
I0
sg8
g214
sg23
g45
sg29
I44
sg30
F17063
sbsI850
g2
(g3
g4
NtRp1965
(dp1966
g7
I0
sg8
g45
sg23
g108
sg29
I44
sg30
F109830
sbsI851
g2
(g3
g4
NtRp1967
(dp1968
g7
I0
sg8
g108
sg23
g209
sg29
I44
sg30
F11122
sbsI852
g2
(g3
g4
NtRp1969
(dp1970
g7
I0
sg8
g407
sg23
g284
sg29
I44
sg30
F32184
sbsI853
g2
(g3
g4
NtRp1971
(dp1972
g7
I0
sg8
g151
sg23
g58
sg29
I44
sg30
F12695
sbsI854
g2
(g3
g4
NtRp1973
(dp1974
g7
I0
sg8
g183
sg23
g45
sg29
I44
sg30
F79025
sbsI855
g2
(g3
g4
NtRp1975
(dp1976
g7
I0
sg8
g209
sg23
g108
sg29
I45
sg30
F42453
sbsI856
g2
(g3
g4
NtRp1977
(dp1978
g7
I0
sg8
g84
sg23
g344
sg29
I45
sg30
F40245
sbsI857
g2
(g3
g4
NtRp1979
(dp1980
g7
I0
sg8
g407
sg23
g171
sg29
I45
sg30
F62881
sbsI858
g2
(g3
g4
NtRp1981
(dp1982
g7
I0
sg8
g373
sg23
g51
sg29
I45
sg30
F15228
sbsI859
g2
(g3
g4
NtRp1983
(dp1984
g7
I0
sg8
g63
sg23
g120
sg29
I45
sg30
F11852
sbsI860
g2
(g3
g4
NtRp1985
(dp1986
g7
I0
sg8
g400
sg23
g151
sg29
I45
sg30
F10030
sbsI861
g2
(g3
g4
NtRp1987
(dp1988
g7
I0
sg8
g249
sg23
g132
sg29
I45
sg30
F5746
sbsI862
g2
(g3
g4
NtRp1989
(dp1990
g7
I0
sg8
g45
sg23
g132
sg29
I45
sg30
F63435
sbsI863
g2
(g3
g4
NtRp1991
(dp1992
g7
I0
sg8
g137
sg23
g214
sg29
I45
sg30
F89597
sbsI864
g2
(g3
g4
NtRp1993
(dp1994
g7
I0
sg8
g407
sg23
g373
sg29
I45
sg30
F5135
sbsI865
g2
(g3
g4
NtRp1995
(dp1996
g7
I0
sg8
g108
sg23
g209
sg29
I45
sg30
F13045
sbsI866
g2
(g3
g4
NtRp1997
(dp1998
g7
I0
sg8
g400
sg23
g96
sg29
I45
sg30
F37438
sbsI867
g2
(g3
g4
NtRp1999
(dp2000
g7
I0
sg8
g258
sg23
g63
sg29
I45
sg30
F15859
sbsI868
g2
(g3
g4
NtRp2001
(dp2002
g7
I0
sg8
g171
sg23
g160
sg29
I45
sg30
F23015
sbsI869
g2
(g3
g4
NtRp2003
(dp2004
g7
I0
sg8
g58
sg23
g120
sg29
I45
sg30
F11868
sbsI870
g2
(g3
g4
NtRp2005
(dp2006
g7
I0
sg8
g171
sg23
g183
sg29
I45
sg30
F6794
sbsI871
g2
(g3
g4
NtRp2007
(dp2008
g7
I0
sg8
g373
sg23
g265
sg29
I45
sg30
F39073
sbsI872
g2
(g3
g4
NtRp2009
(dp2010
g7
I0
sg8
g45
sg23
g469
sg29
I45
sg30
F57210
sbsI873
g2
(g3
g4
NtRp2011
(dp2012
g7
I0
sg8
g214
sg23
g407
sg29
I45
sg30
F6139
sbsI874
g2
(g3
g4
NtRp2013
(dp2014
g7
I0
sg8
g63
sg23
g202
sg29
I46
sg30
F20686
sbsI875
g2
(g3
g4
NtRp2015
(dp2016
g7
I0
sg8
g265
sg23
g214
sg29
I46
sg30
F51425
sbsI876
g2
(g3
g4
NtRp2017
(dp2018
g7
I0
sg8
g10
sg23
g400
sg29
I46
sg30
F17523
sbsI877
g2
(g3
g4
NtRp2019
(dp2020
g7
I0
sg8
g183
sg23
g209
sg29
I46
sg30
F6604
sbsI878
g2
(g3
g4
NtRp2021
(dp2022
g7
I0
sg8
g197
sg23
g325
sg29
I46
sg30
F10701
sbsI879
g2
(g3
g4
NtRp2023
(dp2024
g7
I0
sg8
g63
sg23
g228
sg29
I46
sg30
F49701
sbsI880
g2
(g3
g4
NtRp2025
(dp2026
g7
I0
sg8
g108
sg23
g214
sg29
I46
sg30
F9432
sbsI881
g2
(g3
g4
NtRp2027
(dp2028
g7
I0
sg8
g249
sg23
g373
sg29
I46
sg30
F14120
sbsI882
g2
(g3
g4
NtRp2029
(dp2030
g7
I0
sg8
g120
sg23
g202
sg29
I46
sg30
F7358
sbsI883
g2
(g3
g4
NtRp2031
(dp2032
g7
I0
sg8
g70
sg23
g258
sg29
I46
sg30
F18515
sbsI884
g2
(g3
g4
NtRp2033
(dp2034
g7
I0
sg8
g242
sg23
g400
sg29
I46
sg30
F17617
sbsI885
g2
(g3
g4
NtRp2035
(dp2036
g7
I0
sg8
g144
sg23
g120
sg29
I46
sg30
F15938
sbsI886
g2
(g3
g4
NtRp2037
(dp2038
g7
I0
sg8
g258
sg23
g293
sg29
I46
sg30
F23837
sbsI887
g2
(g3
g4
NtRp2039
(dp2040
g7
I0
sg8
g284
sg23
g469
sg29
I46
sg30
F10134
sbsI888
g2
(g3
g4
NtRp2041
(dp2042
g7
I0
sg8
g101
sg23
g400
sg29
I46
sg30
F3311
sbsI889
g2
(g3
g4
NtRp2043
(dp2044
g7
I0
sg8
g265
sg23
g171
sg29
I46
sg30
F155633
sbsI890
g2
(g3
g4
NtRp2045
(dp2046
g7
I0
sg8
g183
sg23
g108
sg29
I46
sg30
F16018
sbsI891
g2
(g3
g4
NtRp2047
(dp2048
g7
I0
sg8
g300
sg23
g373
sg29
I46
sg30
F48611
sbsI892
g2
(g3
g4
NtRp2049
(dp2050
g7
I0
sg8
g89
sg23
g436
sg29
I46
sg30
F120378
sbsI893
g2
(g3
g4
NtRp2051
(dp2052
g7
I0
sg8
g125
sg23
g436
sg29
I47
sg30
F33670
sbsI894
g2
(g3
g4
NtRp2053
(dp2054
g7
I0
sg8
g63
sg23
g190
sg29
I47
sg30
F3754
sbsI895
g2
(g3
g4
NtRp2055
(dp2056
g7
I0
sg8
g70
sg23
g242
sg29
I47
sg30
F7344
sbsI896
g2
(g3
g4
NtRp2057
(dp2058
g7
I0
sg8
g190
sg23
g33
sg29
I47
sg30
F19090
sbsI897
g2
(g3
g4
NtRp2059
(dp2060
g7
I0
sg8
g293
sg23
g33
sg29
I47
sg30
F11649
sbsI898
g2
(g3
g4
NtRp2061
(dp2062
g7
I0
sg8
g209
sg23
g214
sg29
I47
sg30
F13867
sbsI899
g2
(g3
g4
NtRp2063
(dp2064
g7
I0
sg8
g469
sg23
g249
sg29
I47
sg30
F1217
sbsI900
g2
(g3
g4
NtRp2065
(dp2066
g7
I0
sg8
g235
sg23
g242
sg29
I47
sg30
F32826
sbsI901
g2
(g3
g4
NtRp2067
(dp2068
g7
I0
sg8
g151
sg23
g258
sg29
I47
sg30
F122559
sbsI902
g2
(g3
g4
NtRp2069
(dp2070
g7
I0
sg8
g183
sg23
g176
sg29
I47
sg30
F105045
sbsI903
g2
(g3
g4
NtRp2071
(dp2072
g7
I0
sg8
g108
sg23
g183
sg29
I47
sg30
F9574
sbsI904
g2
(g3
g4
NtRp2073
(dp2074
g7
I0
sg8
g197
sg23
g223
sg29
I47
sg30
F12771
sbsI905
g2
(g3
g4
NtRp2075
(dp2076
g7
I0
sg8
g325
sg23
g235
sg29
I47
sg30
F7353
sbsI906
g2
(g3
g4
NtRp2077
(dp2078
g7
I0
sg8
g325
sg23
g38
sg29
I47
sg30
F9752
sbsI907
g2
(g3
g4
NtRp2079
(dp2080
g7
I0
sg8
g77
sg23
g63
sg29
I47
sg30
F56577
sbsI908
g2
(g3
g4
NtRp2081
(dp2082
g7
I0
sg8
g113
sg23
g249
sg29
I47
sg30
F32405
sbsI909
g2
(g3
g4
NtRp2083
(dp2084
g7
I0
sg8
g265
sg23
g469
sg29
I47
sg30
F10440
sbsI910
g2
(g3
g4
NtRp2085
(dp2086
g7
I0
sg8
g89
sg23
g325
sg29
I47
sg30
F3957
sbsI911
g2
(g3
g4
NtRp2087
(dp2088
g7
I0
sg8
g96
sg23
g293
sg29
I47
sg30
F64625
sbsI912
g2
(g3
g4
NtRp2089
(dp2090
g7
I0
sg8
g293
sg23
g144
sg29
I48
sg30
F10547
sbsI913
g2
(g3
g4
NtRp2091
(dp2092
g7
I0
sg8
g137
sg23
g132
sg29
I48
sg30
F5555
sbsI914
g2
(g3
g4
NtRp2093
(dp2094
g7
I0
sg8
g284
sg23
g265
sg29
I48
sg30
F45796
sbsI915
g2
(g3
g4
NtRp2095
(dp2096
g7
I0
sg8
g132
sg23
g265
sg29
I48
sg30
F5926
sbsI916
g2
(g3
g4
NtRp2097
(dp2098
g7
I0
sg8
g176
sg23
g407
sg29
I48
sg30
F274682
sbsI917
g2
(g3
g4
NtRp2099
(dp2100
g7
I0
sg8
g160
sg23
g373
sg29
I48
sg30
F16976
sbsI918
g2
(g3
g4
NtRp2101
(dp2102
g7
I0
sg8
g325
sg23
g89
sg29
I48
sg30
F6160
sbsI919
g2
(g3
g4
NtRp2103
(dp2104
g7
I0
sg8
g300
sg23
g249
sg29
I48
sg30
F88407
sbsI920
g2
(g3
g4
NtRp2105
(dp2106
g7
I0
sg8
g300
sg23
g171
sg29
I48
sg30
F12520
sbsI921
g2
(g3
g4
NtRp2107
(dp2108
g7
I0
sg8
g476
sg23
g242
sg29
I48
sg30
F20104
sbsI922
g2
(g3
g4
NtRp2109
(dp2110
g7
I0
sg8
g151
sg23
g77
sg29
I48
sg30
F118217
sbsI923
g2
(g3
g4
NtRp2111
(dp2112
g7
I0
sg8
g70
sg23
g223
sg29
I48
sg30
F30963
sbsI924
g2
(g3
g4
NtRp2113
(dp2114
g7
I0
sg8
g209
sg23
g137
sg29
I48
sg30
F8077
sbsI925
g2
(g3
g4
NtRp2115
(dp2116
g7
I0
sg8
g77
sg23
g101
sg29
I48
sg30
F35834
sbsI926
g2
(g3
g4
NtRp2117
(dp2118
g7
I0
sg8
g293
sg23
g10
sg29
I48
sg30
F74834
sbsI927
g2
(g3
g4
NtRp2119
(dp2120
g7
I0
sg8
g209
sg23
g51
sg29
I48
sg30
F599
sbsI928
g2
(g3
g4
NtRp2121
(dp2122
g7
I0
sg8
g407
sg23
g176
sg29
I48
sg30
F6378
sbsI929
g2
(g3
g4
NtRp2123
(dp2124
g7
I0
sg8
g176
sg23
g51
sg29
I48
sg30
F31874
sbsI930
g2
(g3
g4
NtRp2125
(dp2126
g7
I0
sg8
g51
sg23
g137
sg29
I48
sg30
F88423
sbsI931
g2
(g3
g4
NtRp2127
(dp2128
g7
I0
sg8
g63
sg23
g144
sg29
I49
sg30
F3856
sbsI932
g2
(g3
g4
NtRp2129
(dp2130
g7
I0
sg8
g33
sg23
g89
sg29
I49
sg30
F19293
sbsI933
g2
(g3
g4
NtRp2131
(dp2132
g7
I0
sg8
g45
sg23
g300
sg29
I49
sg30
F17156
sbsI934
g2
(g3
g4
NtRp2133
(dp2134
g7
I0
sg8
g344
sg23
g202
sg29
I49
sg30
F10490
sbsI935
g2
(g3
g4
NtRp2135
(dp2136
g7
I0
sg8
g249
sg23
g373
sg29
I49
sg30
F37836
sbsI936
g2
(g3
g4
NtRp2137
(dp2138
g7
I0
sg8
g249
sg23
g284
sg29
I49
sg30
F13858
sbsI937
g2
(g3
g4
NtRp2139
(dp2140
g7
I0
sg8
g132
sg23
g51
sg29
I49
sg30
F19677
sbsI938
g2
(g3
g4
NtRp2141
(dp2142
g7
I0
sg8
g10
sg23
g197
sg29
I49
sg30
F37598
sbsI939
g2
(g3
g4
NtRp2143
(dp2144
g7
I0
sg8
g293
sg23
g242
sg29
I49
sg30
F171321
sbsI940
g2
(g3
g4
NtRp2145
(dp2146
g7
I0
sg8
g183
sg23
g373
sg29
I49
sg30
F29740
sbsI941
g2
(g3
g4
NtRp2147
(dp2148
g7
I0
sg8
g249
sg23
g469
sg29
I49
sg30
F145039
sbsI942
g2
(g3
g4
NtRp2149
(dp2150
g7
I0
sg8
g235
sg23
g125
sg29
I49
sg30
F19553
sbsI943
g2
(g3
g4
NtRp2151
(dp2152
g7
I0
sg8
g38
sg23
g223
sg29
I49
sg30
F119852
sbsI944
g2
(g3
g4
NtRp2153
(dp2154
g7
I0
sg8
g144
sg23
g258
sg29
I49
sg30
F51237
sbsI945
g2
(g3
g4
NtRp2155
(dp2156
g7
I0
sg8
g96
sg23
g228
sg29
I49
sg30
F22669
sbsI946
g2
(g3
g4
NtRp2157
(dp2158
g7
I0
sg8
g77
sg23
g223
sg29
I49
sg30
F32993
sbsI947
g2
(g3
g4
NtRp2159
(dp2160
g7
I0
sg8
g120
sg23
g242
sg29
I49
sg30
F31508
sbsI948
g2
(g3
g4
NtRp2161
(dp2162
g7
I0
sg8
g132
sg23
g249
sg29
I49
sg30
F6205
sbsI949
g2
(g3
g4
NtRp2163
(dp2164
g7
I0
sg8
g400
sg23
g89
sg29
I49
sg30
F622061
sbsI950
g2
(g3
g4
NtRp2165
(dp2166
g7
I0
sg8
g265
sg23
g183
sg29
I50
sg30
F8483
sbsI951
g2
(g3
g4
NtRp2167
(dp2168
g7
I0
sg8
g197
sg23
g125
sg29
I50
sg30
F32182
sbsI952
g2
(g3
g4
NtRp2169
(dp2170
g7
I0
sg8
g197
sg23
g120
sg29
I50
sg30
F32867
sbsI953
g2
(g3
g4
NtRp2171
(dp2172
g7
I0
sg8
g228
sg23
g344
sg29
I50
sg30
F28904
sbsI954
g2
(g3
g4
NtRp2173
(dp2174
g7
I0
sg8
g202
sg23
g242
sg29
I50
sg30
F71129
sbsI955
g2
(g3
g4
NtRp2175
(dp2176
g7
I0
sg8
g300
sg23
g108
sg29
I50
sg30
F16025
sbsI956
g2
(g3
g4
NtRp2177
(dp2178
g7
I0
sg8
g70
sg23
g325
sg29
I50
sg30
F105816
sbsI957
g2
(g3
g4
NtRp2179
(dp2180
g7
I0
sg8
g469
sg23
g407
sg29
I50
sg30
F44681
sbsI958
g2
(g3
g4
NtRp2181
(dp2182
g7
I0
sg8
g242
sg23
g228
sg29
I50
sg30
F30956
sbsI959
g2
(g3
g4
NtRp2183
(dp2184
g7
I0
sg8
g436
sg23
g63
sg29
I50
sg30
F21887
sbsI960
g2
(g3
g4
NtRp2185
(dp2186
g7
I0
sg8
g235
sg23
g151
sg29
I50
sg30
F7987
sbsI961
g2
(g3
g4
NtRp2187
(dp2188
g7
I0
sg8
g125
sg23
g190
sg29
I50
sg30
F122536
sbsI962
g2
(g3
g4
NtRp2189
(dp2190
g7
I0
sg8
g10
sg23
g125
sg29
I50
sg30
F41903
sbsI963
g2
(g3
g4
NtRp2191
(dp2192
g7
I0
sg8
g258
sg23
g325
sg29
I50
sg30
F125704
sbsI964
g2
(g3
g4
NtRp2193
(dp2194
g7
I0
sg8
g101
sg23
g70
sg29
I50
sg30
F7225
sbsI965
g2
(g3
g4
NtRp2195
(dp2196
g7
I0
sg8
g407
sg23
g265
sg29
I50
sg30
F21055
sbsI966
g2
(g3
g4
NtRp2197
(dp2198
g7
I0
sg8
g183
sg23
g214
sg29
I50
sg30
F18841
sbsI967
g2
(g3
g4
NtRp2199
(dp2200
g7
I0
sg8
g344
sg23
g223
sg29
I50
sg30
F169270
sbsI968
g2
(g3
g4
NtRp2201
(dp2202
g7
I0
sg8
g120
sg23
g242
sg29
I50
sg30
F33246
sbsI969
g2
(g3
g4
NtRp2203
(dp2204
g7
I0
sg8
g258
sg23
g235
sg29
I51
sg30
F12960
sbsI970
g2
(g3
g4
NtRp2205
(dp2206
g7
I0
sg8
g284
sg23
g265
sg29
I51
sg30
F19737
sbsI971
g2
(g3
g4
NtRp2207
(dp2208
g7
I0
sg8
g89
sg23
g77
sg29
I51
sg30
F32380
sbsI972
g2
(g3
g4
NtRp2209
(dp2210
g7
I0
sg8
g235
sg23
g476
sg29
I51
sg30
F6957
sbsI973
g2
(g3
g4
NtRp2211
(dp2212
g7
I0
sg8
g436
sg23
g293
sg29
I51
sg30
F14486
sbsI974
g2
(g3
g4
NtRp2213
(dp2214
g7
I0
sg8
g45
sg23
g137
sg29
I51
sg30
F86195
sbsI975
g2
(g3
g4
NtRp2215
(dp2216
g7
I0
sg8
g228
sg23
g84
sg29
I51
sg30
F7994
sbsI976
g2
(g3
g4
NtRp2217
(dp2218
g7
I0
sg8
g265
sg23
g176
sg29
I51
sg30
F1026205
sbsI977
g2
(g3
g4
NtRp2219
(dp2220
g7
I0
sg8
g63
sg23
g258
sg29
I51
sg30
F43230
sbsI978
g2
(g3
g4
NtRp2221
(dp2222
g7
I0
sg8
g101
sg23
g89
sg29
I51
sg30
F61416
sbsI979
g2
(g3
g4
NtRp2223
(dp2224
g7
I0
sg8
g132
sg23
g249
sg29
I51
sg30
F5798
sbsI980
g2
(g3
g4
NtRp2225
(dp2226
g7
I0
sg8
g242
sg23
g400
sg29
I51
sg30
F10711
sbsI981
g2
(g3
g4
NtRp2227
(dp2228
g7
I0
sg8
g58
sg23
g325
sg29
I51
sg30
F41868
sbsI982
g2
(g3
g4
NtRp2229
(dp2230
g7
I0
sg8
g373
sg23
g265
sg29
I51
sg30
F30018
sbsI983
g2
(g3
g4
NtRp2231
(dp2232
g7
I0
sg8
g96
sg23
g258
sg29
I51
sg30
F30985
sbsI984
g2
(g3
g4
NtRp2233
(dp2234
g7
I0
sg8
g228
sg23
g63
sg29
I51
sg30
F59618
sbsI985
g2
(g3
g4
NtRp2235
(dp2236
g7
I0
sg8
g407
sg23
g160
sg29
I51
sg30
F14283
sbsI986
g2
(g3
g4
NtRp2237
(dp2238
g7
I0
sg8
g144
sg23
g344
sg29
I51
sg30
F40200
sbsI987
g2
(g3
g4
NtRp2239
(dp2240
g7
I0
sg8
g125
sg23
g70
sg29
I51
sg30
F44738
sbsI988
g2
(g3
g4
NtRp2241
(dp2242
g7
I0
sg8
g151
sg23
g202
sg29
I52
sg30
F31144
sbsI989
g2
(g3
g4
NtRp2243
(dp2244
g7
I0
sg8
g223
sg23
g144
sg29
I52
sg30
F5182
sbsI990
g2
(g3
g4
NtRp2245
(dp2246
g7
I0
sg8
g89
sg23
g197
sg29
I52
sg30
F7860
sbsI991
g2
(g3
g4
NtRp2247
(dp2248
g7
I0
sg8
g214
sg23
g300
sg29
I52
sg30
F68644
sbsI992
g2
(g3
g4
NtRp2249
(dp2250
g7
I0
sg8
g197
sg23
g101
sg29
I52
sg30
F5519
sbsI993
g2
(g3
g4
NtRp2251
(dp2252
g7
I0
sg8
g24
sg23
g120
sg29
I52
sg30
F104924
sbsI994
g2
(g3
g4
NtRp2253
(dp2254
g7
I0
sg8
g284
sg23
g249
sg29
I52
sg30
F311217
sbsI995
g2
(g3
g4
NtRp2255
(dp2256
g7
I0
sg8
g33
sg23
g120
sg29
I52
sg30
F4310
sbsI996
g2
(g3
g4
NtRp2257
(dp2258
g7
I0
sg8
g113
sg23
g51
sg29
I52
sg30
F15678
sbsI997
g2
(g3
g4
NtRp2259
(dp2260
g7
I0
sg8
g400
sg23
g84
sg29
I52
sg30
F65652
sbsI998
g2
(g3
g4
NtRp2261
(dp2262
g7
I0
sg8
g209
sg23
g183
sg29
I52
sg30
F64368
sbsI999
g2
(g3
g4
NtRp2263
(dp2264
g7
I0
sg8
g284
sg23
g132
sg29
I52
sg30
F61082
sbsI1000
g2
(g3
g4
NtRp2265
(dp2266
g7
I0
sg8
g113
sg23
g45
sg29
I52
sg30
F95318
sbsI1001
g2
(g3
g4
NtRp2267
(dp2268
g7
I0
sg8
g108
sg23
g45
sg29
I52
sg30
F34793
sbsI1002
g2
(g3
g4
NtRp2269
(dp2270
g7
I0
sg8
g228
sg23
g144
sg29
I52
sg30
F44616
sbsI1003
g2
(g3
g4
NtRp2271
(dp2272
g7
I0
sg8
g249
sg23
g132
sg29
I52
sg30
F17346
sbsI1004
g2
(g3
g4
NtRp2273
(dp2274
g7
I0
sg8
g258
sg23
g10
sg29
I52
sg30
F110841
sbsI1005
g2
(g3
g4
NtRp2275
(dp2276
g7
I0
sg8
g137
sg23
g108
sg29
I52
sg30
F21524
sbsI1006
g2
(g3
g4
NtRp2277
(dp2278
g7
I0
sg8
g151
sg23
g223
sg29
I52
sg30
F13225
sbsI1007
g2
(g3
g4
NtRp2279
(dp2280
g7
I0
sg8
g176
sg23
g265
sg29
I53
sg30
F13291
sbsI1008
g2
(g3
g4
NtRp2281
(dp2282
g7
I0
sg8
g202
sg23
g24
sg29
I53
sg30
F47073
sbsI1009
g2
(g3
g4
NtRp2283
(dp2284
g7
I0
sg8
g113
sg23
g183
sg29
I53
sg30
F5346
sbsI1010
g2
(g3
g4
NtRp2285
(dp2286
g7
I0
sg8
g132
sg23
g171
sg29
I53
sg30
F12981
sbsI1011
g2
(g3
g4
NtRp2287
(dp2288
g7
I0
sg8
g63
sg23
g293
sg29
I53
sg30
F47349
sbsI1012
g2
(g3
g4
NtRp2289
(dp2290
g7
I0
sg8
g407
sg23
g108
sg29
I53
sg30
F6432
sbsI1013
g2
(g3
g4
NtRp2291
(dp2292
g7
I0
sg8
g293
sg23
g58
sg29
I53
sg30
F9672
sbsI1014
g2
(g3
g4
NtRp2293
(dp2294
g7
I0
sg8
g469
sg23
g265
sg29
I53
sg30
F16056
sbsI1015
g2
(g3
g4
NtRp2295
(dp2296
g7
I0
sg8
g265
sg23
g51
sg29
I53
sg30
F35265
sbsI1016
g2
(g3
g4
NtRp2297
(dp2298
g7
I0
sg8
g96
sg23
g24
sg29
I53
sg30
F8398
sbsI1017
g2
(g3
g4
NtRp2299
(dp2300
g7
I0
sg8
g214
sg23
g160
sg29
I53
sg30
F10665
sbsI1018
g2
(g3
g4
NtRp2301
(dp2302
g7
I0
sg8
g70
sg23
g10
sg29
I53
sg30
F14061
sbsI1019
g2
(g3
g4
NtRp2303
(dp2304
g7
I0
sg8
g344
sg23
g190
sg29
I53
sg30
F4478
sbsI1020
g2
(g3
g4
NtRp2305
(dp2306
g7
I0
sg8
g373
sg23
g469
sg29
I53
sg30
F56209
sbsI1021
g2
(g3
g4
NtRp2307
(dp2308
g7
I0
sg8
g407
sg23
g214
sg29
I53
sg30
F13903
sbsI1022
g2
(g3
g4
NtRp2309
(dp2310
g7
I0
sg8
g96
sg23
g38
sg29
I53
sg30
F11890
sbsI1023
g2
(g3
g4
NtRp2311
(dp2312
g7
I0
sg8
g144
sg23
g38
sg29
I53
sg30
F8341
sbsI1024
g2
(g3
g4
NtRp2313
(dp2314
g7
I0
sg8
g183
sg23
g300
sg29
I53
sg30
F25784
sbsI1025
g2
(g3
g4
NtRp2315
(dp2316
g7
I0
sg8
g325
sg23
g400
sg29
I53
sg30
F5932
sbsI1026
g2
(g3
g4
NtRp2317
(dp2318
g7
I0
sg8
g96
sg23
g144
sg29
I54
sg30
F15555
sbsI1027
g2
(g3
g4
NtRp2319
(dp2320
g7
I0
sg8
g70
sg23
g400
sg29
I54
sg30
F1774
sbsI1028
g2
(g3
g4
NtRp2321
(dp2322
g7
I0
sg8
g171
sg23
g300
sg29
I54
sg30
F42997
sbsI1029
g2
(g3
g4
NtRp2323
(dp2324
g7
I0
sg8
g258
sg23
g24
sg29
I54
sg30
F9467
sbsI1030
g2
(g3
g4
NtRp2325
(dp2326
g7
I0
sg8
g171
sg23
g51
sg29
I54
sg30
F26748
sbsI1031
g2
(g3
g4
NtRp2327
(dp2328
g7
I0
sg8
g70
sg23
g436
sg29
I54
sg30
F45609
sbsI1032
g2
(g3
g4
NtRp2329
(dp2330
g7
I0
sg8
g176
sg23
g137
sg29
I54
sg30
F13457
sbsI1033
g2
(g3
g4
NtRp2331
(dp2332
g7
I0
sg8
g77
sg23
g89
sg29
I54
sg30
F25237
sbsI1034
g2
(g3
g4
NtRp2333
(dp2334
g7
I0
sg8
g469
sg23
g407
sg29
I54
sg30
F16525
sbsI1035
g2
(g3
g4
NtRp2335
(dp2336
g7
I0
sg8
g84
sg23
g293
sg29
I54
sg30
F30211
sbsI1036
g2
(g3
g4
NtRp2337
(dp2338
g7
I0
sg8
g176
sg23
g160
sg29
I54
sg30
F6078
sbsI1037
g2
(g3
g4
NtRp2339
(dp2340
g7
I0
sg8
g132
sg23
g249
sg29
I54
sg30
F33112
sbsI1038
g2
(g3
g4
NtRp2341
(dp2342
g7
I0
sg8
g407
sg23
g176
sg29
I54
sg30
F57052
sbsI1039
g2
(g3
g4
NtRp2343
(dp2344
g7
I0
sg8
g144
sg23
g10
sg29
I54
sg30
F19123
sbsI1040
g2
(g3
g4
NtRp2345
(dp2346
g7
I0
sg8
g84
sg23
g63
sg29
I54
sg30
F16096
sbsI1041
g2
(g3
g4
NtRp2347
(dp2348
g7
I0
sg8
g258
sg23
g144
sg29
I54
sg30
F66371
sbsI1042
g2
(g3
g4
NtRp2349
(dp2350
g7
I0
sg8
g407
sg23
g373
sg29
I54
sg30
F3097
sbsI1043
g2
(g3
g4
NtRp2351
(dp2352
g7
I0
sg8
g171
sg23
g51
sg29
I54
sg30
F24868
sbsI1044
g2
(g3
g4
NtRp2353
(dp2354
g7
I0
sg8
g223
sg23
g84
sg29
I54
sg30
F55362
sbsI1045
g2
(g3
g4
NtRp2355
(dp2356
g7
I0
sg8
g476
sg23
g293
sg29
I55
sg30
F17788
sbsI1046
g2
(g3
g4
NtRp2357
(dp2358
g7
I0
sg8
g258
sg23
g197
sg29
I55
sg30
F35681
sbsI1047
g2
(g3
g4
NtRp2359
(dp2360
g7
I0
sg8
g190
sg23
g235
sg29
I55
sg30
F20733
sbsI1048
g2
(g3
g4
NtRp2361
(dp2362
g7
I0
sg8
g10
sg23
g125
sg29
I55
sg30
F22403
sbsI1049
g2
(g3
g4
NtRp2363
(dp2364
g7
I0
sg8
g84
sg23
g228
sg29
I55
sg30
F61768
sbsI1050
g2
(g3
g4
NtRp2365
(dp2366
g7
I0
sg8
g176
sg23
g108
sg29
I55
sg30
F19338
sbsI1051
g2
(g3
g4
NtRp2367
(dp2368
g7
I0
sg8
g51
sg23
g300
sg29
I55
sg30
F16584
sbsI1052
g2
(g3
g4
NtRp2369
(dp2370
g7
I0
sg8
g132
sg23
g407
sg29
I55
sg30
F26757
sbsI1053
g2
(g3
g4
NtRp2371
(dp2372
g7
I0
sg8
g223
sg23
g33
sg29
I55
sg30
F3033
sbsI1054
g2
(g3
g4
NtRp2373
(dp2374
g7
I0
sg8
g45
sg23
g183
sg29
I55
sg30
F56578
sbsI1055
g2
(g3
g4
NtRp2375
(dp2376
g7
I0
sg8
g151
sg23
g293
sg29
I55
sg30
F21108
sbsI1056
g2
(g3
g4
NtRp2377
(dp2378
g7
I0
sg8
g197
sg23
g258
sg29
I55
sg30
F65262
sbsI1057
g2
(g3
g4
NtRp2379
(dp2380
g7
I0
sg8
g344
sg23
g202
sg29
I55
sg30
F4803
sbsI1058
g2
(g3
g4
NtRp2381
(dp2382
g7
I0
sg8
g469
sg23
g209
sg29
I55
sg30
F11274
sbsI1059
g2
(g3
g4
NtRp2383
(dp2384
g7
I0
sg8
g228
sg23
g10
sg29
I55
sg30
F11305
sbsI1060
g2
(g3
g4
NtRp2385
(dp2386
g7
I0
sg8
g96
sg23
g190
sg29
I55
sg30
F12872
sbsI1061
g2
(g3
g4
NtRp2387
(dp2388
g7
I0
sg8
g33
sg23
g89
sg29
I55
sg30
F3549
sbsI1062
g2
(g3
g4
NtRp2389
(dp2390
g7
I0
sg8
g84
sg23
g258
sg29
I55
sg30
F22939
sbsI1063
g2
(g3
g4
NtRp2391
(dp2392
g7
I0
sg8
g171
sg23
g132
sg29
I55
sg30
F24237
sbsI1064
g2
(g3
g4
NtRp2393
(dp2394
g7
I0
sg8
g209
sg23
g160
sg29
I56
sg30
F32388
sbsI1065
g2
(g3
g4
NtRp2395
(dp2396
g7
I0
sg8
g108
sg23
g265
sg29
I56
sg30
F11002
sbsI1066
g2
(g3
g4
NtRp2397
(dp2398
g7
I0
sg8
g202
sg23
g400
sg29
I56
sg30
F16499
sbsI1067
g2
(g3
g4
NtRp2399
(dp2400
g7
I0
sg8
g77
sg23
g325
sg29
I56
sg30
F82543
sbsI1068
g2
(g3
g4
NtRp2401
(dp2402
g7
I0
sg8
g10
sg23
g38
sg29
I56
sg30
F63469
sbsI1069
g2
(g3
g4
NtRp2403
(dp2404
g7
I0
sg8
g176
sg23
g45
sg29
I56
sg30
F36288
sbsI1070
g2
(g3
g4
NtRp2405
(dp2406
g7
I0
sg8
g214
sg23
g183
sg29
I56
sg30
F56750
sbsI1071
g2
(g3
g4
NtRp2407
(dp2408
g7
I0
sg8
g258
sg23
g84
sg29
I56
sg30
F52365
sbsI1072
g2
(g3
g4
NtRp2409
(dp2410
g7
I0
sg8
g84
sg23
g10
sg29
I56
sg30
F20139
sbsI1073
g2
(g3
g4
NtRp2411
(dp2412
g7
I0
sg8
g45
sg23
g300
sg29
I56
sg30
F24036
sbsI1074
g2
(g3
g4
NtRp2413
(dp2414
g7
I0
sg8
g84
sg23
g293
sg29
I56
sg30
F16508
sbsI1075
g2
(g3
g4
NtRp2415
(dp2416
g7
I0
sg8
g214
sg23
g45
sg29
I56
sg30
F12342
sbsI1076
g2
(g3
g4
NtRp2417
(dp2418
g7
I0
sg8
g400
sg23
g84
sg29
I56
sg30
F28529
sbsI1077
g2
(g3
g4
NtRp2419
(dp2420
g7
I0
sg8
g209
sg23
g249
sg29
I56
sg30
F5909
sbsI1078
g2
(g3
g4
NtRp2421
(dp2422
g7
I0
sg8
g436
sg23
g325
sg29
I56
sg30
F6249
sbsI1079
g2
(g3
g4
NtRp2423
(dp2424
g7
I0
sg8
g400
sg23
g190
sg29
I56
sg30
F26666
sbsI1080
g2
(g3
g4
NtRp2425
(dp2426
g7
I0
sg8
g373
sg23
g160
sg29
I56
sg30
F10677
sbsI1081
g2
(g3
g4
NtRp2427
(dp2428
g7
I0
sg8
g400
sg23
g125
sg29
I56
sg30
F2506
sbsI1082
g2
(g3
g4
NtRp2429
(dp2430
g7
I0
sg8
g151
sg23
g197
sg29
I56
sg30
F32531
sbsI1083
g2
(g3
g4
NtRp2431
(dp2432
g7
I0
sg8
g373
sg23
g407
sg29
I57
sg30
F42628
sbsI1084
g2
(g3
g4
NtRp2433
(dp2434
g7
I0
sg8
g96
sg23
g344
sg29
I57
sg30
F59306
sbsI1085
g2
(g3
g4
NtRp2435
(dp2436
g7
I0
sg8
g202
sg23
g436
sg29
I57
sg30
F3871
sbsI1086
g2
(g3
g4
NtRp2437
(dp2438
g7
I0
sg8
g171
sg23
g45
sg29
I57
sg30
F23979
sbsI1087
g2
(g3
g4
NtRp2439
(dp2440
g7
I0
sg8
g190
sg23
g38
sg29
I57
sg30
F58127
sbsI1088
g2
(g3
g4
NtRp2441
(dp2442
g7
I0
sg8
g183
sg23
g407
sg29
I57
sg30
F3921
sbsI1089
g2
(g3
g4
NtRp2443
(dp2444
g7
I0
sg8
g373
sg23
g183
sg29
I57
sg30
F2407
sbsI1090
g2
(g3
g4
NtRp2445
(dp2446
g7
I0
sg8
g373
sg23
g249
sg29
I57
sg30
F12684
sbsI1091
g2
(g3
g4
NtRp2447
(dp2448
g7
I0
sg8
g38
sg23
g89
sg29
I57
sg30
F62938
sbsI1092
g2
(g3
g4
NtRp2449
(dp2450
g7
I0
sg8
g183
sg23
g113
sg29
I57
sg30
F12183
sbsI1093
g2
(g3
g4
NtRp2451
(dp2452
g7
I0
sg8
g373
sg23
g183
sg29
I57
sg30
F6795
sbsI1094
g2
(g3
g4
NtRp2453
(dp2454
g7
I0
sg8
g10
sg23
g125
sg29
I57
sg30
F92563
sbsI1095
g2
(g3
g4
NtRp2455
(dp2456
g7
I0
sg8
g33
sg23
g258
sg29
I57
sg30
F16102
sbsI1096
g2
(g3
g4
NtRp2457
(dp2458
g7
I0
sg8
g258
sg23
g400
sg29
I57
sg30
F34496
sbsI1097
g2
(g3
g4
NtRp2459
(dp2460
g7
I0
sg8
g300
sg23
g249
sg29
I57
sg30
F31617
sbsI1098
g2
(g3
g4
NtRp2461
(dp2462
g7
I0
sg8
g284
sg23
g214
sg29
I57
sg30
F17858
sbsI1099
g2
(g3
g4
NtRp2463
(dp2464
g7
I0
sg8
g151
sg23
g38
sg29
I57
sg30
F3621
sbsI1100
g2
(g3
g4
NtRp2465
(dp2466
g7
I0
sg8
g144
sg23
g436
sg29
I57
sg30
F22832
sbsI1101
g2
(g3
g4
NtRp2467
(dp2468
g7
I0
sg8
g325
sg23
g242
sg29
I57
sg30
F25215
sbsI1102
g2
(g3
g4
NtRp2469
(dp2470
g7
I0
sg8
g183
sg23
g214
sg29
I58
sg30
F37180
sbsI1103
g2
(g3
g4
NtRp2471
(dp2472
g7
I0
sg8
g197
sg23
g38
sg29
I58
sg30
F185930
sbsI1104
g2
(g3
g4
NtRp2473
(dp2474
g7
I0
sg8
g151
sg23
g344
sg29
I58
sg30
F49502
sbsI1105
g2
(g3
g4
NtRp2475
(dp2476
g7
I0
sg8
g58
sg23
g38
sg29
I58
sg30
F2673
sbsI1106
g2
(g3
g4
NtRp2477
(dp2478
g7
I0
sg8
g38
sg23
g125
sg29
I58
sg30
F7764
sbsI1107
g2
(g3
g4
NtRp2479
(dp2480
g7
I0
sg8
g265
sg23
g137
sg29
I58
sg30
F50083
sbsI1108
g2
(g3
g4
NtRp2481
(dp2482
g7
I0
sg8
g10
sg23
g190
sg29
I58
sg30
F14265
sbsI1109
g2
(g3
g4
NtRp2483
(dp2484
g7
I0
sg8
g89
sg23
g10
sg29
I58
sg30
F8780
sbsI1110
g2
(g3
g4
NtRp2485
(dp2486
g7
I0
sg8
g63
sg23
g235
sg29
I58
sg30
F8475
sbsI1111
g2
(g3
g4
NtRp2487
(dp2488
g7
I0
sg8
g125
sg23
g120
sg29
I58
sg30
F15749
sbsI1112
g2
(g3
g4
NtRp2489
(dp2490
g7
I0
sg8
g84
sg23
g344
sg29
I58
sg30
F13698
sbsI1113
g2
(g3
g4
NtRp2491
(dp2492
g7
I0
sg8
g132
sg23
g407
sg29
I58
sg30
F17662
sbsI1114
g2
(g3
g4
NtRp2493
(dp2494
g7
I0
sg8
g407
sg23
g132
sg29
I58
sg30
F24893
sbsI1115
g2
(g3
g4
NtRp2495
(dp2496
g7
I0
sg8
g407
sg23
g171
sg29
I58
sg30
F21417
sbsI1116
g2
(g3
g4
NtRp2497
(dp2498
g7
I0
sg8
g89
sg23
g84
sg29
I58
sg30
F5853
sbsI1117
g2
(g3
g4
NtRp2499
(dp2500
g7
I0
sg8
g258
sg23
g33
sg29
I58
sg30
F63598
sbsI1118
g2
(g3
g4
NtRp2501
(dp2502
g7
I0
sg8
g300
sg23
g160
sg29
I58
sg30
F19147
sbsI1119
g2
(g3
g4
NtRp2503
(dp2504
g7
I0
sg8
g84
sg23
g96
sg29
I58
sg30
F18200
sbsI1120
g2
(g3
g4
NtRp2505
(dp2506
g7
I0
sg8
g10
sg23
g476
sg29
I58
sg30
F25867
sbsI1121
g2
(g3
g4
NtRp2507
(dp2508
g7
I0
sg8
g202
sg23
g151
sg29
I59
sg30
F12143
sbsI1122
g2
(g3
g4
NtRp2509
(dp2510
g7
I0
sg8
g24
sg23
g293
sg29
I59
sg30
F7084
sbsI1123
g2
(g3
g4
NtRp2511
(dp2512
g7
I0
sg8
g400
sg23
g70
sg29
I59
sg30
F12168
sbsI1124
g2
(g3
g4
NtRp2513
(dp2514
g7
I0
sg8
g24
sg23
g476
sg29
I59
sg30
F40786
sbsI1125
g2
(g3
g4
NtRp2515
(dp2516
g7
I0
sg8
g33
sg23
g125
sg29
I59
sg30
F98468
sbsI1126
g2
(g3
g4
NtRp2517
(dp2518
g7
I0
sg8
g190
sg23
g58
sg29
I59
sg30
F15062
sbsI1127
g2
(g3
g4
NtRp2519
(dp2520
g7
I0
sg8
g51
sg23
g160
sg29
I59
sg30
F123820
sbsI1128
g2
(g3
g4
NtRp2521
(dp2522
g7
I0
sg8
g209
sg23
g171
sg29
I59
sg30
F86004
sbsI1129
g2
(g3
g4
NtRp2523
(dp2524
g7
I0
sg8
g223
sg23
g84
sg29
I59
sg30
F254711
sbsI1130
g2
(g3
g4
NtRp2525
(dp2526
g7
I0
sg8
g151
sg23
g120
sg29
I59
sg30
F8882
sbsI1131
g2
(g3
g4
NtRp2527
(dp2528
g7
I0
sg8
g249
sg23
g160
sg29
I59
sg30
F27995
sbsI1132
g2
(g3
g4
NtRp2529
(dp2530
g7
I0
sg8
g125
sg23
g144
sg29
I59
sg30
F33527
sbsI1133
g2
(g3
g4
NtRp2531
(dp2532
g7
I0
sg8
g101
sg23
g125
sg29
I59
sg30
F17549
sbsI1134
g2
(g3
g4
NtRp2533
(dp2534
g7
I0
sg8
g325
sg23
g38
sg29
I59
sg30
F27586
sbsI1135
g2
(g3
g4
NtRp2535
(dp2536
g7
I0
sg8
g120
sg23
g33
sg29
I59
sg30
F9982
sbsI1136
g2
(g3
g4
NtRp2537
(dp2538
g7
I0
sg8
g223
sg23
g293
sg29
I59
sg30
F9313
sbsI1137
g2
(g3
g4
NtRp2539
(dp2540
g7
I0
sg8
g101
sg23
g202
sg29
I59
sg30
F2488
sbsI1138
g2
(g3
g4
NtRp2541
(dp2542
g7
I0
sg8
g293
sg23
g144
sg29
I59
sg30
F15653
sbsI1139
g2
(g3
g4
NtRp2543
(dp2544
g7
I0
sg8
g58
sg23
g77
sg29
I59
sg30
F95352
sbs.