(dp1
I0
ccopy_reg
_reconstructor
p2
(cAutoTest.Model.Flow
Flow
p3
c__builtin__
object
p4
NtRp5
(dp6
S'duration'
p7
I0
sS'src'
p8
g2
(cAutoTest.Model.Device
Host
p9
g4
NtRp10
(dp11
S't_id'
p12
I1
sS'name'
p13
S'h00100004'
p14
sS'ip'
p15
S'192.168.0.4'
p16
sS'mac'
p17
S'00:00:00:00:00:04'
p18
sS'dc_id'
p19
I1
sS'id'
p20
I4
sbsS'dst'
p21
g2
(g9
g4
NtRp22
(dp23
g12
I1
sg13
S'h00100003'
p24
sg15
S'192.168.0.3'
p25
sg17
S'00:00:00:00:00:03'
p26
sg19
I1
sg20
I3
sbsS'start_tmie'
p27
I0
sS'size'
p28
F30883
sbsI1
g2
(g3
g4
NtRp29
(dp30
g7
I0
sg8
g10
sg21
g2
(g9
g4
NtRp31
(dp32
g12
I1
sg13
S'h00100006'
p33
sg15
S'192.168.0.5'
p34
sg17
S'00:00:00:00:00:06'
p35
sg19
I1
sg20
I6
sbsg27
I0
sg28
F22303
sbsI2
g2
(g3
g4
NtRp36
(dp37
g7
I0
sg8
g2
(g9
g4
NtRp38
(dp39
g12
I1
sg13
S'h00100005'
p40
sg15
S'10.0.0.1'
p41
sg17
S'00:00:00:00:00:05'
p42
sg19
I1
sg20
I5
sbsg21
g2
(g9
g4
NtRp43
(dp44
g12
I1
sg13
S'h00100008'
p45
sg15
S'10.0.0.2'
p46
sg17
S'00:00:00:00:00:08'
p47
sg19
I1
sg20
I8
sbsg27
I0
sg28
F18366
sbsI3
g2
(g3
g4
NtRp48
(dp49
g7
I0
sg8
g2
(g9
g4
NtRp50
(dp51
g12
I2
sg13
S'h00200005'
p52
sg15
S'10.0.0.5'
p53
sg17
S'00:00:00:00:00:0f'
p54
sg19
I1
sg20
I5
sbsg21
g2
(g9
g4
NtRp55
(dp56
g12
I2
sg13
S'h00200009'
p57
sg15
S'10.0.0.9'
p58
sg17
S'00:00:00:00:00:13'
p59
sg19
I1
sg20
I9
sbsg27
I0
sg28
F93515
sbsI4
g2
(g3
g4
NtRp60
(dp61
g7
I0
sg8
g2
(g9
g4
NtRp62
(dp63
g12
I2
sg13
S'h00200004'
p64
sg15
S'10.0.0.4'
p65
sg17
S'00:00:00:00:00:0e'
p66
sg19
I1
sg20
I4
sbsg21
g50
sg27
I1
sg28
F12246
sbsI5
g2
(g3
g4
NtRp67
(dp68
g7
I0
sg8
g43
sg21
g38
sg27
I1
sg28
F17681
sbsI6
g2
(g3
g4
NtRp69
(dp70
g7
I0
sg8
g22
sg21
g2
(g9
g4
NtRp71
(dp72
g12
I1
sg13
S'h00100007'
p73
sg15
S'192.168.0.6'
p74
sg17
S'00:00:00:00:00:07'
p75
sg19
I1
sg20
I7
sbsg27
I1
sg28
F30542
sbsI7
g2
(g3
g4
NtRp76
(dp77
g7
I0
sg8
g71
sg21
g22
sg27
I1
sg28
F4686
sbsI8
g2
(g3
g4
NtRp78
(dp79
g7
I0
sg8
g22
sg21
g10
sg27
I2
sg28
F9618
sbsI9
g2
(g3
g4
NtRp80
(dp81
g7
I0
sg8
g55
sg21
g62
sg27
I2
sg28
F6063
sbsI10
g2
(g3
g4
NtRp82
(dp83
g7
I0
sg8
g31
sg21
g22
sg27
I2
sg28
F56296
sbsI11
g2
(g3
g4
NtRp84
(dp85
g7
I0
sg8
g2
(g9
g4
NtRp86
(dp87
g12
I2
sg13
S'h00200001'
p88
sg15
S'10.0.0.1'
p89
sg17
S'00:00:00:00:00:0b'
p90
sg19
I1
sg20
I1
sbsg21
g2
(g9
g4
NtRp91
(dp92
g12
I2
sg13
S'h00200010'
p93
sg15
S'10.0.0.10'
p94
sg17
S'00:00:00:00:00:14'
p95
sg19
I1
sg20
I10
sbsg27
I2
sg28
F18841
sbsI12
g2
(g3
g4
NtRp96
(dp97
g7
I0
sg8
g38
sg21
g43
sg27
I3
sg28
F10421
sbsI13
g2
(g3
g4
NtRp98
(dp99
g7
I0
sg8
g50
sg21
g62
sg27
I3
sg28
F13553
sbsI14
g2
(g3
g4
NtRp100
(dp101
g7
I0
sg8
g38
sg21
g43
sg27
I3
sg28
F10655
sbsI15
g2
(g3
g4
NtRp102
(dp103
g7
I0
sg8
g71
sg21
g10
sg27
I3
sg28
F17099
sbsI16
g2
(g3
g4
NtRp104
(dp105
g7
I0
sg8
g38
sg21
g43
sg27
I4
sg28
F127420
sbsI17
g2
(g3
g4
NtRp106
(dp107
g7
I0
sg8
g2
(g9
g4
NtRp108
(dp109
g12
I2
sg13
S'h00200002'
p110
sg15
S'10.0.0.2'
p111
sg17
S'00:00:00:00:00:0c'
p112
sg19
I1
sg20
I2
sbsg21
g62
sg27
I4
sg28
F9218
sbsI18
g2
(g3
g4
NtRp113
(dp114
g7
I0
sg8
g10
sg21
g71
sg27
I4
sg28
F121005
sbsI19
g2
(g3
g4
NtRp115
(dp116
g7
I0
sg8
g50
sg21
g62
sg27
I4
sg28
F42866
sbsI20
g2
(g3
g4
NtRp117
(dp118
g7
I0
sg8
g22
sg21
g71
sg27
I5
sg28
F43013
sbsI21
g2
(g3
g4
NtRp119
(dp120
g7
I0
sg8
g31
sg21
g71
sg27
I5
sg28
F18221
sbsI22
g2
(g3
g4
NtRp121
(dp122
g7
I0
sg8
g10
sg21
g31
sg27
I5
sg28
F48017
sbsI23
g2
(g3
g4
NtRp123
(dp124
g7
I0
sg8
g86
sg21
g55
sg27
I5
sg28
F54695
sbsI24
g2
(g3
g4
NtRp125
(dp126
g7
I0
sg8
g86
sg21
g55
sg27
I6
sg28
F7399
sbsI25
g2
(g3
g4
NtRp127
(dp128
g7
I0
sg8
g50
sg21
g55
sg27
I6
sg28
F21396
sbsI26
g2
(g3
g4
NtRp129
(dp130
g7
I0
sg8
g22
sg21
g10
sg27
I6
sg28
F12748
sbsI27
g2
(g3
g4
NtRp131
(dp132
g7
I0
sg8
g50
sg21
g86
sg27
I6
sg28
F48033
sbsI28
g2
(g3
g4
NtRp133
(dp134
g7
I0
sg8
g43
sg21
g38
sg27
I7
sg28
F33816
sbsI29
g2
(g3
g4
NtRp135
(dp136
g7
I0
sg8
g43
sg21
g38
sg27
I7
sg28
F17072
sbsI30
g2
(g3
g4
NtRp137
(dp138
g7
I0
sg8
g50
sg21
g86
sg27
I7
sg28
F8655
sbsI31
g2
(g3
g4
NtRp139
(dp140
g7
I0
sg8
g38
sg21
g43
sg27
I7
sg28
F116806
sbsI32
g2
(g3
g4
NtRp141
(dp142
g7
I0
sg8
g91
sg21
g50
sg27
I8
sg28
F74609
sbsI33
g2
(g3
g4
NtRp143
(dp144
g7
I0
sg8
g43
sg21
g38
sg27
I8
sg28
F89881
sbsI34
g2
(g3
g4
NtRp145
(dp146
g7
I0
sg8
g43
sg21
g38
sg27
I8
sg28
F27473
sbsI35
g2
(g3
g4
NtRp147
(dp148
g7
I0
sg8
g43
sg21
g38
sg27
I8
sg28
F16614
sbsI36
g2
(g3
g4
NtRp149
(dp150
g7
I0
sg8
g55
sg21
g86
sg27
I9
sg28
F9500
sbsI37
g2
(g3
g4
NtRp151
(dp152
g7
I0
sg8
g62
sg21
g50
sg27
I9
sg28
F55515
sbsI38
g2
(g3
g4
NtRp153
(dp154
g7
I0
sg8
g22
sg21
g71
sg27
I9
sg28
F31843
sbsI39
g2
(g3
g4
NtRp155
(dp156
g7
I0
sg8
g50
sg21
g91
sg27
I9
sg28
F51418
sbsI40
g2
(g3
g4
NtRp157
(dp158
g7
I0
sg8
g55
sg21
g86
sg27
I10
sg28
F47847
sbsI41
g2
(g3
g4
NtRp159
(dp160
g7
I0
sg8
g108
sg21
g86
sg27
I10
sg28
F73584
sbsI42
g2
(g3
g4
NtRp161
(dp162
g7
I0
sg8
g50
sg21
g55
sg27
I10
sg28
F109346
sbsI43
g2
(g3
g4
NtRp163
(dp164
g7
I0
sg8
g10
sg21
g71
sg27
I10
sg28
F11720
sbsI44
g2
(g3
g4
NtRp165
(dp166
g7
I0
sg8
g22
sg21
g31
sg27
I11
sg28
F19022
sbsI45
g2
(g3
g4
NtRp167
(dp168
g7
I0
sg8
g10
sg21
g71
sg27
I11
sg28
F1633
sbsI46
g2
(g3
g4
NtRp169
(dp170
g7
I0
sg8
g86
sg21
g91
sg27
I11
sg28
F4506
sbsI47
g2
(g3
g4
NtRp171
(dp172
g7
I0
sg8
g71
sg21
g10
sg27
I11
sg28
F29275
sbsI48
g2
(g3
g4
NtRp173
(dp174
g7
I0
sg8
g43
sg21
g38
sg27
I12
sg28
F18135
sbsI49
g2
(g3
g4
NtRp175
(dp176
g7
I0
sg8
g108
sg21
g86
sg27
I12
sg28
F8624
sbsI50
g2
(g3
g4
NtRp177
(dp178
g7
I0
sg8
g108
sg21
g62
sg27
I12
sg28
F20997
sbsI51
g2
(g3
g4
NtRp179
(dp180
g7
I0
sg8
g43
sg21
g38
sg27
I12
sg28
F5786
sbsI52
g2
(g3
g4
NtRp181
(dp182
g7
I0
sg8
g108
sg21
g91
sg27
I13
sg28
F7496
sbsI53
g2
(g3
g4
NtRp183
(dp184
g7
I0
sg8
g10
sg21
g31
sg27
I13
sg28
F103469
sbsI54
g2
(g3
g4
NtRp185
(dp186
g7
I0
sg8
g91
sg21
g62
sg27
I13
sg28
F7055
sbsI55
g2
(g3
g4
NtRp187
(dp188
g7
I0
sg8
g62
sg21
g91
sg27
I13
sg28
F18637
sbsI56
g2
(g3
g4
NtRp189
(dp190
g7
I0
sg8
g50
sg21
g108
sg27
I14
sg28
F23632
sbsI57
g2
(g3
g4
NtRp191
(dp192
g7
I0
sg8
g38
sg21
g43
sg27
I14
sg28
F9623
sbsI58
g2
(g3
g4
NtRp193
(dp194
g7
I0
sg8
g22
sg21
g71
sg27
I14
sg28
F12875
sbsI59
g2
(g3
g4
NtRp195
(dp196
g7
I0
sg8
g38
sg21
g43
sg27
I14
sg28
F11888
sbsI60
g2
(g3
g4
NtRp197
(dp198
g7
I0
sg8
g50
sg21
g108
sg27
I15
sg28
F48067
sbsI61
g2
(g3
g4
NtRp199
(dp200
g7
I0
sg8
g91
sg21
g50
sg27
I15
sg28
F36644
sbsI62
g2
(g3
g4
NtRp201
(dp202
g7
I0
sg8
g55
sg21
g50
sg27
I15
sg28
F63206
sbsI63
g2
(g3
g4
NtRp203
(dp204
g7
I0
sg8
g38
sg21
g43
sg27
I15
sg28
F15140
sbsI64
g2
(g3
g4
NtRp205
(dp206
g7
I0
sg8
g43
sg21
g38
sg27
I16
sg28
F6359
sbsI65
g2
(g3
g4
NtRp207
(dp208
g7
I0
sg8
g31
sg21
g71
sg27
I16
sg28
F57755
sbsI66
g2
(g3
g4
NtRp209
(dp210
g7
I0
sg8
g71
sg21
g31
sg27
I16
sg28
F21747
sbsI67
g2
(g3
g4
NtRp211
(dp212
g7
I0
sg8
g38
sg21
g43
sg27
I16
sg28
F36909
sbsI68
g2
(g3
g4
NtRp213
(dp214
g7
I0
sg8
g38
sg21
g43
sg27
I17
sg28
F82472
sbsI69
g2
(g3
g4
NtRp215
(dp216
g7
I0
sg8
g86
sg21
g50
sg27
I17
sg28
F4722
sbsI70
g2
(g3
g4
NtRp217
(dp218
g7
I0
sg8
g86
sg21
g108
sg27
I17
sg28
F19570
sbsI71
g2
(g3
g4
NtRp219
(dp220
g7
I0
sg8
g22
sg21
g31
sg27
I17
sg28
F24012
sbsI72
g2
(g3
g4
NtRp221
(dp222
g7
I0
sg8
g38
sg21
g43
sg27
I18
sg28
F20859
sbsI73
g2
(g3
g4
NtRp223
(dp224
g7
I0
sg8
g22
sg21
g31
sg27
I18
sg28
F154880
sbsI74
g2
(g3
g4
NtRp225
(dp226
g7
I0
sg8
g71
sg21
g22
sg27
I18
sg28
F3759
sbsI75
g2
(g3
g4
NtRp227
(dp228
g7
I0
sg8
g91
sg21
g55
sg27
I18
sg28
F11522
sbsI76
g2
(g3
g4
NtRp229
(dp230
g7
I0
sg8
g55
sg21
g62
sg27
I19
sg28
F4560
sbsI77
g2
(g3
g4
NtRp231
(dp232
g7
I0
sg8
g55
sg21
g91
sg27
I19
sg28
F4937
sbsI78
g2
(g3
g4
NtRp233
(dp234
g7
I0
sg8
g91
sg21
g108
sg27
I19
sg28
F38822
sbsI79
g2
(g3
g4
NtRp235
(dp236
g7
I0
sg8
g86
sg21
g62
sg27
I19
sg28
F10848
sbsI80
g2
(g3
g4
NtRp237
(dp238
g7
I0
sg8
g108
sg21
g62
sg27
I20
sg28
F9249
sbsI81
g2
(g3
g4
NtRp239
(dp240
g7
I0
sg8
g62
sg21
g50
sg27
I20
sg28
F27670
sbsI82
g2
(g3
g4
NtRp241
(dp242
g7
I0
sg8
g10
sg21
g31
sg27
I20
sg28
F52707
sbsI83
g2
(g3
g4
NtRp243
(dp244
g7
I0
sg8
g10
sg21
g31
sg27
I20
sg28
F56829
sbsI84
g2
(g3
g4
NtRp245
(dp246
g7
I0
sg8
g22
sg21
g10
sg27
I21
sg28
F3601
sbsI85
g2
(g3
g4
NtRp247
(dp248
g7
I0
sg8
g108
sg21
g86
sg27
I21
sg28
F7096
sbsI86
g2
(g3
g4
NtRp249
(dp250
g7
I0
sg8
g50
sg21
g108
sg27
I21
sg28
F130989
sbsI87
g2
(g3
g4
NtRp251
(dp252
g7
I0
sg8
g10
sg21
g22
sg27
I21
sg28
F10263
sbsI88
g2
(g3
g4
NtRp253
(dp254
g7
I0
sg8
g43
sg21
g38
sg27
I22
sg28
F11114
sbsI89
g2
(g3
g4
NtRp255
(dp256
g7
I0
sg8
g31
sg21
g71
sg27
I22
sg28
F44484
sbsI90
g2
(g3
g4
NtRp257
(dp258
g7
I0
sg8
g86
sg21
g91
sg27
I22
sg28
F118841
sbsI91
g2
(g3
g4
NtRp259
(dp260
g7
I0
sg8
g10
sg21
g22
sg27
I22
sg28
F14700
sbsI92
g2
(g3
g4
NtRp261
(dp262
g7
I0
sg8
g108
sg21
g62
sg27
I23
sg28
F60694
sbsI93
g2
(g3
g4
NtRp263
(dp264
g7
I0
sg8
g38
sg21
g43
sg27
I23
sg28
F13281
sbsI94
g2
(g3
g4
NtRp265
(dp266
g7
I0
sg8
g50
sg21
g86
sg27
I23
sg28
F10068
sbsI95
g2
(g3
g4
NtRp267
(dp268
g7
I0
sg8
g62
sg21
g86
sg27
I23
sg28
F3110
sbsI96
g2
(g3
g4
NtRp269
(dp270
g7
I0
sg8
g86
sg21
g50
sg27
I24
sg28
F90870
sbsI97
g2
(g3
g4
NtRp271
(dp272
g7
I0
sg8
g62
sg21
g108
sg27
I24
sg28
F108616
sbsI98
g2
(g3
g4
NtRp273
(dp274
g7
I0
sg8
g108
sg21
g62
sg27
I24
sg28
F114557
sbsI99
g2
(g3
g4
NtRp275
(dp276
g7
I0
sg8
g10
sg21
g31
sg27
I24
sg28
F2212
sbsI100
g2
(g3
g4
NtRp277
(dp278
g7
I0
sg8
g38
sg21
g43
sg27
I25
sg28
F8696
sbsI101
g2
(g3
g4
NtRp279
(dp280
g7
I0
sg8
g31
sg21
g10
sg27
I25
sg28
F7482
sbsI102
g2
(g3
g4
NtRp281
(dp282
g7
I0
sg8
g55
sg21
g108
sg27
I25
sg28
F8788
sbsI103
g2
(g3
g4
NtRp283
(dp284
g7
I0
sg8
g55
sg21
g62
sg27
I25
sg28
F25454
sbsI104
g2
(g3
g4
NtRp285
(dp286
g7
I0
sg8
g50
sg21
g55
sg27
I26
sg28
F19632
sbsI105
g2
(g3
g4
NtRp287
(dp288
g7
I0
sg8
g50
sg21
g55
sg27
I26
sg28
F70083
sbsI106
g2
(g3
g4
NtRp289
(dp290
g7
I0
sg8
g55
sg21
g86
sg27
I26
sg28
F35488
sbsI107
g2
(g3
g4
NtRp291
(dp292
g7
I0
sg8
g22
sg21
g71
sg27
I26
sg28
F12110
sbsI108
g2
(g3
g4
NtRp293
(dp294
g7
I0
sg8
g91
sg21
g62
sg27
I27
sg28
F9118
sbsI109
g2
(g3
g4
NtRp295
(dp296
g7
I0
sg8
g91
sg21
g50
sg27
I27
sg28
F33110
sbsI110
g2
(g3
g4
NtRp297
(dp298
g7
I0
sg8
g50
sg21
g55
sg27
I27
sg28
F11766
sbsI111
g2
(g3
g4
NtRp299
(dp300
g7
I0
sg8
g62
sg21
g91
sg27
I27
sg28
F13196
sbsI112
g2
(g3
g4
NtRp301
(dp302
g7
I0
sg8
g10
sg21
g22
sg27
I28
sg28
F13794
sbsI113
g2
(g3
g4
NtRp303
(dp304
g7
I0
sg8
g62
sg21
g86
sg27
I28
sg28
F81928
sbsI114
g2
(g3
g4
NtRp305
(dp306
g7
I0
sg8
g22
sg21
g10
sg27
I28
sg28
F14165
sbsI115
g2
(g3
g4
NtRp307
(dp308
g7
I0
sg8
g55
sg21
g108
sg27
I28
sg28
F40376
sbsI116
g2
(g3
g4
NtRp309
(dp310
g7
I0
sg8
g50
sg21
g91
sg27
I29
sg28
F23557
sbsI117
g2
(g3
g4
NtRp311
(dp312
g7
I0
sg8
g50
sg21
g108
sg27
I29
sg28
F46819
sbsI118
g2
(g3
g4
NtRp313
(dp314
g7
I0
sg8
g10
sg21
g71
sg27
I29
sg28
F11316
sbsI119
g2
(g3
g4
NtRp315
(dp316
g7
I0
sg8
g62
sg21
g86
sg27
I29
sg28
F18920
sbsI120
g2
(g3
g4
NtRp317
(dp318
g7
I0
sg8
g38
sg21
g43
sg27
I30
sg28
F33911
sbsI121
g2
(g3
g4
NtRp319
(dp320
g7
I0
sg8
g43
sg21
g38
sg27
I30
sg28
F4936
sbsI122
g2
(g3
g4
NtRp321
(dp322
g7
I0
sg8
g91
sg21
g108
sg27
I30
sg28
F2781
sbsI123
g2
(g3
g4
NtRp323
(dp324
g7
I0
sg8
g43
sg21
g38
sg27
I30
sg28
F20290
sbsI124
g2
(g3
g4
NtRp325
(dp326
g7
I0
sg8
g71
sg21
g22
sg27
I31
sg28
F39774
sbsI125
g2
(g3
g4
NtRp327
(dp328
g7
I0
sg8
g22
sg21
g10
sg27
I31
sg28
F14162
sbsI126
g2
(g3
g4
NtRp329
(dp330
g7
I0
sg8
g71
sg21
g31
sg27
I31
sg28
F67623
sbsI127
g2
(g3
g4
NtRp331
(dp332
g7
I0
sg8
g38
sg21
g43
sg27
I31
sg28
F29053
sbsI128
g2
(g3
g4
NtRp333
(dp334
g7
I0
sg8
g22
sg21
g31
sg27
I32
sg28
F55645
sbsI129
g2
(g3
g4
NtRp335
(dp336
g7
I0
sg8
g43
sg21
g38
sg27
I32
sg28
F17892
sbsI130
g2
(g3
g4
NtRp337
(dp338
g7
I0
sg8
g31
sg21
g10
sg27
I32
sg28
F10485
sbsI131
g2
(g3
g4
NtRp339
(dp340
g7
I0
sg8
g43
sg21
g38
sg27
I32
sg28
F89800
sbsI132
g2
(g3
g4
NtRp341
(dp342
g7
I0
sg8
g43
sg21
g38
sg27
I33
sg28
F56657
sbsI133
g2
(g3
g4
NtRp343
(dp344
g7
I0
sg8
g108
sg21
g55
sg27
I33
sg28
F237325
sbsI134
g2
(g3
g4
NtRp345
(dp346
g7
I0
sg8
g55
sg21
g86
sg27
I33
sg28
F49210
sbsI135
g2
(g3
g4
NtRp347
(dp348
g7
I0
sg8
g55
sg21
g50
sg27
I33
sg28
F5622
sbsI136
g2
(g3
g4
NtRp349
(dp350
g7
I0
sg8
g62
sg21
g108
sg27
I34
sg28
F6999
sbsI137
g2
(g3
g4
NtRp351
(dp352
g7
I0
sg8
g108
sg21
g91
sg27
I34
sg28
F4428
sbsI138
g2
(g3
g4
NtRp353
(dp354
g7
I0
sg8
g50
sg21
g108
sg27
I34
sg28
F34431
sbsI139
g2
(g3
g4
NtRp355
(dp356
g7
I0
sg8
g55
sg21
g91
sg27
I34
sg28
F12741
sbsI140
g2
(g3
g4
NtRp357
(dp358
g7
I0
sg8
g10
sg21
g71
sg27
I35
sg28
F2361
sbsI141
g2
(g3
g4
NtRp359
(dp360
g7
I0
sg8
g50
sg21
g55
sg27
I35
sg28
F19674
sbsI142
g2
(g3
g4
NtRp361
(dp362
g7
I0
sg8
g43
sg21
g38
sg27
I35
sg28
F84591
sbsI143
g2
(g3
g4
NtRp363
(dp364
g7
I0
sg8
g71
sg21
g10
sg27
I35
sg28
F22598
sbsI144
g2
(g3
g4
NtRp365
(dp366
g7
I0
sg8
g22
sg21
g31
sg27
I36
sg28
F14612
sbsI145
g2
(g3
g4
NtRp367
(dp368
g7
I0
sg8
g55
sg21
g91
sg27
I36
sg28
F7713
sbsI146
g2
(g3
g4
NtRp369
(dp370
g7
I0
sg8
g50
sg21
g62
sg27
I36
sg28
F3342
sbsI147
g2
(g3
g4
NtRp371
(dp372
g7
I0
sg8
g38
sg21
g43
sg27
I36
sg28
F32356
sbsI148
g2
(g3
g4
NtRp373
(dp374
g7
I0
sg8
g38
sg21
g43
sg27
I37
sg28
F17717
sbsI149
g2
(g3
g4
NtRp375
(dp376
g7
I0
sg8
g43
sg21
g38
sg27
I37
sg28
F3032
sbsI150
g2
(g3
g4
NtRp377
(dp378
g7
I0
sg8
g91
sg21
g55
sg27
I37
sg28
F5535
sbsI151
g2
(g3
g4
NtRp379
(dp380
g7
I0
sg8
g71
sg21
g31
sg27
I37
sg28
F32527
sbsI152
g2
(g3
g4
NtRp381
(dp382
g7
I0
sg8
g22
sg21
g71
sg27
I38
sg28
F11641
sbsI153
g2
(g3
g4
NtRp383
(dp384
g7
I0
sg8
g43
sg21
g38
sg27
I38
sg28
F8108
sbsI154
g2
(g3
g4
NtRp385
(dp386
g7
I0
sg8
g50
sg21
g91
sg27
I38
sg28
F8354
sbsI155
g2
(g3
g4
NtRp387
(dp388
g7
I0
sg8
g38
sg21
g43
sg27
I38
sg28
F32968
sbsI156
g2
(g3
g4
NtRp389
(dp390
g7
I0
sg8
g10
sg21
g22
sg27
I39
sg28
F81767
sbsI157
g2
(g3
g4
NtRp391
(dp392
g7
I0
sg8
g50
sg21
g108
sg27
I39
sg28
F59567
sbsI158
g2
(g3
g4
NtRp393
(dp394
g7
I0
sg8
g31
sg21
g10
sg27
I39
sg28
F54004
sbsI159
g2
(g3
g4
NtRp395
(dp396
g7
I0
sg8
g31
sg21
g71
sg27
I39
sg28
F31514
sbsI160
g2
(g3
g4
NtRp397
(dp398
g7
I0
sg8
g71
sg21
g22
sg27
I40
sg28
F16801
sbsI161
g2
(g3
g4
NtRp399
(dp400
g7
I0
sg8
g71
sg21
g31
sg27
I40
sg28
F22925
sbsI162
g2
(g3
g4
NtRp401
(dp402
g7
I0
sg8
g91
sg21
g108
sg27
I40
sg28
F18879
sbsI163
g2
(g3
g4
NtRp403
(dp404
g7
I0
sg8
g43
sg21
g38
sg27
I40
sg28
F2411
sbsI164
g2
(g3
g4
NtRp405
(dp406
g7
I0
sg8
g62
sg21
g86
sg27
I41
sg28
F58394
sbsI165
g2
(g3
g4
NtRp407
(dp408
g7
I0
sg8
g43
sg21
g38
sg27
I41
sg28
F19214
sbsI166
g2
(g3
g4
NtRp409
(dp410
g7
I0
sg8
g108
sg21
g86
sg27
I41
sg28
F5628
sbsI167
g2
(g3
g4
NtRp411
(dp412
g7
I0
sg8
g38
sg21
g43
sg27
I41
sg28
F15570
sbsI168
g2
(g3
g4
NtRp413
(dp414
g7
I0
sg8
g86
sg21
g108
sg27
I42
sg28
F42240
sbsI169
g2
(g3
g4
NtRp415
(dp416
g7
I0
sg8
g55
sg21
g91
sg27
I42
sg28
F20088
sbsI170
g2
(g3
g4
NtRp417
(dp418
g7
I0
sg8
g43
sg21
g38
sg27
I42
sg28
F21210
sbsI171
g2
(g3
g4
NtRp419
(dp420
g7
I0
sg8
g38
sg21
g43
sg27
I42
sg28
F2998
sbsI172
g2
(g3
g4
NtRp421
(dp422
g7
I0
sg8
g22
sg21
g71
sg27
I43
sg28
F69389
sbsI173
g2
(g3
g4
NtRp423
(dp424
g7
I0
sg8
g38
sg21
g43
sg27
I43
sg28
F14981
sbsI174
g2
(g3
g4
NtRp425
(dp426
g7
I0
sg8
g22
sg21
g71
sg27
I43
sg28
F29155
sbsI175
g2
(g3
g4
NtRp427
(dp428
g7
I0
sg8
g62
sg21
g91
sg27
I43
sg28
F41367
sbsI176
g2
(g3
g4
NtRp429
(dp430
g7
I0
sg8
g55
sg21
g62
sg27
I44
sg28
F96915
sbsI177
g2
(g3
g4
NtRp431
(dp432
g7
I0
sg8
g62
sg21
g50
sg27
I44
sg28
F8019
sbsI178
g2
(g3
g4
NtRp433
(dp434
g7
I0
sg8
g108
sg21
g55
sg27
I44
sg28
F47975
sbsI179
g2
(g3
g4
NtRp435
(dp436
g7
I0
sg8
g43
sg21
g38
sg27
I44
sg28
F21884
sbsI180
g2
(g3
g4
NtRp437
(dp438
g7
I0
sg8
g31
sg21
g22
sg27
I45
sg28
F29285
sbsI181
g2
(g3
g4
NtRp439
(dp440
g7
I0
sg8
g31
sg21
g22
sg27
I45
sg28
F23099
sbsI182
g2
(g3
g4
NtRp441
(dp442
g7
I0
sg8
g71
sg21
g10
sg27
I45
sg28
F51717
sbsI183
g2
(g3
g4
NtRp443
(dp444
g7
I0
sg8
g86
sg21
g62
sg27
I45
sg28
F39287
sbsI184
g2
(g3
g4
NtRp445
(dp446
g7
I0
sg8
g22
sg21
g10
sg27
I46
sg28
F12240
sbsI185
g2
(g3
g4
NtRp447
(dp448
g7
I0
sg8
g43
sg21
g38
sg27
I46
sg28
F47803
sbsI186
g2
(g3
g4
NtRp449
(dp450
g7
I0
sg8
g31
sg21
g10
sg27
I46
sg28
F17616
sbsI187
g2
(g3
g4
NtRp451
(dp452
g7
I0
sg8
g108
sg21
g91
sg27
I46
sg28
F87315
sbsI188
g2
(g3
g4
NtRp453
(dp454
g7
I0
sg8
g50
sg21
g86
sg27
I47
sg28
F22992
sbsI189
g2
(g3
g4
NtRp455
(dp456
g7
I0
sg8
g10
sg21
g22
sg27
I47
sg28
F46839
sbsI190
g2
(g3
g4
NtRp457
(dp458
g7
I0
sg8
g31
sg21
g22
sg27
I47
sg28
F29956
sbsI191
g2
(g3
g4
NtRp459
(dp460
g7
I0
sg8
g108
sg21
g55
sg27
I47
sg28
F20612
sbsI192
g2
(g3
g4
NtRp461
(dp462
g7
I0
sg8
g31
sg21
g22
sg27
I48
sg28
F63557
sbsI193
g2
(g3
g4
NtRp463
(dp464
g7
I0
sg8
g22
sg21
g31
sg27
I48
sg28
F36512
sbsI194
g2
(g3
g4
NtRp465
(dp466
g7
I0
sg8
g50
sg21
g86
sg27
I48
sg28
F3971
sbsI195
g2
(g3
g4
NtRp467
(dp468
g7
I0
sg8
g50
sg21
g91
sg27
I48
sg28
F33027
sbsI196
g2
(g3
g4
NtRp469
(dp470
g7
I0
sg8
g108
sg21
g55
sg27
I49
sg28
F29017
sbsI197
g2
(g3
g4
NtRp471
(dp472
g7
I0
sg8
g10
sg21
g22
sg27
I49
sg28
F7123
sbsI198
g2
(g3
g4
NtRp473
(dp474
g7
I0
sg8
g86
sg21
g108
sg27
I49
sg28
F45517
sbsI199
g2
(g3
g4
NtRp475
(dp476
g7
I0
sg8
g55
sg21
g86
sg27
I49
sg28
F98617
sbsI200
g2
(g3
g4
NtRp477
(dp478
g7
I0
sg8
g38
sg21
g43
sg27
I50
sg28
F164608
sbsI201
g2
(g3
g4
NtRp479
(dp480
g7
I0
sg8
g91
sg21
g50
sg27
I50
sg28
F22113
sbsI202
g2
(g3
g4
NtRp481
(dp482
g7
I0
sg8
g91
sg21
g55
sg27
I50
sg28
F3465
sbsI203
g2
(g3
g4
NtRp483
(dp484
g7
I0
sg8
g31
sg21
g22
sg27
I50
sg28
F18380
sbsI204
g2
(g3
g4
NtRp485
(dp486
g7
I0
sg8
g62
sg21
g50
sg27
I51
sg28
F16567
sbsI205
g2
(g3
g4
NtRp487
(dp488
g7
I0
sg8
g86
sg21
g50
sg27
I51
sg28
F9022
sbsI206
g2
(g3
g4
NtRp489
(dp490
g7
I0
sg8
g91
sg21
g50
sg27
I51
sg28
F19487
sbsI207
g2
(g3
g4
NtRp491
(dp492
g7
I0
sg8
g38
sg21
g43
sg27
I51
sg28
F14625
sbsI208
g2
(g3
g4
NtRp493
(dp494
g7
I0
sg8
g31
sg21
g71
sg27
I52
sg28
F26486
sbsI209
g2
(g3
g4
NtRp495
(dp496
g7
I0
sg8
g55
sg21
g91
sg27
I52
sg28
F23435
sbsI210
g2
(g3
g4
NtRp497
(dp498
g7
I0
sg8
g108
sg21
g62
sg27
I52
sg28
F10679
sbsI211
g2
(g3
g4
NtRp499
(dp500
g7
I0
sg8
g38
sg21
g43
sg27
I52
sg28
F41111
sbsI212
g2
(g3
g4
NtRp501
(dp502
g7
I0
sg8
g43
sg21
g38
sg27
I53
sg28
F26266
sbsI213
g2
(g3
g4
NtRp503
(dp504
g7
I0
sg8
g71
sg21
g22
sg27
I53
sg28
F20653
sbsI214
g2
(g3
g4
NtRp505
(dp506
g7
I0
sg8
g38
sg21
g43
sg27
I53
sg28
F17723
sbsI215
g2
(g3
g4
NtRp507
(dp508
g7
I0
sg8
g62
sg21
g91
sg27
I53
sg28
F2384
sbsI216
g2
(g3
g4
NtRp509
(dp510
g7
I0
sg8
g86
sg21
g55
sg27
I54
sg28
F15741
sbsI217
g2
(g3
g4
NtRp511
(dp512
g7
I0
sg8
g86
sg21
g91
sg27
I54
sg28
F19252
sbsI218
g2
(g3
g4
NtRp513
(dp514
g7
I0
sg8
g55
sg21
g50
sg27
I54
sg28
F16594
sbsI219
g2
(g3
g4
NtRp515
(dp516
g7
I0
sg8
g10
sg21
g22
sg27
I54
sg28
F129065
sbsI220
g2
(g3
g4
NtRp517
(dp518
g7
I0
sg8
g62
sg21
g50
sg27
I55
sg28
F23948
sbsI221
g2
(g3
g4
NtRp519
(dp520
g7
I0
sg8
g91
sg21
g62
sg27
I55
sg28
F37273
sbsI222
g2
(g3
g4
NtRp521
(dp522
g7
I0
sg8
g50
sg21
g55
sg27
I55
sg28
F12541
sbsI223
g2
(g3
g4
NtRp523
(dp524
g7
I0
sg8
g50
sg21
g91
sg27
I55
sg28
F3396
sbsI224
g2
(g3
g4
NtRp525
(dp526
g7
I0
sg8
g10
sg21
g31
sg27
I56
sg28
F122888
sbsI225
g2
(g3
g4
NtRp527
(dp528
g7
I0
sg8
g43
sg21
g38
sg27
I56
sg28
F72533
sbsI226
g2
(g3
g4
NtRp529
(dp530
g7
I0
sg8
g50
sg21
g62
sg27
I56
sg28
F10254
sbsI227
g2
(g3
g4
NtRp531
(dp532
g7
I0
sg8
g31
sg21
g22
sg27
I56
sg28
F17750
sbsI228
g2
(g3
g4
NtRp533
(dp534
g7
I0
sg8
g38
sg21
g43
sg27
I57
sg28
F72588
sbsI229
g2
(g3
g4
NtRp535
(dp536
g7
I0
sg8
g55
sg21
g91
sg27
I57
sg28
F6953
sbsI230
g2
(g3
g4
NtRp537
(dp538
g7
I0
sg8
g91
sg21
g86
sg27
I57
sg28
F17966
sbsI231
g2
(g3
g4
NtRp539
(dp540
g7
I0
sg8
g43
sg21
g38
sg27
I57
sg28
F57363
sbsI232
g2
(g3
g4
NtRp541
(dp542
g7
I0
sg8
g10
sg21
g31
sg27
I58
sg28
F40049
sbsI233
g2
(g3
g4
NtRp543
(dp544
g7
I0
sg8
g62
sg21
g86
sg27
I58
sg28
F20222
sbsI234
g2
(g3
g4
NtRp545
(dp546
g7
I0
sg8
g50
sg21
g62
sg27
I58
sg28
F71401
sbsI235
g2
(g3
g4
NtRp547
(dp548
g7
I0
sg8
g86
sg21
g55
sg27
I58
sg28
F24930
sbsI236
g2
(g3
g4
NtRp549
(dp550
g7
I0
sg8
g71
sg21
g10
sg27
I59
sg28
F33027
sbsI237
g2
(g3
g4
NtRp551
(dp552
g7
I0
sg8
g62
sg21
g91
sg27
I59
sg28
F71212
sbsI238
g2
(g3
g4
NtRp553
(dp554
g7
I0
sg8
g91
sg21
g55
sg27
I59
sg28
F34355
sbsI239
g2
(g3
g4
NtRp555
(dp556
g7
I0
sg8
g91
sg21
g108
sg27
I59
sg28
F8660
sbs.