(dp1
I0
(lp2
I0
aI1
aI2
aI3
asI1
(lp3
I4
aI5
aI6
aI7
asI2
(lp4
I8
aI9
aI10
aI11
asI3
(lp5
I12
aI13
aI14
aI15
asI4
(lp6
I16
aI17
aI18
aI19
asI5
(lp7
I20
aI21
aI22
aI23
asI6
(lp8
I24
aI25
aI26
aI27
asI7
(lp9
I28
aI29
aI30
aI31
asI8
(lp10
I32
aI33
aI34
aI35
asI9
(lp11
I36
aI37
aI38
aI39
asI10
(lp12
I40
aI41
aI42
aI43
asI11
(lp13
I44
aI45
aI46
aI47
asI12
(lp14
I48
aI49
aI50
aI51
asI13
(lp15
I52
aI53
aI54
aI55
asI14
(lp16
I56
aI57
aI58
aI59
asI15
(lp17
I60
aI61
aI62
aI63
asI16
(lp18
I64
aI65
aI66
aI67
asI17
(lp19
I68
aI69
aI70
aI71
asI18
(lp20
I72
aI73
aI74
aI75
asI19
(lp21
I76
aI77
aI78
aI79
asI20
(lp22
I80
aI81
aI82
aI83
asI21
(lp23
I84
aI85
aI86
aI87
asI22
(lp24
I88
aI89
aI90
aI91
asI23
(lp25
I92
aI93
aI94
aI95
asI24
(lp26
I96
aI97
aI98
aI99
asI25
(lp27
I100
aI101
aI102
aI103
asI26
(lp28
I104
aI105
aI106
aI107
asI27
(lp29
I108
aI109
aI110
aI111
asI28
(lp30
I112
aI113
aI114
aI115
asI29
(lp31
I116
aI117
aI118
aI119
asI30
(lp32
I120
aI121
aI122
aI123
asI31
(lp33
I124
aI125
aI126
aI127
asI32
(lp34
I128
aI129
aI130
aI131
asI33
(lp35
I132
aI133
aI134
aI135
asI34
(lp36
I136
aI137
aI138
aI139
asI35
(lp37
I140
aI141
aI142
aI143
asI36
(lp38
I144
aI145
aI146
aI147
asI37
(lp39
I148
aI149
aI150
aI151
asI38
(lp40
I152
aI153
aI154
aI155
asI39
(lp41
I156
aI157
aI158
aI159
asI40
(lp42
I160
aI161
aI162
aI163
asI41
(lp43
I164
aI165
aI166
aI167
asI42
(lp44
I168
aI169
aI170
aI171
asI43
(lp45
I172
aI173
aI174
aI175
asI44
(lp46
I176
aI177
aI178
aI179
asI45
(lp47
I180
aI181
aI182
aI183
asI46
(lp48
I184
aI185
aI186
aI187
asI47
(lp49
I188
aI189
aI190
aI191
asI48
(lp50
I192
aI193
aI194
aI195
asI49
(lp51
I196
aI197
aI198
aI199
asI50
(lp52
I200
aI201
aI202
aI203
asI51
(lp53
I204
aI205
aI206
aI207
asI52
(lp54
I208
aI209
aI210
aI211
asI53
(lp55
I212
aI213
aI214
aI215
asI54
(lp56
I216
aI217
aI218
aI219
asI55
(lp57
I220
aI221
aI222
aI223
asI56
(lp58
I224
aI225
aI226
aI227
asI57
(lp59
I228
aI229
aI230
aI231
asI58
(lp60
I232
aI233
aI234
aI235
asI59
(lp61
I236
aI237
aI238
aI239
as.