(dp1
I0
ccopy_reg
_reconstructor
p2
(cAutoTest.Model.Flow
Flow
p3
c__builtin__
object
p4
NtRp5
(dp6
S'duration'
p7
I0
sS'src'
p8
g2
(cAutoTest.Model.Device
Host
p9
g4
NtRp10
(dp11
S't_id'
p12
I2
sS'name'
p13
S'h00200001'
p14
sS'ip'
p15
S'10.0.0.1'
p16
sS'mac'
p17
S'00:00:00:00:00:0b'
p18
sS'dc_id'
p19
I1
sS'id'
p20
I1
sbsS'dst'
p21
g2
(g9
g4
NtRp22
(dp23
g12
I2
sg13
S'h00200010'
p24
sg15
S'10.0.0.10'
p25
sg17
S'00:00:00:00:00:14'
p26
sg19
I1
sg20
I10
sbsS'start_tmie'
p27
I0
sS'size'
p28
F16733
sbsI1
g2
(g3
g4
NtRp29
(dp30
g7
I0
sg8
g2
(g9
g4
NtRp31
(dp32
g12
I1
sg13
S'h00100005'
p33
sg15
S'10.0.0.1'
p34
sg17
S'00:00:00:00:00:05'
p35
sg19
I1
sg20
I5
sbsg21
g2
(g9
g4
NtRp36
(dp37
g12
I1
sg13
S'h00100008'
p38
sg15
S'10.0.0.2'
p39
sg17
S'00:00:00:00:00:08'
p40
sg19
I1
sg20
I8
sbsg27
I0
sg28
F13929
sbsI2
g2
(g3
g4
NtRp41
(dp42
g7
I0
sg8
g2
(g9
g4
NtRp43
(dp44
g12
I1
sg13
S'h00100006'
p45
sg15
S'192.168.0.5'
p46
sg17
S'00:00:00:00:00:06'
p47
sg19
I1
sg20
I6
sbsg21
g2
(g9
g4
NtRp48
(dp49
g12
I1
sg13
S'h00100007'
p50
sg15
S'192.168.0.6'
p51
sg17
S'00:00:00:00:00:07'
p52
sg19
I1
sg20
I7
sbsg27
I0
sg28
F7773
sbsI3
g2
(g3
g4
NtRp53
(dp54
g7
I0
sg8
g2
(g9
g4
NtRp55
(dp56
g12
I2
sg13
S'h00200002'
p57
sg15
S'10.0.0.2'
p58
sg17
S'00:00:00:00:00:0c'
p59
sg19
I1
sg20
I2
sbsg21
g2
(g9
g4
NtRp60
(dp61
g12
I2
sg13
S'h00200005'
p62
sg15
S'10.0.0.5'
p63
sg17
S'00:00:00:00:00:0f'
p64
sg19
I1
sg20
I5
sbsg27
I0
sg28
F47538
sbsI4
g2
(g3
g4
NtRp65
(dp66
g7
I0
sg8
g36
sg21
g31
sg27
I1
sg28
F50865
sbsI5
g2
(g3
g4
NtRp67
(dp68
g7
I0
sg8
g2
(g9
g4
NtRp69
(dp70
g12
I1
sg13
S'h00100004'
p71
sg15
S'192.168.0.4'
p72
sg17
S'00:00:00:00:00:04'
p73
sg19
I1
sg20
I4
sbsg21
g2
(g9
g4
NtRp74
(dp75
g12
I1
sg13
S'h00100003'
p76
sg15
S'192.168.0.3'
p77
sg17
S'00:00:00:00:00:03'
p78
sg19
I1
sg20
I3
sbsg27
I1
sg28
F22840
sbsI6
g2
(g3
g4
NtRp79
(dp80
g7
I0
sg8
g48
sg21
g43
sg27
I1
sg28
F11999
sbsI7
g2
(g3
g4
NtRp81
(dp82
g7
I0
sg8
g2
(g9
g4
NtRp83
(dp84
g12
I2
sg13
S'h00200009'
p85
sg15
S'10.0.0.9'
p86
sg17
S'00:00:00:00:00:13'
p87
sg19
I1
sg20
I9
sbsg21
g2
(g9
g4
NtRp88
(dp89
g12
I2
sg13
S'h00200004'
p90
sg15
S'10.0.0.4'
p91
sg17
S'00:00:00:00:00:0e'
p92
sg19
I1
sg20
I4
sbsg27
I1
sg28
F16308
sbsI8
g2
(g3
g4
NtRp93
(dp94
g7
I0
sg8
g55
sg21
g22
sg27
I2
sg28
F165420
sbsI9
g2
(g3
g4
NtRp95
(dp96
g7
I0
sg8
g69
sg21
g48
sg27
I2
sg28
F70915
sbsI10
g2
(g3
g4
NtRp97
(dp98
g7
I0
sg8
g43
sg21
g69
sg27
I2
sg28
F21560
sbsI11
g2
(g3
g4
NtRp99
(dp100
g7
I0
sg8
g69
sg21
g74
sg27
I2
sg28
F29951
sbsI12
g2
(g3
g4
NtRp101
(dp102
g7
I0
sg8
g83
sg21
g88
sg27
I3
sg28
F60939
sbsI13
g2
(g3
g4
NtRp103
(dp104
g7
I0
sg8
g88
sg21
g83
sg27
I3
sg28
F5395
sbsI14
g2
(g3
g4
NtRp105
(dp106
g7
I0
sg8
g48
sg21
g43
sg27
I3
sg28
F38718
sbsI15
g2
(g3
g4
NtRp107
(dp108
g7
I0
sg8
g36
sg21
g31
sg27
I3
sg28
F6022
sbsI16
g2
(g3
g4
NtRp109
(dp110
g7
I0
sg8
g36
sg21
g31
sg27
I4
sg28
F22639
sbsI17
g2
(g3
g4
NtRp111
(dp112
g7
I0
sg8
g36
sg21
g31
sg27
I4
sg28
F17308
sbsI18
g2
(g3
g4
NtRp113
(dp114
g7
I0
sg8
g88
sg21
g83
sg27
I4
sg28
F9027
sbsI19
g2
(g3
g4
NtRp115
(dp116
g7
I0
sg8
g60
sg21
g55
sg27
I4
sg28
F37194
sbsI20
g2
(g3
g4
NtRp117
(dp118
g7
I0
sg8
g31
sg21
g36
sg27
I5
sg28
F1674
sbsI21
g2
(g3
g4
NtRp119
(dp120
g7
I0
sg8
g83
sg21
g55
sg27
I5
sg28
F23216
sbsI22
g2
(g3
g4
NtRp121
(dp122
g7
I0
sg8
g43
sg21
g69
sg27
I5
sg28
F54982
sbsI23
g2
(g3
g4
NtRp123
(dp124
g7
I0
sg8
g10
sg21
g88
sg27
I5
sg28
F20991
sbsI24
g2
(g3
g4
NtRp125
(dp126
g7
I0
sg8
g69
sg21
g43
sg27
I6
sg28
F118133
sbsI25
g2
(g3
g4
NtRp127
(dp128
g7
I0
sg8
g60
sg21
g88
sg27
I6
sg28
F38883
sbsI26
g2
(g3
g4
NtRp129
(dp130
g7
I0
sg8
g83
sg21
g60
sg27
I6
sg28
F24087
sbsI27
g2
(g3
g4
NtRp131
(dp132
g7
I0
sg8
g60
sg21
g10
sg27
I6
sg28
F12111
sbsI28
g2
(g3
g4
NtRp133
(dp134
g7
I0
sg8
g22
sg21
g88
sg27
I7
sg28
F62966
sbsI29
g2
(g3
g4
NtRp135
(dp136
g7
I0
sg8
g88
sg21
g83
sg27
I7
sg28
F9907
sbsI30
g2
(g3
g4
NtRp137
(dp138
g7
I0
sg8
g43
sg21
g74
sg27
I7
sg28
F438777
sbsI31
g2
(g3
g4
NtRp139
(dp140
g7
I0
sg8
g10
sg21
g88
sg27
I7
sg28
F31375
sbsI32
g2
(g3
g4
NtRp141
(dp142
g7
I0
sg8
g88
sg21
g60
sg27
I8
sg28
F24377
sbsI33
g2
(g3
g4
NtRp143
(dp144
g7
I0
sg8
g74
sg21
g69
sg27
I8
sg28
F44947
sbsI34
g2
(g3
g4
NtRp145
(dp146
g7
I0
sg8
g83
sg21
g10
sg27
I8
sg28
F4769
sbsI35
g2
(g3
g4
NtRp147
(dp148
g7
I0
sg8
g69
sg21
g48
sg27
I8
sg28
F8127
sbsI36
g2
(g3
g4
NtRp149
(dp150
g7
I0
sg8
g31
sg21
g36
sg27
I9
sg28
F7057
sbsI37
g2
(g3
g4
NtRp151
(dp152
g7
I0
sg8
g69
sg21
g43
sg27
I9
sg28
F30616
sbsI38
g2
(g3
g4
NtRp153
(dp154
g7
I0
sg8
g22
sg21
g83
sg27
I9
sg28
F7743
sbsI39
g2
(g3
g4
NtRp155
(dp156
g7
I0
sg8
g31
sg21
g36
sg27
I9
sg28
F38765
sbsI40
g2
(g3
g4
NtRp157
(dp158
g7
I0
sg8
g31
sg21
g36
sg27
I10
sg28
F206461
sbsI41
g2
(g3
g4
NtRp159
(dp160
g7
I0
sg8
g36
sg21
g31
sg27
I10
sg28
F17168
sbsI42
g2
(g3
g4
NtRp161
(dp162
g7
I0
sg8
g22
sg21
g88
sg27
I10
sg28
F90955
sbsI43
g2
(g3
g4
NtRp163
(dp164
g7
I0
sg8
g60
sg21
g83
sg27
I10
sg28
F32616
sbsI44
g2
(g3
g4
NtRp165
(dp166
g7
I0
sg8
g69
sg21
g74
sg27
I11
sg28
F9256
sbsI45
g2
(g3
g4
NtRp167
(dp168
g7
I0
sg8
g88
sg21
g60
sg27
I11
sg28
F9887
sbsI46
g2
(g3
g4
NtRp169
(dp170
g7
I0
sg8
g36
sg21
g31
sg27
I11
sg28
F19733
sbsI47
g2
(g3
g4
NtRp171
(dp172
g7
I0
sg8
g60
sg21
g22
sg27
I11
sg28
F38268
sbsI48
g2
(g3
g4
NtRp173
(dp174
g7
I0
sg8
g55
sg21
g83
sg27
I12
sg28
F76079
sbsI49
g2
(g3
g4
NtRp175
(dp176
g7
I0
sg8
g69
sg21
g43
sg27
I12
sg28
F13494
sbsI50
g2
(g3
g4
NtRp177
(dp178
g7
I0
sg8
g55
sg21
g88
sg27
I12
sg28
F106329
sbsI51
g2
(g3
g4
NtRp179
(dp180
g7
I0
sg8
g22
sg21
g55
sg27
I12
sg28
F15220
sbsI52
g2
(g3
g4
NtRp181
(dp182
g7
I0
sg8
g83
sg21
g60
sg27
I13
sg28
F14733
sbsI53
g2
(g3
g4
NtRp183
(dp184
g7
I0
sg8
g22
sg21
g88
sg27
I13
sg28
F39869
sbsI54
g2
(g3
g4
NtRp185
(dp186
g7
I0
sg8
g83
sg21
g88
sg27
I13
sg28
F40478
sbsI55
g2
(g3
g4
NtRp187
(dp188
g7
I0
sg8
g31
sg21
g36
sg27
I13
sg28
F32729
sbsI56
g2
(g3
g4
NtRp189
(dp190
g7
I0
sg8
g43
sg21
g48
sg27
I14
sg28
F13019
sbsI57
g2
(g3
g4
NtRp191
(dp192
g7
I0
sg8
g83
sg21
g10
sg27
I14
sg28
F48451
sbsI58
g2
(g3
g4
NtRp193
(dp194
g7
I0
sg8
g83
sg21
g22
sg27
I14
sg28
F79878
sbsI59
g2
(g3
g4
NtRp195
(dp196
g7
I0
sg8
g55
sg21
g60
sg27
I14
sg28
F16354
sbsI60
g2
(g3
g4
NtRp197
(dp198
g7
I0
sg8
g48
sg21
g43
sg27
I15
sg28
F24745
sbsI61
g2
(g3
g4
NtRp199
(dp200
g7
I0
sg8
g83
sg21
g60
sg27
I15
sg28
F6190
sbsI62
g2
(g3
g4
NtRp201
(dp202
g7
I0
sg8
g48
sg21
g74
sg27
I15
sg28
F36423
sbsI63
g2
(g3
g4
NtRp203
(dp204
g7
I0
sg8
g69
sg21
g43
sg27
I15
sg28
F56237
sbsI64
g2
(g3
g4
NtRp205
(dp206
g7
I0
sg8
g88
sg21
g83
sg27
I16
sg28
F221997
sbsI65
g2
(g3
g4
NtRp207
(dp208
g7
I0
sg8
g36
sg21
g31
sg27
I16
sg28
F186498
sbsI66
g2
(g3
g4
NtRp209
(dp210
g7
I0
sg8
g74
sg21
g43
sg27
I16
sg28
F18989
sbsI67
g2
(g3
g4
NtRp211
(dp212
g7
I0
sg8
g83
sg21
g60
sg27
I16
sg28
F51131
sbsI68
g2
(g3
g4
NtRp213
(dp214
g7
I0
sg8
g74
sg21
g69
sg27
I17
sg28
F9011
sbsI69
g2
(g3
g4
NtRp215
(dp216
g7
I0
sg8
g31
sg21
g36
sg27
I17
sg28
F7472
sbsI70
g2
(g3
g4
NtRp217
(dp218
g7
I0
sg8
g43
sg21
g74
sg27
I17
sg28
F48286
sbsI71
g2
(g3
g4
NtRp219
(dp220
g7
I0
sg8
g31
sg21
g36
sg27
I17
sg28
F279103
sbsI72
g2
(g3
g4
NtRp221
(dp222
g7
I0
sg8
g88
sg21
g55
sg27
I18
sg28
F44160
sbsI73
g2
(g3
g4
NtRp223
(dp224
g7
I0
sg8
g88
sg21
g55
sg27
I18
sg28
F19618
sbsI74
g2
(g3
g4
NtRp225
(dp226
g7
I0
sg8
g74
sg21
g69
sg27
I18
sg28
F6682
sbsI75
g2
(g3
g4
NtRp227
(dp228
g7
I0
sg8
g36
sg21
g31
sg27
I18
sg28
F62731
sbsI76
g2
(g3
g4
NtRp229
(dp230
g7
I0
sg8
g88
sg21
g60
sg27
I19
sg28
F8156
sbsI77
g2
(g3
g4
NtRp231
(dp232
g7
I0
sg8
g22
sg21
g60
sg27
I19
sg28
F69275
sbsI78
g2
(g3
g4
NtRp233
(dp234
g7
I0
sg8
g60
sg21
g83
sg27
I19
sg28
F22733
sbsI79
g2
(g3
g4
NtRp235
(dp236
g7
I0
sg8
g43
sg21
g74
sg27
I19
sg28
F5713
sbsI80
g2
(g3
g4
NtRp237
(dp238
g7
I0
sg8
g74
sg21
g43
sg27
I20
sg28
F31101
sbsI81
g2
(g3
g4
NtRp239
(dp240
g7
I0
sg8
g31
sg21
g36
sg27
I20
sg28
F5293
sbsI82
g2
(g3
g4
NtRp241
(dp242
g7
I0
sg8
g36
sg21
g31
sg27
I20
sg28
F5546
sbsI83
g2
(g3
g4
NtRp243
(dp244
g7
I0
sg8
g10
sg21
g83
sg27
I20
sg28
F29878
sbsI84
g2
(g3
g4
NtRp245
(dp246
g7
I0
sg8
g31
sg21
g36
sg27
I21
sg28
F4114
sbsI85
g2
(g3
g4
NtRp247
(dp248
g7
I0
sg8
g22
sg21
g10
sg27
I21
sg28
F33597
sbsI86
g2
(g3
g4
NtRp249
(dp250
g7
I0
sg8
g22
sg21
g88
sg27
I21
sg28
F101231
sbsI87
g2
(g3
g4
NtRp251
(dp252
g7
I0
sg8
g22
sg21
g88
sg27
I21
sg28
F17998
sbsI88
g2
(g3
g4
NtRp253
(dp254
g7
I0
sg8
g83
sg21
g10
sg27
I22
sg28
F17367
sbsI89
g2
(g3
g4
NtRp255
(dp256
g7
I0
sg8
g43
sg21
g74
sg27
I22
sg28
F69083
sbsI90
g2
(g3
g4
NtRp257
(dp258
g7
I0
sg8
g83
sg21
g10
sg27
I22
sg28
F46070
sbsI91
g2
(g3
g4
NtRp259
(dp260
g7
I0
sg8
g31
sg21
g36
sg27
I22
sg28
F10774
sbsI92
g2
(g3
g4
NtRp261
(dp262
g7
I0
sg8
g48
sg21
g69
sg27
I23
sg28
F8710
sbsI93
g2
(g3
g4
NtRp263
(dp264
g7
I0
sg8
g83
sg21
g88
sg27
I23
sg28
F56507
sbsI94
g2
(g3
g4
NtRp265
(dp266
g7
I0
sg8
g10
sg21
g55
sg27
I23
sg28
F50682
sbsI95
g2
(g3
g4
NtRp267
(dp268
g7
I0
sg8
g88
sg21
g55
sg27
I23
sg28
F19290
sbsI96
g2
(g3
g4
NtRp269
(dp270
g7
I0
sg8
g69
sg21
g48
sg27
I24
sg28
F16755
sbsI97
g2
(g3
g4
NtRp271
(dp272
g7
I0
sg8
g36
sg21
g31
sg27
I24
sg28
F14739
sbsI98
g2
(g3
g4
NtRp273
(dp274
g7
I0
sg8
g55
sg21
g83
sg27
I24
sg28
F35327
sbsI99
g2
(g3
g4
NtRp275
(dp276
g7
I0
sg8
g60
sg21
g88
sg27
I24
sg28
F4043
sbsI100
g2
(g3
g4
NtRp277
(dp278
g7
I0
sg8
g22
sg21
g55
sg27
I25
sg28
F11245
sbsI101
g2
(g3
g4
NtRp279
(dp280
g7
I0
sg8
g55
sg21
g60
sg27
I25
sg28
F8023
sbsI102
g2
(g3
g4
NtRp281
(dp282
g7
I0
sg8
g55
sg21
g83
sg27
I25
sg28
F17508
sbsI103
g2
(g3
g4
NtRp283
(dp284
g7
I0
sg8
g43
sg21
g48
sg27
I25
sg28
F36845
sbsI104
g2
(g3
g4
NtRp285
(dp286
g7
I0
sg8
g83
sg21
g60
sg27
I26
sg28
F78847
sbsI105
g2
(g3
g4
NtRp287
(dp288
g7
I0
sg8
g88
sg21
g83
sg27
I26
sg28
F18829
sbsI106
g2
(g3
g4
NtRp289
(dp290
g7
I0
sg8
g36
sg21
g31
sg27
I26
sg28
F22361
sbsI107
g2
(g3
g4
NtRp291
(dp292
g7
I0
sg8
g31
sg21
g36
sg27
I26
sg28
F6300
sbsI108
g2
(g3
g4
NtRp293
(dp294
g7
I0
sg8
g10
sg21
g83
sg27
I27
sg28
F65723
sbsI109
g2
(g3
g4
NtRp295
(dp296
g7
I0
sg8
g36
sg21
g31
sg27
I27
sg28
F27817
sbsI110
g2
(g3
g4
NtRp297
(dp298
g7
I0
sg8
g88
sg21
g55
sg27
I27
sg28
F67823
sbsI111
g2
(g3
g4
NtRp299
(dp300
g7
I0
sg8
g88
sg21
g83
sg27
I27
sg28
F72409
sbsI112
g2
(g3
g4
NtRp301
(dp302
g7
I0
sg8
g55
sg21
g88
sg27
I28
sg28
F8925
sbsI113
g2
(g3
g4
NtRp303
(dp304
g7
I0
sg8
g10
sg21
g88
sg27
I28
sg28
F43510
sbsI114
g2
(g3
g4
NtRp305
(dp306
g7
I0
sg8
g43
sg21
g74
sg27
I28
sg28
F18375
sbsI115
g2
(g3
g4
NtRp307
(dp308
g7
I0
sg8
g83
sg21
g55
sg27
I28
sg28
F94350
sbsI116
g2
(g3
g4
NtRp309
(dp310
g7
I0
sg8
g10
sg21
g83
sg27
I29
sg28
F14111
sbsI117
g2
(g3
g4
NtRp311
(dp312
g7
I0
sg8
g48
sg21
g69
sg27
I29
sg28
F40932
sbsI118
g2
(g3
g4
NtRp313
(dp314
g7
I0
sg8
g74
sg21
g69
sg27
I29
sg28
F21519
sbsI119
g2
(g3
g4
NtRp315
(dp316
g7
I0
sg8
g10
sg21
g60
sg27
I29
sg28
F5472
sbsI120
g2
(g3
g4
NtRp317
(dp318
g7
I0
sg8
g10
sg21
g55
sg27
I30
sg28
F29438
sbsI121
g2
(g3
g4
NtRp319
(dp320
g7
I0
sg8
g31
sg21
g36
sg27
I30
sg28
F46696
sbsI122
g2
(g3
g4
NtRp321
(dp322
g7
I0
sg8
g74
sg21
g43
sg27
I30
sg28
F45693
sbsI123
g2
(g3
g4
NtRp323
(dp324
g7
I0
sg8
g83
sg21
g88
sg27
I30
sg28
F36667
sbsI124
g2
(g3
g4
NtRp325
(dp326
g7
I0
sg8
g74
sg21
g69
sg27
I31
sg28
F20658
sbsI125
g2
(g3
g4
NtRp327
(dp328
g7
I0
sg8
g74
sg21
g48
sg27
I31
sg28
F25696
sbsI126
g2
(g3
g4
NtRp329
(dp330
g7
I0
sg8
g60
sg21
g10
sg27
I31
sg28
F22835
sbsI127
g2
(g3
g4
NtRp331
(dp332
g7
I0
sg8
g83
sg21
g10
sg27
I31
sg28
F8904
sbsI128
g2
(g3
g4
NtRp333
(dp334
g7
I0
sg8
g22
sg21
g10
sg27
I32
sg28
F49955
sbsI129
g2
(g3
g4
NtRp335
(dp336
g7
I0
sg8
g48
sg21
g43
sg27
I32
sg28
F24109
sbsI130
g2
(g3
g4
NtRp337
(dp338
g7
I0
sg8
g83
sg21
g88
sg27
I32
sg28
F12356
sbsI131
g2
(g3
g4
NtRp339
(dp340
g7
I0
sg8
g60
sg21
g55
sg27
I32
sg28
F6166
sbsI132
g2
(g3
g4
NtRp341
(dp342
g7
I0
sg8
g60
sg21
g55
sg27
I33
sg28
F8718
sbsI133
g2
(g3
g4
NtRp343
(dp344
g7
I0
sg8
g74
sg21
g48
sg27
I33
sg28
F27057
sbsI134
g2
(g3
g4
NtRp345
(dp346
g7
I0
sg8
g69
sg21
g43
sg27
I33
sg28
F10177
sbsI135
g2
(g3
g4
NtRp347
(dp348
g7
I0
sg8
g10
sg21
g22
sg27
I33
sg28
F35213
sbsI136
g2
(g3
g4
NtRp349
(dp350
g7
I0
sg8
g31
sg21
g36
sg27
I34
sg28
F14210
sbsI137
g2
(g3
g4
NtRp351
(dp352
g7
I0
sg8
g36
sg21
g31
sg27
I34
sg28
F4219
sbsI138
g2
(g3
g4
NtRp353
(dp354
g7
I0
sg8
g22
sg21
g88
sg27
I34
sg28
F4813
sbsI139
g2
(g3
g4
NtRp355
(dp356
g7
I0
sg8
g36
sg21
g31
sg27
I34
sg28
F9898
sbsI140
g2
(g3
g4
NtRp357
(dp358
g7
I0
sg8
g60
sg21
g55
sg27
I35
sg28
F30864
sbsI141
g2
(g3
g4
NtRp359
(dp360
g7
I0
sg8
g69
sg21
g48
sg27
I35
sg28
F4883
sbsI142
g2
(g3
g4
NtRp361
(dp362
g7
I0
sg8
g69
sg21
g48
sg27
I35
sg28
F18229
sbsI143
g2
(g3
g4
NtRp363
(dp364
g7
I0
sg8
g31
sg21
g36
sg27
I35
sg28
F7900
sbsI144
g2
(g3
g4
NtRp365
(dp366
g7
I0
sg8
g31
sg21
g36
sg27
I36
sg28
F34448
sbsI145
g2
(g3
g4
NtRp367
(dp368
g7
I0
sg8
g69
sg21
g48
sg27
I36
sg28
F22423
sbsI146
g2
(g3
g4
NtRp369
(dp370
g7
I0
sg8
g60
sg21
g10
sg27
I36
sg28
F14593
sbsI147
g2
(g3
g4
NtRp371
(dp372
g7
I0
sg8
g55
sg21
g83
sg27
I36
sg28
F16325
sbsI148
g2
(g3
g4
NtRp373
(dp374
g7
I0
sg8
g83
sg21
g88
sg27
I37
sg28
F57885
sbsI149
g2
(g3
g4
NtRp375
(dp376
g7
I0
sg8
g22
sg21
g60
sg27
I37
sg28
F9441
sbsI150
g2
(g3
g4
NtRp377
(dp378
g7
I0
sg8
g60
sg21
g88
sg27
I37
sg28
F33729
sbsI151
g2
(g3
g4
NtRp379
(dp380
g7
I0
sg8
g55
sg21
g10
sg27
I37
sg28
F10723
sbsI152
g2
(g3
g4
NtRp381
(dp382
g7
I0
sg8
g22
sg21
g60
sg27
I38
sg28
F45923
sbsI153
g2
(g3
g4
NtRp383
(dp384
g7
I0
sg8
g83
sg21
g60
sg27
I38
sg28
F18639
sbsI154
g2
(g3
g4
NtRp385
(dp386
g7
I0
sg8
g22
sg21
g10
sg27
I38
sg28
F7211
sbsI155
g2
(g3
g4
NtRp387
(dp388
g7
I0
sg8
g22
sg21
g60
sg27
I38
sg28
F15637
sbsI156
g2
(g3
g4
NtRp389
(dp390
g7
I0
sg8
g43
sg21
g74
sg27
I39
sg28
F28757
sbsI157
g2
(g3
g4
NtRp391
(dp392
g7
I0
sg8
g22
sg21
g88
sg27
I39
sg28
F23831
sbsI158
g2
(g3
g4
NtRp393
(dp394
g7
I0
sg8
g88
sg21
g83
sg27
I39
sg28
F12403
sbsI159
g2
(g3
g4
NtRp395
(dp396
g7
I0
sg8
g31
sg21
g36
sg27
I39
sg28
F17822
sbsI160
g2
(g3
g4
NtRp397
(dp398
g7
I0
sg8
g74
sg21
g48
sg27
I40
sg28
F59528
sbsI161
g2
(g3
g4
NtRp399
(dp400
g7
I0
sg8
g55
sg21
g60
sg27
I40
sg28
F21339
sbsI162
g2
(g3
g4
NtRp401
(dp402
g7
I0
sg8
g74
sg21
g48
sg27
I40
sg28
F9121
sbsI163
g2
(g3
g4
NtRp403
(dp404
g7
I0
sg8
g22
sg21
g55
sg27
I40
sg28
F65278
sbsI164
g2
(g3
g4
NtRp405
(dp406
g7
I0
sg8
g10
sg21
g83
sg27
I41
sg28
F40916
sbsI165
g2
(g3
g4
NtRp407
(dp408
g7
I0
sg8
g60
sg21
g10
sg27
I41
sg28
F14828
sbsI166
g2
(g3
g4
NtRp409
(dp410
g7
I0
sg8
g48
sg21
g74
sg27
I41
sg28
F16788
sbsI167
g2
(g3
g4
NtRp411
(dp412
g7
I0
sg8
g69
sg21
g48
sg27
I41
sg28
F18341
sbsI168
g2
(g3
g4
NtRp413
(dp414
g7
I0
sg8
g88
sg21
g22
sg27
I42
sg28
F7889
sbsI169
g2
(g3
g4
NtRp415
(dp416
g7
I0
sg8
g69
sg21
g43
sg27
I42
sg28
F21315
sbsI170
g2
(g3
g4
NtRp417
(dp418
g7
I0
sg8
g55
sg21
g10
sg27
I42
sg28
F42232
sbsI171
g2
(g3
g4
NtRp419
(dp420
g7
I0
sg8
g88
sg21
g60
sg27
I42
sg28
F52836
sbsI172
g2
(g3
g4
NtRp421
(dp422
g7
I0
sg8
g88
sg21
g10
sg27
I43
sg28
F15937
sbsI173
g2
(g3
g4
NtRp423
(dp424
g7
I0
sg8
g88
sg21
g10
sg27
I43
sg28
F31882
sbsI174
g2
(g3
g4
NtRp425
(dp426
g7
I0
sg8
g74
sg21
g69
sg27
I43
sg28
F3866
sbsI175
g2
(g3
g4
NtRp427
(dp428
g7
I0
sg8
g31
sg21
g36
sg27
I43
sg28
F16222
sbsI176
g2
(g3
g4
NtRp429
(dp430
g7
I0
sg8
g74
sg21
g43
sg27
I44
sg28
F25847
sbsI177
g2
(g3
g4
NtRp431
(dp432
g7
I0
sg8
g43
sg21
g48
sg27
I44
sg28
F37238
sbsI178
g2
(g3
g4
NtRp433
(dp434
g7
I0
sg8
g60
sg21
g83
sg27
I44
sg28
F33319
sbsI179
g2
(g3
g4
NtRp435
(dp436
g7
I0
sg8
g43
sg21
g74
sg27
I44
sg28
F15649
sbsI180
g2
(g3
g4
NtRp437
(dp438
g7
I0
sg8
g31
sg21
g36
sg27
I45
sg28
F346384
sbsI181
g2
(g3
g4
NtRp439
(dp440
g7
I0
sg8
g22
sg21
g60
sg27
I45
sg28
F36001
sbsI182
g2
(g3
g4
NtRp441
(dp442
g7
I0
sg8
g83
sg21
g60
sg27
I45
sg28
F2747
sbsI183
g2
(g3
g4
NtRp443
(dp444
g7
I0
sg8
g74
sg21
g48
sg27
I45
sg28
F71775
sbsI184
g2
(g3
g4
NtRp445
(dp446
g7
I0
sg8
g31
sg21
g36
sg27
I46
sg28
F32075
sbsI185
g2
(g3
g4
NtRp447
(dp448
g7
I0
sg8
g31
sg21
g36
sg27
I46
sg28
F7373
sbsI186
g2
(g3
g4
NtRp449
(dp450
g7
I0
sg8
g22
sg21
g10
sg27
I46
sg28
F71267
sbsI187
g2
(g3
g4
NtRp451
(dp452
g7
I0
sg8
g31
sg21
g36
sg27
I46
sg28
F4587
sbsI188
g2
(g3
g4
NtRp453
(dp454
g7
I0
sg8
g83
sg21
g22
sg27
I47
sg28
F28405
sbsI189
g2
(g3
g4
NtRp455
(dp456
g7
I0
sg8
g31
sg21
g36
sg27
I47
sg28
F59549
sbsI190
g2
(g3
g4
NtRp457
(dp458
g7
I0
sg8
g10
sg21
g55
sg27
I47
sg28
F4188
sbsI191
g2
(g3
g4
NtRp459
(dp460
g7
I0
sg8
g48
sg21
g43
sg27
I47
sg28
F29720
sbsI192
g2
(g3
g4
NtRp461
(dp462
g7
I0
sg8
g83
sg21
g55
sg27
I48
sg28
F121938
sbsI193
g2
(g3
g4
NtRp463
(dp464
g7
I0
sg8
g22
sg21
g83
sg27
I48
sg28
F11114
sbsI194
g2
(g3
g4
NtRp465
(dp466
g7
I0
sg8
g69
sg21
g48
sg27
I48
sg28
F7056
sbsI195
g2
(g3
g4
NtRp467
(dp468
g7
I0
sg8
g36
sg21
g31
sg27
I48
sg28
F19500
sbsI196
g2
(g3
g4
NtRp469
(dp470
g7
I0
sg8
g88
sg21
g22
sg27
I49
sg28
F12660
sbsI197
g2
(g3
g4
NtRp471
(dp472
g7
I0
sg8
g22
sg21
g10
sg27
I49
sg28
F11216
sbsI198
g2
(g3
g4
NtRp473
(dp474
g7
I0
sg8
g74
sg21
g69
sg27
I49
sg28
F28405
sbsI199
g2
(g3
g4
NtRp475
(dp476
g7
I0
sg8
g55
sg21
g22
sg27
I49
sg28
F30317
sbsI200
g2
(g3
g4
NtRp477
(dp478
g7
I0
sg8
g36
sg21
g31
sg27
I50
sg28
F30433
sbsI201
g2
(g3
g4
NtRp479
(dp480
g7
I0
sg8
g43
sg21
g74
sg27
I50
sg28
F16325
sbsI202
g2
(g3
g4
NtRp481
(dp482
g7
I0
sg8
g22
sg21
g83
sg27
I50
sg28
F29671
sbsI203
g2
(g3
g4
NtRp483
(dp484
g7
I0
sg8
g83
sg21
g88
sg27
I50
sg28
F124695
sbsI204
g2
(g3
g4
NtRp485
(dp486
g7
I0
sg8
g22
sg21
g60
sg27
I51
sg28
F60499
sbsI205
g2
(g3
g4
NtRp487
(dp488
g7
I0
sg8
g74
sg21
g69
sg27
I51
sg28
F15462
sbsI206
g2
(g3
g4
NtRp489
(dp490
g7
I0
sg8
g88
sg21
g10
sg27
I51
sg28
F4454
sbsI207
g2
(g3
g4
NtRp491
(dp492
g7
I0
sg8
g22
sg21
g60
sg27
I51
sg28
F11963
sbsI208
g2
(g3
g4
NtRp493
(dp494
g7
I0
sg8
g10
sg21
g55
sg27
I52
sg28
F227598
sbsI209
g2
(g3
g4
NtRp495
(dp496
g7
I0
sg8
g60
sg21
g88
sg27
I52
sg28
F17184
sbsI210
g2
(g3
g4
NtRp497
(dp498
g7
I0
sg8
g60
sg21
g88
sg27
I52
sg28
F62350
sbsI211
g2
(g3
g4
NtRp499
(dp500
g7
I0
sg8
g88
sg21
g60
sg27
I52
sg28
F25279
sbsI212
g2
(g3
g4
NtRp501
(dp502
g7
I0
sg8
g55
sg21
g88
sg27
I53
sg28
F105832
sbsI213
g2
(g3
g4
NtRp503
(dp504
g7
I0
sg8
g88
sg21
g22
sg27
I53
sg28
F17550
sbsI214
g2
(g3
g4
NtRp505
(dp506
g7
I0
sg8
g83
sg21
g60
sg27
I53
sg28
F3720
sbsI215
g2
(g3
g4
NtRp507
(dp508
g7
I0
sg8
g36
sg21
g31
sg27
I53
sg28
F34147
sbsI216
g2
(g3
g4
NtRp509
(dp510
g7
I0
sg8
g36
sg21
g31
sg27
I54
sg28
F16676
sbsI217
g2
(g3
g4
NtRp511
(dp512
g7
I0
sg8
g31
sg21
g36
sg27
I54
sg28
F4462
sbsI218
g2
(g3
g4
NtRp513
(dp514
g7
I0
sg8
g22
sg21
g55
sg27
I54
sg28
F20062
sbsI219
g2
(g3
g4
NtRp515
(dp516
g7
I0
sg8
g10
sg21
g88
sg27
I54
sg28
F6171
sbsI220
g2
(g3
g4
NtRp517
(dp518
g7
I0
sg8
g22
sg21
g83
sg27
I55
sg28
F53779
sbsI221
g2
(g3
g4
NtRp519
(dp520
g7
I0
sg8
g74
sg21
g48
sg27
I55
sg28
F5011
sbsI222
g2
(g3
g4
NtRp521
(dp522
g7
I0
sg8
g60
sg21
g83
sg27
I55
sg28
F19174
sbsI223
g2
(g3
g4
NtRp523
(dp524
g7
I0
sg8
g36
sg21
g31
sg27
I55
sg28
F16585
sbsI224
g2
(g3
g4
NtRp525
(dp526
g7
I0
sg8
g31
sg21
g36
sg27
I56
sg28
F55840
sbsI225
g2
(g3
g4
NtRp527
(dp528
g7
I0
sg8
g36
sg21
g31
sg27
I56
sg28
F12503
sbsI226
g2
(g3
g4
NtRp529
(dp530
g7
I0
sg8
g60
sg21
g55
sg27
I56
sg28
F123024
sbsI227
g2
(g3
g4
NtRp531
(dp532
g7
I0
sg8
g10
sg21
g55
sg27
I56
sg28
F16294
sbsI228
g2
(g3
g4
NtRp533
(dp534
g7
I0
sg8
g88
sg21
g83
sg27
I57
sg28
F8503
sbsI229
g2
(g3
g4
NtRp535
(dp536
g7
I0
sg8
g10
sg21
g60
sg27
I57
sg28
F10837
sbsI230
g2
(g3
g4
NtRp537
(dp538
g7
I0
sg8
g74
sg21
g69
sg27
I57
sg28
F5749
sbsI231
g2
(g3
g4
NtRp539
(dp540
g7
I0
sg8
g10
sg21
g88
sg27
I57
sg28
F700
sbsI232
g2
(g3
g4
NtRp541
(dp542
g7
I0
sg8
g36
sg21
g31
sg27
I58
sg28
F29453
sbsI233
g2
(g3
g4
NtRp543
(dp544
g7
I0
sg8
g43
sg21
g69
sg27
I58
sg28
F15412
sbsI234
g2
(g3
g4
NtRp545
(dp546
g7
I0
sg8
g36
sg21
g31
sg27
I58
sg28
F67462
sbsI235
g2
(g3
g4
NtRp547
(dp548
g7
I0
sg8
g10
sg21
g88
sg27
I58
sg28
F24293
sbsI236
g2
(g3
g4
NtRp549
(dp550
g7
I0
sg8
g69
sg21
g74
sg27
I59
sg28
F5478
sbsI237
g2
(g3
g4
NtRp551
(dp552
g7
I0
sg8
g83
sg21
g88
sg27
I59
sg28
F72816
sbsI238
g2
(g3
g4
NtRp553
(dp554
g7
I0
sg8
g10
sg21
g22
sg27
I59
sg28
F61400
sbsI239
g2
(g3
g4
NtRp555
(dp556
g7
I0
sg8
g55
sg21
g83
sg27
I59
sg28
F2369
sbs.