(dp1
I0
(lp2
I0
aI1
aI2
aI3
aI4
asI1
(lp3
I5
aI6
aI7
aI8
aI9
asI2
(lp4
I10
aI11
aI12
aI13
aI14
asI3
(lp5
I15
aI16
aI17
aI18
aI19
asI4
(lp6
I20
aI21
aI22
aI23
aI24
asI5
(lp7
I25
aI26
aI27
aI28
aI29
asI6
(lp8
I30
aI31
aI32
aI33
aI34
asI7
(lp9
I35
aI36
aI37
aI38
aI39
asI8
(lp10
I40
aI41
aI42
aI43
aI44
asI9
(lp11
I45
aI46
aI47
aI48
aI49
asI10
(lp12
I50
aI51
aI52
aI53
aI54
asI11
(lp13
I55
aI56
aI57
aI58
aI59
asI12
(lp14
I60
aI61
aI62
aI63
aI64
asI13
(lp15
I65
aI66
aI67
aI68
aI69
asI14
(lp16
I70
aI71
aI72
aI73
aI74
asI15
(lp17
I75
aI76
aI77
aI78
aI79
asI16
(lp18
I80
aI81
aI82
aI83
aI84
asI17
(lp19
I85
aI86
aI87
aI88
aI89
asI18
(lp20
I90
aI91
aI92
aI93
aI94
asI19
(lp21
I95
aI96
aI97
aI98
aI99
asI20
(lp22
I100
aI101
aI102
aI103
aI104
asI21
(lp23
I105
aI106
aI107
aI108
aI109
asI22
(lp24
I110
aI111
aI112
aI113
aI114
asI23
(lp25
I115
aI116
aI117
aI118
aI119
asI24
(lp26
I120
aI121
aI122
aI123
aI124
asI25
(lp27
I125
aI126
aI127
aI128
aI129
asI26
(lp28
I130
aI131
aI132
aI133
aI134
asI27
(lp29
I135
aI136
aI137
aI138
aI139
asI28
(lp30
I140
aI141
aI142
aI143
aI144
asI29
(lp31
I145
aI146
aI147
aI148
aI149
asI30
(lp32
I150
aI151
aI152
aI153
aI154
asI31
(lp33
I155
aI156
aI157
aI158
aI159
asI32
(lp34
I160
aI161
aI162
aI163
aI164
asI33
(lp35
I165
aI166
aI167
aI168
aI169
asI34
(lp36
I170
aI171
aI172
aI173
aI174
asI35
(lp37
I175
aI176
aI177
aI178
aI179
asI36
(lp38
I180
aI181
aI182
aI183
aI184
asI37
(lp39
I185
aI186
aI187
aI188
aI189
asI38
(lp40
I190
aI191
aI192
aI193
aI194
asI39
(lp41
I195
aI196
aI197
aI198
aI199
asI40
(lp42
I200
aI201
aI202
aI203
aI204
asI41
(lp43
I205
aI206
aI207
aI208
aI209
asI42
(lp44
I210
aI211
aI212
aI213
aI214
asI43
(lp45
I215
aI216
aI217
aI218
aI219
asI44
(lp46
I220
aI221
aI222
aI223
aI224
asI45
(lp47
I225
aI226
aI227
aI228
aI229
asI46
(lp48
I230
aI231
aI232
aI233
aI234
asI47
(lp49
I235
aI236
aI237
aI238
aI239
asI48
(lp50
I240
aI241
aI242
aI243
aI244
asI49
(lp51
I245
aI246
aI247
aI248
aI249
asI50
(lp52
I250
aI251
aI252
aI253
aI254
asI51
(lp53
I255
aI256
aI257
aI258
aI259
asI52
(lp54
I260
aI261
aI262
aI263
aI264
asI53
(lp55
I265
aI266
aI267
aI268
aI269
asI54
(lp56
I270
aI271
aI272
aI273
aI274
asI55
(lp57
I275
aI276
aI277
aI278
aI279
asI56
(lp58
I280
aI281
aI282
aI283
aI284
asI57
(lp59
I285
aI286
aI287
aI288
aI289
asI58
(lp60
I290
aI291
aI292
aI293
aI294
asI59
(lp61
I295
aI296
aI297
aI298
aI299
as.