(dp1
I0
ccopy_reg
_reconstructor
p2
(cAutoTest.Model.Flow
Flow
p3
c__builtin__
object
p4
NtRp5
(dp6
S'duration'
p7
I0
sS'src'
p8
g2
(cAutoTest.Model.Device
Host
p9
g4
NtRp10
(dp11
S't_id'
p12
I1
sS'name'
p13
S'h00100006'
p14
sS'ip'
p15
S'192.168.0.5'
p16
sS'mac'
p17
S'00:00:00:00:00:06'
p18
sS'dc_id'
p19
I1
sS'id'
p20
I6
sbsS'dst'
p21
g2
(g9
g4
NtRp22
(dp23
g12
I1
sg13
S'h00100003'
p24
sg15
S'192.168.0.3'
p25
sg17
S'00:00:00:00:00:03'
p26
sg19
I1
sg20
I3
sbsS'start_tmie'
p27
I0
sS'size'
p28
F14664
sbsI1
g2
(g3
g4
NtRp29
(dp30
g7
I0
sg8
g10
sg21
g2
(g9
g4
NtRp31
(dp32
g12
I1
sg13
S'h00100004'
p33
sg15
S'192.168.0.4'
p34
sg17
S'00:00:00:00:00:04'
p35
sg19
I1
sg20
I4
sbsg27
I0
sg28
F12039
sbsI2
g2
(g3
g4
NtRp36
(dp37
g7
I0
sg8
g2
(g9
g4
NtRp38
(dp39
g12
I2
sg13
S'h00200009'
p40
sg15
S'10.0.0.9'
p41
sg17
S'00:00:00:00:00:13'
p42
sg19
I1
sg20
I9
sbsg21
g2
(g9
g4
NtRp43
(dp44
g12
I2
sg13
S'h00200004'
p45
sg15
S'10.0.0.4'
p46
sg17
S'00:00:00:00:00:0e'
p47
sg19
I1
sg20
I4
sbsg27
I0
sg28
F26158
sbsI3
g2
(g3
g4
NtRp48
(dp49
g7
I0
sg8
g10
sg21
g2
(g9
g4
NtRp50
(dp51
g12
I1
sg13
S'h00100007'
p52
sg15
S'192.168.0.6'
p53
sg17
S'00:00:00:00:00:07'
p54
sg19
I1
sg20
I7
sbsg27
I0
sg28
F6187
sbsI4
g2
(g3
g4
NtRp55
(dp56
g7
I0
sg8
g50
sg21
g22
sg27
I1
sg28
F42674
sbsI5
g2
(g3
g4
NtRp57
(dp58
g7
I0
sg8
g2
(g9
g4
NtRp59
(dp60
g12
I1
sg13
S'h00100005'
p61
sg15
S'10.0.0.1'
p62
sg17
S'00:00:00:00:00:05'
p63
sg19
I1
sg20
I5
sbsg21
g2
(g9
g4
NtRp64
(dp65
g12
I1
sg13
S'h00100008'
p66
sg15
S'10.0.0.2'
p67
sg17
S'00:00:00:00:00:08'
p68
sg19
I1
sg20
I8
sbsg27
I1
sg28
F11221
sbsI6
g2
(g3
g4
NtRp69
(dp70
g7
I0
sg8
g50
sg21
g31
sg27
I1
sg28
F8263
sbsI7
g2
(g3
g4
NtRp71
(dp72
g7
I0
sg8
g2
(g9
g4
NtRp73
(dp74
g12
I2
sg13
S'h00200001'
p75
sg15
S'10.0.0.1'
p76
sg17
S'00:00:00:00:00:0b'
p77
sg19
I1
sg20
I1
sbsg21
g43
sg27
I1
sg28
F10060
sbsI8
g2
(g3
g4
NtRp78
(dp79
g7
I0
sg8
g22
sg21
g50
sg27
I2
sg28
F19018
sbsI9
g2
(g3
g4
NtRp80
(dp81
g7
I0
sg8
g2
(g9
g4
NtRp82
(dp83
g12
I2
sg13
S'h00200002'
p84
sg15
S'10.0.0.2'
p85
sg17
S'00:00:00:00:00:0c'
p86
sg19
I1
sg20
I2
sbsg21
g2
(g9
g4
NtRp87
(dp88
g12
I2
sg13
S'h00200005'
p89
sg15
S'10.0.0.5'
p90
sg17
S'00:00:00:00:00:0f'
p91
sg19
I1
sg20
I5
sbsg27
I2
sg28
F4922
sbsI10
g2
(g3
g4
NtRp92
(dp93
g7
I0
sg8
g82
sg21
g87
sg27
I2
sg28
F22595
sbsI11
g2
(g3
g4
NtRp94
(dp95
g7
I0
sg8
g87
sg21
g2
(g9
g4
NtRp96
(dp97
g12
I2
sg13
S'h00200010'
p98
sg15
S'10.0.0.10'
p99
sg17
S'00:00:00:00:00:14'
p100
sg19
I1
sg20
I10
sbsg27
I2
sg28
F39669
sbsI12
g2
(g3
g4
NtRp101
(dp102
g7
I0
sg8
g87
sg21
g73
sg27
I3
sg28
F10424
sbsI13
g2
(g3
g4
NtRp103
(dp104
g7
I0
sg8
g31
sg21
g22
sg27
I3
sg28
F28030
sbsI14
g2
(g3
g4
NtRp105
(dp106
g7
I0
sg8
g64
sg21
g59
sg27
I3
sg28
F5864
sbsI15
g2
(g3
g4
NtRp107
(dp108
g7
I0
sg8
g96
sg21
g82
sg27
I3
sg28
F16243
sbsI16
g2
(g3
g4
NtRp109
(dp110
g7
I0
sg8
g43
sg21
g96
sg27
I4
sg28
F85001
sbsI17
g2
(g3
g4
NtRp111
(dp112
g7
I0
sg8
g38
sg21
g82
sg27
I4
sg28
F61611
sbsI18
g2
(g3
g4
NtRp113
(dp114
g7
I0
sg8
g87
sg21
g43
sg27
I4
sg28
F23576
sbsI19
g2
(g3
g4
NtRp115
(dp116
g7
I0
sg8
g22
sg21
g31
sg27
I4
sg28
F22736
sbsI20
g2
(g3
g4
NtRp117
(dp118
g7
I0
sg8
g10
sg21
g22
sg27
I5
sg28
F22510
sbsI21
g2
(g3
g4
NtRp119
(dp120
g7
I0
sg8
g73
sg21
g87
sg27
I5
sg28
F67402
sbsI22
g2
(g3
g4
NtRp121
(dp122
g7
I0
sg8
g96
sg21
g82
sg27
I5
sg28
F9407
sbsI23
g2
(g3
g4
NtRp123
(dp124
g7
I0
sg8
g73
sg21
g43
sg27
I5
sg28
F25865
sbsI24
g2
(g3
g4
NtRp125
(dp126
g7
I0
sg8
g87
sg21
g96
sg27
I6
sg28
F61612
sbsI25
g2
(g3
g4
NtRp127
(dp128
g7
I0
sg8
g38
sg21
g87
sg27
I6
sg28
F57303
sbsI26
g2
(g3
g4
NtRp129
(dp130
g7
I0
sg8
g50
sg21
g22
sg27
I6
sg28
F30523
sbsI27
g2
(g3
g4
NtRp131
(dp132
g7
I0
sg8
g31
sg21
g10
sg27
I6
sg28
F13588
sbsI28
g2
(g3
g4
NtRp133
(dp134
g7
I0
sg8
g87
sg21
g82
sg27
I7
sg28
F67947
sbsI29
g2
(g3
g4
NtRp135
(dp136
g7
I0
sg8
g38
sg21
g43
sg27
I7
sg28
F4826
sbsI30
g2
(g3
g4
NtRp137
(dp138
g7
I0
sg8
g73
sg21
g43
sg27
I7
sg28
F7909
sbsI31
g2
(g3
g4
NtRp139
(dp140
g7
I0
sg8
g31
sg21
g10
sg27
I7
sg28
F12709
sbsI32
g2
(g3
g4
NtRp141
(dp142
g7
I0
sg8
g64
sg21
g59
sg27
I8
sg28
F52131
sbsI33
g2
(g3
g4
NtRp143
(dp144
g7
I0
sg8
g73
sg21
g38
sg27
I8
sg28
F5813
sbsI34
g2
(g3
g4
NtRp145
(dp146
g7
I0
sg8
g31
sg21
g50
sg27
I8
sg28
F21504
sbsI35
g2
(g3
g4
NtRp147
(dp148
g7
I0
sg8
g22
sg21
g31
sg27
I8
sg28
F29110
sbsI36
g2
(g3
g4
NtRp149
(dp150
g7
I0
sg8
g31
sg21
g22
sg27
I9
sg28
F7739
sbsI37
g2
(g3
g4
NtRp151
(dp152
g7
I0
sg8
g96
sg21
g73
sg27
I9
sg28
F8661
sbsI38
g2
(g3
g4
NtRp153
(dp154
g7
I0
sg8
g64
sg21
g59
sg27
I9
sg28
F45034
sbsI39
g2
(g3
g4
NtRp155
(dp156
g7
I0
sg8
g22
sg21
g10
sg27
I9
sg28
F10627
sbsI40
g2
(g3
g4
NtRp157
(dp158
g7
I0
sg8
g43
sg21
g73
sg27
I10
sg28
F48833
sbsI41
g2
(g3
g4
NtRp159
(dp160
g7
I0
sg8
g73
sg21
g87
sg27
I10
sg28
F18274
sbsI42
g2
(g3
g4
NtRp161
(dp162
g7
I0
sg8
g43
sg21
g87
sg27
I10
sg28
F78943
sbsI43
g2
(g3
g4
NtRp163
(dp164
g7
I0
sg8
g43
sg21
g82
sg27
I10
sg28
F50649
sbsI44
g2
(g3
g4
NtRp165
(dp166
g7
I0
sg8
g64
sg21
g59
sg27
I11
sg28
F3071
sbsI45
g2
(g3
g4
NtRp167
(dp168
g7
I0
sg8
g59
sg21
g64
sg27
I11
sg28
F11589
sbsI46
g2
(g3
g4
NtRp169
(dp170
g7
I0
sg8
g43
sg21
g82
sg27
I11
sg28
F9957
sbsI47
g2
(g3
g4
NtRp171
(dp172
g7
I0
sg8
g87
sg21
g73
sg27
I11
sg28
F8565
sbsI48
g2
(g3
g4
NtRp173
(dp174
g7
I0
sg8
g38
sg21
g87
sg27
I12
sg28
F90212
sbsI49
g2
(g3
g4
NtRp175
(dp176
g7
I0
sg8
g73
sg21
g82
sg27
I12
sg28
F7957
sbsI50
g2
(g3
g4
NtRp177
(dp178
g7
I0
sg8
g22
sg21
g50
sg27
I12
sg28
F26379
sbsI51
g2
(g3
g4
NtRp179
(dp180
g7
I0
sg8
g64
sg21
g59
sg27
I12
sg28
F79710
sbsI52
g2
(g3
g4
NtRp181
(dp182
g7
I0
sg8
g10
sg21
g31
sg27
I13
sg28
F131668
sbsI53
g2
(g3
g4
NtRp183
(dp184
g7
I0
sg8
g38
sg21
g73
sg27
I13
sg28
F13057
sbsI54
g2
(g3
g4
NtRp185
(dp186
g7
I0
sg8
g96
sg21
g87
sg27
I13
sg28
F52944
sbsI55
g2
(g3
g4
NtRp187
(dp188
g7
I0
sg8
g38
sg21
g96
sg27
I13
sg28
F8584
sbsI56
g2
(g3
g4
NtRp189
(dp190
g7
I0
sg8
g31
sg21
g22
sg27
I14
sg28
F12818
sbsI57
g2
(g3
g4
NtRp191
(dp192
g7
I0
sg8
g10
sg21
g22
sg27
I14
sg28
F53515
sbsI58
g2
(g3
g4
NtRp193
(dp194
g7
I0
sg8
g59
sg21
g64
sg27
I14
sg28
F34108
sbsI59
g2
(g3
g4
NtRp195
(dp196
g7
I0
sg8
g10
sg21
g31
sg27
I14
sg28
F15295
sbsI60
g2
(g3
g4
NtRp197
(dp198
g7
I0
sg8
g10
sg21
g50
sg27
I15
sg28
F36202
sbsI61
g2
(g3
g4
NtRp199
(dp200
g7
I0
sg8
g64
sg21
g59
sg27
I15
sg28
F10217
sbsI62
g2
(g3
g4
NtRp201
(dp202
g7
I0
sg8
g22
sg21
g50
sg27
I15
sg28
F20186
sbsI63
g2
(g3
g4
NtRp203
(dp204
g7
I0
sg8
g31
sg21
g22
sg27
I15
sg28
F67914
sbsI64
g2
(g3
g4
NtRp205
(dp206
g7
I0
sg8
g38
sg21
g96
sg27
I16
sg28
F42823
sbsI65
g2
(g3
g4
NtRp207
(dp208
g7
I0
sg8
g10
sg21
g50
sg27
I16
sg28
F18669
sbsI66
g2
(g3
g4
NtRp209
(dp210
g7
I0
sg8
g31
sg21
g50
sg27
I16
sg28
F7822
sbsI67
g2
(g3
g4
NtRp211
(dp212
g7
I0
sg8
g43
sg21
g73
sg27
I16
sg28
F25659
sbsI68
g2
(g3
g4
NtRp213
(dp214
g7
I0
sg8
g22
sg21
g31
sg27
I17
sg28
F32782
sbsI69
g2
(g3
g4
NtRp215
(dp216
g7
I0
sg8
g10
sg21
g50
sg27
I17
sg28
F12021
sbsI70
g2
(g3
g4
NtRp217
(dp218
g7
I0
sg8
g64
sg21
g59
sg27
I17
sg28
F65012
sbsI71
g2
(g3
g4
NtRp219
(dp220
g7
I0
sg8
g59
sg21
g64
sg27
I17
sg28
F48892
sbsI72
g2
(g3
g4
NtRp221
(dp222
g7
I0
sg8
g82
sg21
g38
sg27
I18
sg28
F30781
sbsI73
g2
(g3
g4
NtRp223
(dp224
g7
I0
sg8
g73
sg21
g82
sg27
I18
sg28
F20040
sbsI74
g2
(g3
g4
NtRp225
(dp226
g7
I0
sg8
g64
sg21
g59
sg27
I18
sg28
F4684
sbsI75
g2
(g3
g4
NtRp227
(dp228
g7
I0
sg8
g43
sg21
g38
sg27
I18
sg28
F2372
sbsI76
g2
(g3
g4
NtRp229
(dp230
g7
I0
sg8
g64
sg21
g59
sg27
I19
sg28
F13900
sbsI77
g2
(g3
g4
NtRp231
(dp232
g7
I0
sg8
g73
sg21
g96
sg27
I19
sg28
F41638
sbsI78
g2
(g3
g4
NtRp233
(dp234
g7
I0
sg8
g96
sg21
g38
sg27
I19
sg28
F6775
sbsI79
g2
(g3
g4
NtRp235
(dp236
g7
I0
sg8
g38
sg21
g87
sg27
I19
sg28
F24047
sbsI80
g2
(g3
g4
NtRp237
(dp238
g7
I0
sg8
g43
sg21
g96
sg27
I20
sg28
F103716
sbsI81
g2
(g3
g4
NtRp239
(dp240
g7
I0
sg8
g38
sg21
g73
sg27
I20
sg28
F57923
sbsI82
g2
(g3
g4
NtRp241
(dp242
g7
I0
sg8
g43
sg21
g73
sg27
I20
sg28
F27307
sbsI83
g2
(g3
g4
NtRp243
(dp244
g7
I0
sg8
g22
sg21
g50
sg27
I20
sg28
F9150
sbsI84
g2
(g3
g4
NtRp245
(dp246
g7
I0
sg8
g59
sg21
g64
sg27
I21
sg28
F31475
sbsI85
g2
(g3
g4
NtRp247
(dp248
g7
I0
sg8
g22
sg21
g10
sg27
I21
sg28
F17221
sbsI86
g2
(g3
g4
NtRp249
(dp250
g7
I0
sg8
g43
sg21
g38
sg27
I21
sg28
F2811
sbsI87
g2
(g3
g4
NtRp251
(dp252
g7
I0
sg8
g87
sg21
g73
sg27
I21
sg28
F21900
sbsI88
g2
(g3
g4
NtRp253
(dp254
g7
I0
sg8
g64
sg21
g59
sg27
I22
sg28
F14130
sbsI89
g2
(g3
g4
NtRp255
(dp256
g7
I0
sg8
g64
sg21
g59
sg27
I22
sg28
F5006
sbsI90
g2
(g3
g4
NtRp257
(dp258
g7
I0
sg8
g87
sg21
g73
sg27
I22
sg28
F49911
sbsI91
g2
(g3
g4
NtRp259
(dp260
g7
I0
sg8
g38
sg21
g96
sg27
I22
sg28
F10925
sbsI92
g2
(g3
g4
NtRp261
(dp262
g7
I0
sg8
g22
sg21
g50
sg27
I23
sg28
F2931
sbsI93
g2
(g3
g4
NtRp263
(dp264
g7
I0
sg8
g38
sg21
g82
sg27
I23
sg28
F3026
sbsI94
g2
(g3
g4
NtRp265
(dp266
g7
I0
sg8
g10
sg21
g22
sg27
I23
sg28
F42275
sbsI95
g2
(g3
g4
NtRp267
(dp268
g7
I0
sg8
g43
sg21
g82
sg27
I23
sg28
F7001
sbsI96
g2
(g3
g4
NtRp269
(dp270
g7
I0
sg8
g10
sg21
g50
sg27
I24
sg28
F19915
sbsI97
g2
(g3
g4
NtRp271
(dp272
g7
I0
sg8
g64
sg21
g59
sg27
I24
sg28
F55487
sbsI98
g2
(g3
g4
NtRp273
(dp274
g7
I0
sg8
g73
sg21
g82
sg27
I24
sg28
F23067
sbsI99
g2
(g3
g4
NtRp275
(dp276
g7
I0
sg8
g31
sg21
g50
sg27
I24
sg28
F6282
sbsI100
g2
(g3
g4
NtRp277
(dp278
g7
I0
sg8
g10
sg21
g50
sg27
I25
sg28
F18615
sbsI101
g2
(g3
g4
NtRp279
(dp280
g7
I0
sg8
g64
sg21
g59
sg27
I25
sg28
F39435
sbsI102
g2
(g3
g4
NtRp281
(dp282
g7
I0
sg8
g64
sg21
g59
sg27
I25
sg28
F38047
sbsI103
g2
(g3
g4
NtRp283
(dp284
g7
I0
sg8
g22
sg21
g31
sg27
I25
sg28
F15413
sbsI104
g2
(g3
g4
NtRp285
(dp286
g7
I0
sg8
g38
sg21
g87
sg27
I26
sg28
F25397
sbsI105
g2
(g3
g4
NtRp287
(dp288
g7
I0
sg8
g22
sg21
g50
sg27
I26
sg28
F23150
sbsI106
g2
(g3
g4
NtRp289
(dp290
g7
I0
sg8
g82
sg21
g73
sg27
I26
sg28
F16456
sbsI107
g2
(g3
g4
NtRp291
(dp292
g7
I0
sg8
g87
sg21
g82
sg27
I26
sg28
F47122
sbsI108
g2
(g3
g4
NtRp293
(dp294
g7
I0
sg8
g50
sg21
g31
sg27
I27
sg28
F67263
sbsI109
g2
(g3
g4
NtRp295
(dp296
g7
I0
sg8
g50
sg21
g22
sg27
I27
sg28
F28390
sbsI110
g2
(g3
g4
NtRp297
(dp298
g7
I0
sg8
g82
sg21
g43
sg27
I27
sg28
F8338
sbsI111
g2
(g3
g4
NtRp299
(dp300
g7
I0
sg8
g38
sg21
g43
sg27
I27
sg28
F76897
sbsI112
g2
(g3
g4
NtRp301
(dp302
g7
I0
sg8
g43
sg21
g73
sg27
I28
sg28
F47097
sbsI113
g2
(g3
g4
NtRp303
(dp304
g7
I0
sg8
g38
sg21
g43
sg27
I28
sg28
F37270
sbsI114
g2
(g3
g4
NtRp305
(dp306
g7
I0
sg8
g59
sg21
g64
sg27
I28
sg28
F121257
sbsI115
g2
(g3
g4
NtRp307
(dp308
g7
I0
sg8
g64
sg21
g59
sg27
I28
sg28
F19244
sbsI116
g2
(g3
g4
NtRp309
(dp310
g7
I0
sg8
g38
sg21
g82
sg27
I29
sg28
F2087
sbsI117
g2
(g3
g4
NtRp311
(dp312
g7
I0
sg8
g38
sg21
g82
sg27
I29
sg28
F4859
sbsI118
g2
(g3
g4
NtRp313
(dp314
g7
I0
sg8
g87
sg21
g38
sg27
I29
sg28
F141068
sbsI119
g2
(g3
g4
NtRp315
(dp316
g7
I0
sg8
g10
sg21
g22
sg27
I29
sg28
F35253
sbsI120
g2
(g3
g4
NtRp317
(dp318
g7
I0
sg8
g73
sg21
g87
sg27
I30
sg28
F643434
sbsI121
g2
(g3
g4
NtRp319
(dp320
g7
I0
sg8
g38
sg21
g73
sg27
I30
sg28
F229762
sbsI122
g2
(g3
g4
NtRp321
(dp322
g7
I0
sg8
g73
sg21
g38
sg27
I30
sg28
F4277
sbsI123
g2
(g3
g4
NtRp323
(dp324
g7
I0
sg8
g96
sg21
g43
sg27
I30
sg28
F98967
sbsI124
g2
(g3
g4
NtRp325
(dp326
g7
I0
sg8
g10
sg21
g31
sg27
I31
sg28
F16124
sbsI125
g2
(g3
g4
NtRp327
(dp328
g7
I0
sg8
g22
sg21
g50
sg27
I31
sg28
F12384
sbsI126
g2
(g3
g4
NtRp329
(dp330
g7
I0
sg8
g43
sg21
g82
sg27
I31
sg28
F48204
sbsI127
g2
(g3
g4
NtRp331
(dp332
g7
I0
sg8
g10
sg21
g31
sg27
I31
sg28
F6168
sbsI128
g2
(g3
g4
NtRp333
(dp334
g7
I0
sg8
g31
sg21
g22
sg27
I32
sg28
F22106
sbsI129
g2
(g3
g4
NtRp335
(dp336
g7
I0
sg8
g31
sg21
g22
sg27
I32
sg28
F2525
sbsI130
g2
(g3
g4
NtRp337
(dp338
g7
I0
sg8
g64
sg21
g59
sg27
I32
sg28
F19593
sbsI131
g2
(g3
g4
NtRp339
(dp340
g7
I0
sg8
g59
sg21
g64
sg27
I32
sg28
F4462
sbsI132
g2
(g3
g4
NtRp341
(dp342
g7
I0
sg8
g73
sg21
g96
sg27
I33
sg28
F16239
sbsI133
g2
(g3
g4
NtRp343
(dp344
g7
I0
sg8
g10
sg21
g50
sg27
I33
sg28
F11618
sbsI134
g2
(g3
g4
NtRp345
(dp346
g7
I0
sg8
g50
sg21
g10
sg27
I33
sg28
F18323
sbsI135
g2
(g3
g4
NtRp347
(dp348
g7
I0
sg8
g38
sg21
g96
sg27
I33
sg28
F19594
sbsI136
g2
(g3
g4
NtRp349
(dp350
g7
I0
sg8
g59
sg21
g64
sg27
I34
sg28
F8632
sbsI137
g2
(g3
g4
NtRp351
(dp352
g7
I0
sg8
g10
sg21
g31
sg27
I34
sg28
F5850
sbsI138
g2
(g3
g4
NtRp353
(dp354
g7
I0
sg8
g87
sg21
g73
sg27
I34
sg28
F34832
sbsI139
g2
(g3
g4
NtRp355
(dp356
g7
I0
sg8
g96
sg21
g38
sg27
I34
sg28
F27203
sbsI140
g2
(g3
g4
NtRp357
(dp358
g7
I0
sg8
g50
sg21
g22
sg27
I35
sg28
F13869
sbsI141
g2
(g3
g4
NtRp359
(dp360
g7
I0
sg8
g43
sg21
g96
sg27
I35
sg28
F39122
sbsI142
g2
(g3
g4
NtRp361
(dp362
g7
I0
sg8
g82
sg21
g43
sg27
I35
sg28
F18273
sbsI143
g2
(g3
g4
NtRp363
(dp364
g7
I0
sg8
g64
sg21
g59
sg27
I35
sg28
F31825
sbsI144
g2
(g3
g4
NtRp365
(dp366
g7
I0
sg8
g82
sg21
g87
sg27
I36
sg28
F29714
sbsI145
g2
(g3
g4
NtRp367
(dp368
g7
I0
sg8
g38
sg21
g73
sg27
I36
sg28
F48256
sbsI146
g2
(g3
g4
NtRp369
(dp370
g7
I0
sg8
g59
sg21
g64
sg27
I36
sg28
F4674
sbsI147
g2
(g3
g4
NtRp371
(dp372
g7
I0
sg8
g38
sg21
g82
sg27
I36
sg28
F24354
sbsI148
g2
(g3
g4
NtRp373
(dp374
g7
I0
sg8
g73
sg21
g38
sg27
I37
sg28
F29142
sbsI149
g2
(g3
g4
NtRp375
(dp376
g7
I0
sg8
g43
sg21
g38
sg27
I37
sg28
F12161
sbsI150
g2
(g3
g4
NtRp377
(dp378
g7
I0
sg8
g87
sg21
g43
sg27
I37
sg28
F73110
sbsI151
g2
(g3
g4
NtRp379
(dp380
g7
I0
sg8
g73
sg21
g43
sg27
I37
sg28
F17564
sbsI152
g2
(g3
g4
NtRp381
(dp382
g7
I0
sg8
g73
sg21
g43
sg27
I38
sg28
F1493
sbsI153
g2
(g3
g4
NtRp383
(dp384
g7
I0
sg8
g10
sg21
g50
sg27
I38
sg28
F51005
sbsI154
g2
(g3
g4
NtRp385
(dp386
g7
I0
sg8
g22
sg21
g50
sg27
I38
sg28
F17944
sbsI155
g2
(g3
g4
NtRp387
(dp388
g7
I0
sg8
g10
sg21
g50
sg27
I38
sg28
F77252
sbsI156
g2
(g3
g4
NtRp389
(dp390
g7
I0
sg8
g38
sg21
g87
sg27
I39
sg28
F40202
sbsI157
g2
(g3
g4
NtRp391
(dp392
g7
I0
sg8
g59
sg21
g64
sg27
I39
sg28
F24457
sbsI158
g2
(g3
g4
NtRp393
(dp394
g7
I0
sg8
g96
sg21
g43
sg27
I39
sg28
F2002
sbsI159
g2
(g3
g4
NtRp395
(dp396
g7
I0
sg8
g64
sg21
g59
sg27
I39
sg28
F32501
sbsI160
g2
(g3
g4
NtRp397
(dp398
g7
I0
sg8
g43
sg21
g82
sg27
I40
sg28
F43724
sbsI161
g2
(g3
g4
NtRp399
(dp400
g7
I0
sg8
g59
sg21
g64
sg27
I40
sg28
F46437
sbsI162
g2
(g3
g4
NtRp401
(dp402
g7
I0
sg8
g64
sg21
g59
sg27
I40
sg28
F31182
sbsI163
g2
(g3
g4
NtRp403
(dp404
g7
I0
sg8
g22
sg21
g10
sg27
I40
sg28
F27769
sbsI164
g2
(g3
g4
NtRp405
(dp406
g7
I0
sg8
g59
sg21
g64
sg27
I41
sg28
F17242
sbsI165
g2
(g3
g4
NtRp407
(dp408
g7
I0
sg8
g50
sg21
g10
sg27
I41
sg28
F36242
sbsI166
g2
(g3
g4
NtRp409
(dp410
g7
I0
sg8
g87
sg21
g43
sg27
I41
sg28
F98361
sbsI167
g2
(g3
g4
NtRp411
(dp412
g7
I0
sg8
g38
sg21
g87
sg27
I41
sg28
F23784
sbsI168
g2
(g3
g4
NtRp413
(dp414
g7
I0
sg8
g87
sg21
g43
sg27
I42
sg28
F89029
sbsI169
g2
(g3
g4
NtRp415
(dp416
g7
I0
sg8
g10
sg21
g22
sg27
I42
sg28
F17429
sbsI170
g2
(g3
g4
NtRp417
(dp418
g7
I0
sg8
g96
sg21
g43
sg27
I42
sg28
F12208
sbsI171
g2
(g3
g4
NtRp419
(dp420
g7
I0
sg8
g22
sg21
g50
sg27
I42
sg28
F11363
sbsI172
g2
(g3
g4
NtRp421
(dp422
g7
I0
sg8
g73
sg21
g82
sg27
I43
sg28
F69812
sbsI173
g2
(g3
g4
NtRp423
(dp424
g7
I0
sg8
g43
sg21
g82
sg27
I43
sg28
F122545
sbsI174
g2
(g3
g4
NtRp425
(dp426
g7
I0
sg8
g96
sg21
g87
sg27
I43
sg28
F57835
sbsI175
g2
(g3
g4
NtRp427
(dp428
g7
I0
sg8
g38
sg21
g73
sg27
I43
sg28
F10459
sbsI176
g2
(g3
g4
NtRp429
(dp430
g7
I0
sg8
g38
sg21
g73
sg27
I44
sg28
F23968
sbsI177
g2
(g3
g4
NtRp431
(dp432
g7
I0
sg8
g82
sg21
g87
sg27
I44
sg28
F18997
sbsI178
g2
(g3
g4
NtRp433
(dp434
g7
I0
sg8
g22
sg21
g10
sg27
I44
sg28
F8534
sbsI179
g2
(g3
g4
NtRp435
(dp436
g7
I0
sg8
g38
sg21
g43
sg27
I44
sg28
F11053
sbsI180
g2
(g3
g4
NtRp437
(dp438
g7
I0
sg8
g59
sg21
g64
sg27
I45
sg28
F48882
sbsI181
g2
(g3
g4
NtRp439
(dp440
g7
I0
sg8
g59
sg21
g64
sg27
I45
sg28
F12368
sbsI182
g2
(g3
g4
NtRp441
(dp442
g7
I0
sg8
g82
sg21
g96
sg27
I45
sg28
F3796
sbsI183
g2
(g3
g4
NtRp443
(dp444
g7
I0
sg8
g59
sg21
g64
sg27
I45
sg28
F14004
sbsI184
g2
(g3
g4
NtRp445
(dp446
g7
I0
sg8
g22
sg21
g31
sg27
I46
sg28
F6001
sbsI185
g2
(g3
g4
NtRp447
(dp448
g7
I0
sg8
g87
sg21
g73
sg27
I46
sg28
F7126
sbsI186
g2
(g3
g4
NtRp449
(dp450
g7
I0
sg8
g59
sg21
g64
sg27
I46
sg28
F32286
sbsI187
g2
(g3
g4
NtRp451
(dp452
g7
I0
sg8
g38
sg21
g87
sg27
I46
sg28
F63035
sbsI188
g2
(g3
g4
NtRp453
(dp454
g7
I0
sg8
g87
sg21
g38
sg27
I47
sg28
F43466
sbsI189
g2
(g3
g4
NtRp455
(dp456
g7
I0
sg8
g22
sg21
g10
sg27
I47
sg28
F16234
sbsI190
g2
(g3
g4
NtRp457
(dp458
g7
I0
sg8
g10
sg21
g31
sg27
I47
sg28
F63364
sbsI191
g2
(g3
g4
NtRp459
(dp460
g7
I0
sg8
g43
sg21
g82
sg27
I47
sg28
F6900
sbsI192
g2
(g3
g4
NtRp461
(dp462
g7
I0
sg8
g31
sg21
g10
sg27
I48
sg28
F24887
sbsI193
g2
(g3
g4
NtRp463
(dp464
g7
I0
sg8
g73
sg21
g87
sg27
I48
sg28
F9808
sbsI194
g2
(g3
g4
NtRp465
(dp466
g7
I0
sg8
g73
sg21
g87
sg27
I48
sg28
F3978
sbsI195
g2
(g3
g4
NtRp467
(dp468
g7
I0
sg8
g96
sg21
g73
sg27
I48
sg28
F7137
sbsI196
g2
(g3
g4
NtRp469
(dp470
g7
I0
sg8
g96
sg21
g82
sg27
I49
sg28
F10572
sbsI197
g2
(g3
g4
NtRp471
(dp472
g7
I0
sg8
g38
sg21
g82
sg27
I49
sg28
F7058
sbsI198
g2
(g3
g4
NtRp473
(dp474
g7
I0
sg8
g43
sg21
g96
sg27
I49
sg28
F11281
sbsI199
g2
(g3
g4
NtRp475
(dp476
g7
I0
sg8
g64
sg21
g59
sg27
I49
sg28
F12531
sbsI200
g2
(g3
g4
NtRp477
(dp478
g7
I0
sg8
g22
sg21
g10
sg27
I50
sg28
F19625
sbsI201
g2
(g3
g4
NtRp479
(dp480
g7
I0
sg8
g10
sg21
g50
sg27
I50
sg28
F30056
sbsI202
g2
(g3
g4
NtRp481
(dp482
g7
I0
sg8
g31
sg21
g10
sg27
I50
sg28
F95837
sbsI203
g2
(g3
g4
NtRp483
(dp484
g7
I0
sg8
g50
sg21
g10
sg27
I50
sg28
F7555
sbsI204
g2
(g3
g4
NtRp485
(dp486
g7
I0
sg8
g73
sg21
g82
sg27
I51
sg28
F31563
sbsI205
g2
(g3
g4
NtRp487
(dp488
g7
I0
sg8
g59
sg21
g64
sg27
I51
sg28
F17990
sbsI206
g2
(g3
g4
NtRp489
(dp490
g7
I0
sg8
g50
sg21
g31
sg27
I51
sg28
F26791
sbsI207
g2
(g3
g4
NtRp491
(dp492
g7
I0
sg8
g59
sg21
g64
sg27
I51
sg28
F127020
sbsI208
g2
(g3
g4
NtRp493
(dp494
g7
I0
sg8
g38
sg21
g96
sg27
I52
sg28
F49698
sbsI209
g2
(g3
g4
NtRp495
(dp496
g7
I0
sg8
g87
sg21
g96
sg27
I52
sg28
F55258
sbsI210
g2
(g3
g4
NtRp497
(dp498
g7
I0
sg8
g22
sg21
g31
sg27
I52
sg28
F68506
sbsI211
g2
(g3
g4
NtRp499
(dp500
g7
I0
sg8
g73
sg21
g82
sg27
I52
sg28
F32856
sbsI212
g2
(g3
g4
NtRp501
(dp502
g7
I0
sg8
g82
sg21
g87
sg27
I53
sg28
F20092
sbsI213
g2
(g3
g4
NtRp503
(dp504
g7
I0
sg8
g31
sg21
g10
sg27
I53
sg28
F19528
sbsI214
g2
(g3
g4
NtRp505
(dp506
g7
I0
sg8
g10
sg21
g50
sg27
I53
sg28
F25350
sbsI215
g2
(g3
g4
NtRp507
(dp508
g7
I0
sg8
g10
sg21
g31
sg27
I53
sg28
F25317
sbsI216
g2
(g3
g4
NtRp509
(dp510
g7
I0
sg8
g43
sg21
g73
sg27
I54
sg28
F27154
sbsI217
g2
(g3
g4
NtRp511
(dp512
g7
I0
sg8
g87
sg21
g82
sg27
I54
sg28
F109739
sbsI218
g2
(g3
g4
NtRp513
(dp514
g7
I0
sg8
g73
sg21
g38
sg27
I54
sg28
F5359
sbsI219
g2
(g3
g4
NtRp515
(dp516
g7
I0
sg8
g64
sg21
g59
sg27
I54
sg28
F75513
sbsI220
g2
(g3
g4
NtRp517
(dp518
g7
I0
sg8
g96
sg21
g73
sg27
I55
sg28
F202511
sbsI221
g2
(g3
g4
NtRp519
(dp520
g7
I0
sg8
g43
sg21
g38
sg27
I55
sg28
F82930
sbsI222
g2
(g3
g4
NtRp521
(dp522
g7
I0
sg8
g43
sg21
g96
sg27
I55
sg28
F31827
sbsI223
g2
(g3
g4
NtRp523
(dp524
g7
I0
sg8
g31
sg21
g22
sg27
I55
sg28
F9816
sbsI224
g2
(g3
g4
NtRp525
(dp526
g7
I0
sg8
g22
sg21
g50
sg27
I56
sg28
F33885
sbsI225
g2
(g3
g4
NtRp527
(dp528
g7
I0
sg8
g59
sg21
g64
sg27
I56
sg28
F22424
sbsI226
g2
(g3
g4
NtRp529
(dp530
g7
I0
sg8
g59
sg21
g64
sg27
I56
sg28
F234797
sbsI227
g2
(g3
g4
NtRp531
(dp532
g7
I0
sg8
g43
sg21
g38
sg27
I56
sg28
F157769
sbsI228
g2
(g3
g4
NtRp533
(dp534
g7
I0
sg8
g82
sg21
g87
sg27
I57
sg28
F7244
sbsI229
g2
(g3
g4
NtRp535
(dp536
g7
I0
sg8
g82
sg21
g43
sg27
I57
sg28
F23418
sbsI230
g2
(g3
g4
NtRp537
(dp538
g7
I0
sg8
g96
sg21
g43
sg27
I57
sg28
F36241
sbsI231
g2
(g3
g4
NtRp539
(dp540
g7
I0
sg8
g82
sg21
g43
sg27
I57
sg28
F87637
sbsI232
g2
(g3
g4
NtRp541
(dp542
g7
I0
sg8
g82
sg21
g43
sg27
I58
sg28
F44028
sbsI233
g2
(g3
g4
NtRp543
(dp544
g7
I0
sg8
g87
sg21
g38
sg27
I58
sg28
F13837
sbsI234
g2
(g3
g4
NtRp545
(dp546
g7
I0
sg8
g64
sg21
g59
sg27
I58
sg28
F49277
sbsI235
g2
(g3
g4
NtRp547
(dp548
g7
I0
sg8
g50
sg21
g10
sg27
I58
sg28
F11141
sbsI236
g2
(g3
g4
NtRp549
(dp550
g7
I0
sg8
g22
sg21
g10
sg27
I59
sg28
F10226
sbsI237
g2
(g3
g4
NtRp551
(dp552
g7
I0
sg8
g87
sg21
g96
sg27
I59
sg28
F16200
sbsI238
g2
(g3
g4
NtRp553
(dp554
g7
I0
sg8
g64
sg21
g59
sg27
I59
sg28
F7095
sbsI239
g2
(g3
g4
NtRp555
(dp556
g7
I0
sg8
g50
sg21
g10
sg27
I59
sg28
F26168
sbs.