(dp1
I0
ccopy_reg
_reconstructor
p2
(cAutoTest.Model.Flow
Flow
p3
c__builtin__
object
p4
NtRp5
(dp6
S'duration'
p7
I0
sS'src'
p8
g2
(cAutoTest.Model.Device
Host
p9
g4
NtRp10
(dp11
S't_id'
p12
I1
sS'name'
p13
S'h00100008'
p14
sS'ip'
p15
S'10.0.0.2'
p16
sS'mac'
p17
S'00:00:00:00:00:08'
p18
sS'dc_id'
p19
I1
sS'id'
p20
I8
sbsS'dst'
p21
g2
(g9
g4
NtRp22
(dp23
g12
I1
sg13
S'h00100005'
p24
sg15
S'10.0.0.1'
p25
sg17
S'00:00:00:00:00:05'
p26
sg19
I1
sg20
I5
sbsS'start_tmie'
p27
I0
sS'size'
p28
F2615
sbsI1
g2
(g3
g4
NtRp29
(dp30
g7
I0
sg8
g2
(g9
g4
NtRp31
(dp32
g12
I1
sg13
S'h00100004'
p33
sg15
S'192.168.0.4'
p34
sg17
S'00:00:00:00:00:04'
p35
sg19
I1
sg20
I4
sbsg21
g2
(g9
g4
NtRp36
(dp37
g12
I1
sg13
S'h00100003'
p38
sg15
S'192.168.0.3'
p39
sg17
S'00:00:00:00:00:03'
p40
sg19
I1
sg20
I3
sbsg27
I0
sg28
F28229
sbsI2
g2
(g3
g4
NtRp41
(dp42
g7
I0
sg8
g2
(g9
g4
NtRp43
(dp44
g12
I2
sg13
S'h00200005'
p45
sg15
S'10.0.0.5'
p46
sg17
S'00:00:00:00:00:0f'
p47
sg19
I1
sg20
I5
sbsg21
g2
(g9
g4
NtRp48
(dp49
g12
I2
sg13
S'h00200001'
p50
sg15
S'10.0.0.1'
p51
sg17
S'00:00:00:00:00:0b'
p52
sg19
I1
sg20
I1
sbsg27
I0
sg28
F13731
sbsI3
g2
(g3
g4
NtRp53
(dp54
g7
I0
sg8
g48
sg21
g2
(g9
g4
NtRp55
(dp56
g12
I2
sg13
S'h00200004'
p57
sg15
S'10.0.0.4'
p58
sg17
S'00:00:00:00:00:0e'
p59
sg19
I1
sg20
I4
sbsg27
I0
sg28
F173603
sbsI4
g2
(g3
g4
NtRp60
(dp61
g7
I0
sg8
g43
sg21
g55
sg27
I1
sg28
F42117
sbsI5
g2
(g3
g4
NtRp62
(dp63
g7
I0
sg8
g48
sg21
g55
sg27
I1
sg28
F1751
sbsI6
g2
(g3
g4
NtRp64
(dp65
g7
I0
sg8
g2
(g9
g4
NtRp66
(dp67
g12
I2
sg13
S'h00200010'
p68
sg15
S'10.0.0.10'
p69
sg17
S'00:00:00:00:00:14'
p70
sg19
I1
sg20
I10
sbsg21
g55
sg27
I1
sg28
F8348
sbsI7
g2
(g3
g4
NtRp71
(dp72
g7
I0
sg8
g43
sg21
g55
sg27
I1
sg28
F52780
sbsI8
g2
(g3
g4
NtRp73
(dp74
g7
I0
sg8
g43
sg21
g55
sg27
I2
sg28
F19471
sbsI9
g2
(g3
g4
NtRp75
(dp76
g7
I0
sg8
g10
sg21
g22
sg27
I2
sg28
F7105
sbsI10
g2
(g3
g4
NtRp77
(dp78
g7
I0
sg8
g2
(g9
g4
NtRp79
(dp80
g12
I1
sg13
S'h00100007'
p81
sg15
S'192.168.0.6'
p82
sg17
S'00:00:00:00:00:07'
p83
sg19
I1
sg20
I7
sbsg21
g2
(g9
g4
NtRp84
(dp85
g12
I1
sg13
S'h00100006'
p86
sg15
S'192.168.0.5'
p87
sg17
S'00:00:00:00:00:06'
p88
sg19
I1
sg20
I6
sbsg27
I2
sg28
F5691
sbsI11
g2
(g3
g4
NtRp89
(dp90
g7
I0
sg8
g66
sg21
g2
(g9
g4
NtRp91
(dp92
g12
I2
sg13
S'h00200009'
p93
sg15
S'10.0.0.9'
p94
sg17
S'00:00:00:00:00:13'
p95
sg19
I1
sg20
I9
sbsg27
I2
sg28
F34275
sbsI12
g2
(g3
g4
NtRp96
(dp97
g7
I0
sg8
g84
sg21
g36
sg27
I3
sg28
F21464
sbsI13
g2
(g3
g4
NtRp98
(dp99
g7
I0
sg8
g43
sg21
g55
sg27
I3
sg28
F89031
sbsI14
g2
(g3
g4
NtRp100
(dp101
g7
I0
sg8
g55
sg21
g66
sg27
I3
sg28
F11748
sbsI15
g2
(g3
g4
NtRp102
(dp103
g7
I0
sg8
g31
sg21
g84
sg27
I3
sg28
F156068
sbsI16
g2
(g3
g4
NtRp104
(dp105
g7
I0
sg8
g48
sg21
g91
sg27
I4
sg28
F96374
sbsI17
g2
(g3
g4
NtRp106
(dp107
g7
I0
sg8
g43
sg21
g91
sg27
I4
sg28
F33878
sbsI18
g2
(g3
g4
NtRp108
(dp109
g7
I0
sg8
g10
sg21
g22
sg27
I4
sg28
F29736
sbsI19
g2
(g3
g4
NtRp110
(dp111
g7
I0
sg8
g48
sg21
g43
sg27
I4
sg28
F69596
sbsI20
g2
(g3
g4
NtRp112
(dp113
g7
I0
sg8
g84
sg21
g36
sg27
I5
sg28
F25729
sbsI21
g2
(g3
g4
NtRp114
(dp115
g7
I0
sg8
g31
sg21
g84
sg27
I5
sg28
F18016
sbsI22
g2
(g3
g4
NtRp116
(dp117
g7
I0
sg8
g84
sg21
g36
sg27
I5
sg28
F28835
sbsI23
g2
(g3
g4
NtRp118
(dp119
g7
I0
sg8
g10
sg21
g22
sg27
I5
sg28
F15861
sbsI24
g2
(g3
g4
NtRp120
(dp121
g7
I0
sg8
g36
sg21
g31
sg27
I6
sg28
F36647
sbsI25
g2
(g3
g4
NtRp122
(dp123
g7
I0
sg8
g31
sg21
g36
sg27
I6
sg28
F19578
sbsI26
g2
(g3
g4
NtRp124
(dp125
g7
I0
sg8
g43
sg21
g48
sg27
I6
sg28
F16680
sbsI27
g2
(g3
g4
NtRp126
(dp127
g7
I0
sg8
g31
sg21
g79
sg27
I6
sg28
F30771
sbsI28
g2
(g3
g4
NtRp128
(dp129
g7
I0
sg8
g10
sg21
g22
sg27
I7
sg28
F16523
sbsI29
g2
(g3
g4
NtRp130
(dp131
g7
I0
sg8
g22
sg21
g10
sg27
I7
sg28
F16749
sbsI30
g2
(g3
g4
NtRp132
(dp133
g7
I0
sg8
g55
sg21
g48
sg27
I7
sg28
F166320
sbsI31
g2
(g3
g4
NtRp134
(dp135
g7
I0
sg8
g31
sg21
g84
sg27
I7
sg28
F32725
sbsI32
g2
(g3
g4
NtRp136
(dp137
g7
I0
sg8
g84
sg21
g79
sg27
I8
sg28
F19497
sbsI33
g2
(g3
g4
NtRp138
(dp139
g7
I0
sg8
g48
sg21
g91
sg27
I8
sg28
F7960
sbsI34
g2
(g3
g4
NtRp140
(dp141
g7
I0
sg8
g10
sg21
g22
sg27
I8
sg28
F25701
sbsI35
g2
(g3
g4
NtRp142
(dp143
g7
I0
sg8
g55
sg21
g2
(g9
g4
NtRp144
(dp145
g12
I2
sg13
S'h00200002'
p146
sg15
S'10.0.0.2'
p147
sg17
S'00:00:00:00:00:0c'
p148
sg19
I1
sg20
I2
sbsg27
I8
sg28
F5502
sbsI36
g2
(g3
g4
NtRp149
(dp150
g7
I0
sg8
g22
sg21
g10
sg27
I9
sg28
F10754
sbsI37
g2
(g3
g4
NtRp151
(dp152
g7
I0
sg8
g36
sg21
g79
sg27
I9
sg28
F89015
sbsI38
g2
(g3
g4
NtRp153
(dp154
g7
I0
sg8
g55
sg21
g48
sg27
I9
sg28
F20364
sbsI39
g2
(g3
g4
NtRp155
(dp156
g7
I0
sg8
g48
sg21
g91
sg27
I9
sg28
F13004
sbsI40
g2
(g3
g4
NtRp157
(dp158
g7
I0
sg8
g55
sg21
g91
sg27
I10
sg28
F28311
sbsI41
g2
(g3
g4
NtRp159
(dp160
g7
I0
sg8
g10
sg21
g22
sg27
I10
sg28
F1828
sbsI42
g2
(g3
g4
NtRp161
(dp162
g7
I0
sg8
g55
sg21
g48
sg27
I10
sg28
F15402
sbsI43
g2
(g3
g4
NtRp163
(dp164
g7
I0
sg8
g43
sg21
g55
sg27
I10
sg28
F414973
sbsI44
g2
(g3
g4
NtRp165
(dp166
g7
I0
sg8
g36
sg21
g31
sg27
I11
sg28
F8614
sbsI45
g2
(g3
g4
NtRp167
(dp168
g7
I0
sg8
g79
sg21
g36
sg27
I11
sg28
F54222
sbsI46
g2
(g3
g4
NtRp169
(dp170
g7
I0
sg8
g55
sg21
g91
sg27
I11
sg28
F17675
sbsI47
g2
(g3
g4
NtRp171
(dp172
g7
I0
sg8
g10
sg21
g22
sg27
I11
sg28
F11277
sbsI48
g2
(g3
g4
NtRp173
(dp174
g7
I0
sg8
g55
sg21
g48
sg27
I12
sg28
F43929
sbsI49
g2
(g3
g4
NtRp175
(dp176
g7
I0
sg8
g55
sg21
g66
sg27
I12
sg28
F51088
sbsI50
g2
(g3
g4
NtRp177
(dp178
g7
I0
sg8
g79
sg21
g84
sg27
I12
sg28
F44060
sbsI51
g2
(g3
g4
NtRp179
(dp180
g7
I0
sg8
g66
sg21
g91
sg27
I12
sg28
F15605
sbsI52
g2
(g3
g4
NtRp181
(dp182
g7
I0
sg8
g22
sg21
g10
sg27
I13
sg28
F29869
sbsI53
g2
(g3
g4
NtRp183
(dp184
g7
I0
sg8
g91
sg21
g144
sg27
I13
sg28
F66927
sbsI54
g2
(g3
g4
NtRp185
(dp186
g7
I0
sg8
g48
sg21
g43
sg27
I13
sg28
F47979
sbsI55
g2
(g3
g4
NtRp187
(dp188
g7
I0
sg8
g144
sg21
g66
sg27
I13
sg28
F44568
sbsI56
g2
(g3
g4
NtRp189
(dp190
g7
I0
sg8
g91
sg21
g55
sg27
I14
sg28
F33846
sbsI57
g2
(g3
g4
NtRp191
(dp192
g7
I0
sg8
g36
sg21
g79
sg27
I14
sg28
F19277
sbsI58
g2
(g3
g4
NtRp193
(dp194
g7
I0
sg8
g10
sg21
g22
sg27
I14
sg28
F10299
sbsI59
g2
(g3
g4
NtRp195
(dp196
g7
I0
sg8
g48
sg21
g66
sg27
I14
sg28
F38885
sbsI60
g2
(g3
g4
NtRp197
(dp198
g7
I0
sg8
g144
sg21
g55
sg27
I15
sg28
F80127
sbsI61
g2
(g3
g4
NtRp199
(dp200
g7
I0
sg8
g43
sg21
g66
sg27
I15
sg28
F8595
sbsI62
g2
(g3
g4
NtRp201
(dp202
g7
I0
sg8
g79
sg21
g36
sg27
I15
sg28
F34204
sbsI63
g2
(g3
g4
NtRp203
(dp204
g7
I0
sg8
g31
sg21
g79
sg27
I15
sg28
F41054
sbsI64
g2
(g3
g4
NtRp205
(dp206
g7
I0
sg8
g48
sg21
g91
sg27
I16
sg28
F6061
sbsI65
g2
(g3
g4
NtRp207
(dp208
g7
I0
sg8
g48
sg21
g91
sg27
I16
sg28
F123414
sbsI66
g2
(g3
g4
NtRp209
(dp210
g7
I0
sg8
g48
sg21
g66
sg27
I16
sg28
F4935
sbsI67
g2
(g3
g4
NtRp211
(dp212
g7
I0
sg8
g31
sg21
g36
sg27
I16
sg28
F3151
sbsI68
g2
(g3
g4
NtRp213
(dp214
g7
I0
sg8
g144
sg21
g55
sg27
I17
sg28
F45537
sbsI69
g2
(g3
g4
NtRp215
(dp216
g7
I0
sg8
g79
sg21
g36
sg27
I17
sg28
F17495
sbsI70
g2
(g3
g4
NtRp217
(dp218
g7
I0
sg8
g22
sg21
g10
sg27
I17
sg28
F27279
sbsI71
g2
(g3
g4
NtRp219
(dp220
g7
I0
sg8
g36
sg21
g31
sg27
I17
sg28
F17319
sbsI72
g2
(g3
g4
NtRp221
(dp222
g7
I0
sg8
g43
sg21
g144
sg27
I18
sg28
F7899
sbsI73
g2
(g3
g4
NtRp223
(dp224
g7
I0
sg8
g10
sg21
g22
sg27
I18
sg28
F26244
sbsI74
g2
(g3
g4
NtRp225
(dp226
g7
I0
sg8
g84
sg21
g79
sg27
I18
sg28
F36214
sbsI75
g2
(g3
g4
NtRp227
(dp228
g7
I0
sg8
g36
sg21
g84
sg27
I18
sg28
F4541
sbsI76
g2
(g3
g4
NtRp229
(dp230
g7
I0
sg8
g43
sg21
g48
sg27
I19
sg28
F137439
sbsI77
g2
(g3
g4
NtRp231
(dp232
g7
I0
sg8
g36
sg21
g31
sg27
I19
sg28
F15697
sbsI78
g2
(g3
g4
NtRp233
(dp234
g7
I0
sg8
g91
sg21
g66
sg27
I19
sg28
F41826
sbsI79
g2
(g3
g4
NtRp235
(dp236
g7
I0
sg8
g10
sg21
g22
sg27
I19
sg28
F16170
sbsI80
g2
(g3
g4
NtRp237
(dp238
g7
I0
sg8
g66
sg21
g55
sg27
I20
sg28
F22504
sbsI81
g2
(g3
g4
NtRp239
(dp240
g7
I0
sg8
g91
sg21
g66
sg27
I20
sg28
F5912
sbsI82
g2
(g3
g4
NtRp241
(dp242
g7
I0
sg8
g22
sg21
g10
sg27
I20
sg28
F33234
sbsI83
g2
(g3
g4
NtRp243
(dp244
g7
I0
sg8
g10
sg21
g22
sg27
I20
sg28
F18302
sbsI84
g2
(g3
g4
NtRp245
(dp246
g7
I0
sg8
g84
sg21
g79
sg27
I21
sg28
F888
sbsI85
g2
(g3
g4
NtRp247
(dp248
g7
I0
sg8
g43
sg21
g144
sg27
I21
sg28
F49113
sbsI86
g2
(g3
g4
NtRp249
(dp250
g7
I0
sg8
g84
sg21
g79
sg27
I21
sg28
F24412
sbsI87
g2
(g3
g4
NtRp251
(dp252
g7
I0
sg8
g84
sg21
g31
sg27
I21
sg28
F142008
sbsI88
g2
(g3
g4
NtRp253
(dp254
g7
I0
sg8
g79
sg21
g84
sg27
I22
sg28
F6363
sbsI89
g2
(g3
g4
NtRp255
(dp256
g7
I0
sg8
g48
sg21
g55
sg27
I22
sg28
F29265
sbsI90
g2
(g3
g4
NtRp257
(dp258
g7
I0
sg8
g43
sg21
g144
sg27
I22
sg28
F38568
sbsI91
g2
(g3
g4
NtRp259
(dp260
g7
I0
sg8
g84
sg21
g31
sg27
I22
sg28
F4770
sbsI92
g2
(g3
g4
NtRp261
(dp262
g7
I0
sg8
g84
sg21
g31
sg27
I23
sg28
F9410
sbsI93
g2
(g3
g4
NtRp263
(dp264
g7
I0
sg8
g91
sg21
g48
sg27
I23
sg28
F11064
sbsI94
g2
(g3
g4
NtRp265
(dp266
g7
I0
sg8
g22
sg21
g10
sg27
I23
sg28
F12624
sbsI95
g2
(g3
g4
NtRp267
(dp268
g7
I0
sg8
g22
sg21
g10
sg27
I23
sg28
F15051
sbsI96
g2
(g3
g4
NtRp269
(dp270
g7
I0
sg8
g43
sg21
g48
sg27
I24
sg28
F3417
sbsI97
g2
(g3
g4
NtRp271
(dp272
g7
I0
sg8
g91
sg21
g66
sg27
I24
sg28
F17470
sbsI98
g2
(g3
g4
NtRp273
(dp274
g7
I0
sg8
g36
sg21
g84
sg27
I24
sg28
F19217
sbsI99
g2
(g3
g4
NtRp275
(dp276
g7
I0
sg8
g43
sg21
g91
sg27
I24
sg28
F24142
sbsI100
g2
(g3
g4
NtRp277
(dp278
g7
I0
sg8
g22
sg21
g10
sg27
I25
sg28
F91359
sbsI101
g2
(g3
g4
NtRp279
(dp280
g7
I0
sg8
g84
sg21
g36
sg27
I25
sg28
F54506
sbsI102
g2
(g3
g4
NtRp281
(dp282
g7
I0
sg8
g31
sg21
g79
sg27
I25
sg28
F39033
sbsI103
g2
(g3
g4
NtRp283
(dp284
g7
I0
sg8
g91
sg21
g55
sg27
I25
sg28
F47328
sbsI104
g2
(g3
g4
NtRp285
(dp286
g7
I0
sg8
g22
sg21
g10
sg27
I26
sg28
F14781
sbsI105
g2
(g3
g4
NtRp287
(dp288
g7
I0
sg8
g43
sg21
g144
sg27
I26
sg28
F7290
sbsI106
g2
(g3
g4
NtRp289
(dp290
g7
I0
sg8
g36
sg21
g84
sg27
I26
sg28
F1858
sbsI107
g2
(g3
g4
NtRp291
(dp292
g7
I0
sg8
g48
sg21
g91
sg27
I26
sg28
F32861
sbsI108
g2
(g3
g4
NtRp293
(dp294
g7
I0
sg8
g55
sg21
g144
sg27
I27
sg28
F4166
sbsI109
g2
(g3
g4
NtRp295
(dp296
g7
I0
sg8
g36
sg21
g84
sg27
I27
sg28
F113828
sbsI110
g2
(g3
g4
NtRp297
(dp298
g7
I0
sg8
g48
sg21
g55
sg27
I27
sg28
F11387
sbsI111
g2
(g3
g4
NtRp299
(dp300
g7
I0
sg8
g84
sg21
g36
sg27
I27
sg28
F7214
sbsI112
g2
(g3
g4
NtRp301
(dp302
g7
I0
sg8
g22
sg21
g10
sg27
I28
sg28
F22287
sbsI113
g2
(g3
g4
NtRp303
(dp304
g7
I0
sg8
g36
sg21
g84
sg27
I28
sg28
F7693
sbsI114
g2
(g3
g4
NtRp305
(dp306
g7
I0
sg8
g91
sg21
g48
sg27
I28
sg28
F3382
sbsI115
g2
(g3
g4
NtRp307
(dp308
g7
I0
sg8
g43
sg21
g55
sg27
I28
sg28
F19187
sbsI116
g2
(g3
g4
NtRp309
(dp310
g7
I0
sg8
g144
sg21
g66
sg27
I29
sg28
F31033
sbsI117
g2
(g3
g4
NtRp311
(dp312
g7
I0
sg8
g55
sg21
g66
sg27
I29
sg28
F36553
sbsI118
g2
(g3
g4
NtRp313
(dp314
g7
I0
sg8
g22
sg21
g10
sg27
I29
sg28
F45705
sbsI119
g2
(g3
g4
NtRp315
(dp316
g7
I0
sg8
g43
sg21
g48
sg27
I29
sg28
F66504
sbsI120
g2
(g3
g4
NtRp317
(dp318
g7
I0
sg8
g144
sg21
g91
sg27
I30
sg28
F23641
sbsI121
g2
(g3
g4
NtRp319
(dp320
g7
I0
sg8
g144
sg21
g43
sg27
I30
sg28
F271220
sbsI122
g2
(g3
g4
NtRp321
(dp322
g7
I0
sg8
g66
sg21
g144
sg27
I30
sg28
F93425
sbsI123
g2
(g3
g4
NtRp323
(dp324
g7
I0
sg8
g55
sg21
g43
sg27
I30
sg28
F28222
sbsI124
g2
(g3
g4
NtRp325
(dp326
g7
I0
sg8
g36
sg21
g84
sg27
I31
sg28
F20076
sbsI125
g2
(g3
g4
NtRp327
(dp328
g7
I0
sg8
g31
sg21
g36
sg27
I31
sg28
F60064
sbsI126
g2
(g3
g4
NtRp329
(dp330
g7
I0
sg8
g48
sg21
g66
sg27
I31
sg28
F215841
sbsI127
g2
(g3
g4
NtRp331
(dp332
g7
I0
sg8
g144
sg21
g91
sg27
I31
sg28
F6800
sbsI128
g2
(g3
g4
NtRp333
(dp334
g7
I0
sg8
g144
sg21
g55
sg27
I32
sg28
F325054
sbsI129
g2
(g3
g4
NtRp335
(dp336
g7
I0
sg8
g55
sg21
g43
sg27
I32
sg28
F4325
sbsI130
g2
(g3
g4
NtRp337
(dp338
g7
I0
sg8
g91
sg21
g48
sg27
I32
sg28
F22545
sbsI131
g2
(g3
g4
NtRp339
(dp340
g7
I0
sg8
g43
sg21
g91
sg27
I32
sg28
F58777
sbsI132
g2
(g3
g4
NtRp341
(dp342
g7
I0
sg8
g36
sg21
g31
sg27
I33
sg28
F41562
sbsI133
g2
(g3
g4
NtRp343
(dp344
g7
I0
sg8
g91
sg21
g144
sg27
I33
sg28
F36695
sbsI134
g2
(g3
g4
NtRp345
(dp346
g7
I0
sg8
g79
sg21
g31
sg27
I33
sg28
F21551
sbsI135
g2
(g3
g4
NtRp347
(dp348
g7
I0
sg8
g84
sg21
g79
sg27
I33
sg28
F8182
sbsI136
g2
(g3
g4
NtRp349
(dp350
g7
I0
sg8
g84
sg21
g79
sg27
I34
sg28
F6366
sbsI137
g2
(g3
g4
NtRp351
(dp352
g7
I0
sg8
g79
sg21
g31
sg27
I34
sg28
F60549
sbsI138
g2
(g3
g4
NtRp353
(dp354
g7
I0
sg8
g144
sg21
g66
sg27
I34
sg28
F5680
sbsI139
g2
(g3
g4
NtRp355
(dp356
g7
I0
sg8
g91
sg21
g55
sg27
I34
sg28
F8753
sbsI140
g2
(g3
g4
NtRp357
(dp358
g7
I0
sg8
g79
sg21
g36
sg27
I35
sg28
F19167
sbsI141
g2
(g3
g4
NtRp359
(dp360
g7
I0
sg8
g10
sg21
g22
sg27
I35
sg28
F10898
sbsI142
g2
(g3
g4
NtRp361
(dp362
g7
I0
sg8
g43
sg21
g66
sg27
I35
sg28
F11462
sbsI143
g2
(g3
g4
NtRp363
(dp364
g7
I0
sg8
g55
sg21
g144
sg27
I35
sg28
F9410
sbsI144
g2
(g3
g4
NtRp365
(dp366
g7
I0
sg8
g66
sg21
g48
sg27
I36
sg28
F10539
sbsI145
g2
(g3
g4
NtRp367
(dp368
g7
I0
sg8
g10
sg21
g22
sg27
I36
sg28
F31454
sbsI146
g2
(g3
g4
NtRp369
(dp370
g7
I0
sg8
g66
sg21
g91
sg27
I36
sg28
F66307
sbsI147
g2
(g3
g4
NtRp371
(dp372
g7
I0
sg8
g48
sg21
g91
sg27
I36
sg28
F25832
sbsI148
g2
(g3
g4
NtRp373
(dp374
g7
I0
sg8
g55
sg21
g66
sg27
I37
sg28
F4093
sbsI149
g2
(g3
g4
NtRp375
(dp376
g7
I0
sg8
g79
sg21
g31
sg27
I37
sg28
F23654
sbsI150
g2
(g3
g4
NtRp377
(dp378
g7
I0
sg8
g144
sg21
g91
sg27
I37
sg28
F3539
sbsI151
g2
(g3
g4
NtRp379
(dp380
g7
I0
sg8
g144
sg21
g66
sg27
I37
sg28
F26273
sbsI152
g2
(g3
g4
NtRp381
(dp382
g7
I0
sg8
g91
sg21
g43
sg27
I38
sg28
F5311
sbsI153
g2
(g3
g4
NtRp383
(dp384
g7
I0
sg8
g36
sg21
g84
sg27
I38
sg28
F6398
sbsI154
g2
(g3
g4
NtRp385
(dp386
g7
I0
sg8
g79
sg21
g36
sg27
I38
sg28
F5999
sbsI155
g2
(g3
g4
NtRp387
(dp388
g7
I0
sg8
g84
sg21
g31
sg27
I38
sg28
F34009
sbsI156
g2
(g3
g4
NtRp389
(dp390
g7
I0
sg8
g144
sg21
g66
sg27
I39
sg28
F47808
sbsI157
g2
(g3
g4
NtRp391
(dp392
g7
I0
sg8
g144
sg21
g55
sg27
I39
sg28
F56615
sbsI158
g2
(g3
g4
NtRp393
(dp394
g7
I0
sg8
g31
sg21
g36
sg27
I39
sg28
F7970
sbsI159
g2
(g3
g4
NtRp395
(dp396
g7
I0
sg8
g66
sg21
g144
sg27
I39
sg28
F35279
sbsI160
g2
(g3
g4
NtRp397
(dp398
g7
I0
sg8
g66
sg21
g55
sg27
I40
sg28
F17612
sbsI161
g2
(g3
g4
NtRp399
(dp400
g7
I0
sg8
g31
sg21
g36
sg27
I40
sg28
F54952
sbsI162
g2
(g3
g4
NtRp401
(dp402
g7
I0
sg8
g36
sg21
g84
sg27
I40
sg28
F10022
sbsI163
g2
(g3
g4
NtRp403
(dp404
g7
I0
sg8
g66
sg21
g48
sg27
I40
sg28
F13030
sbsI164
g2
(g3
g4
NtRp405
(dp406
g7
I0
sg8
g48
sg21
g66
sg27
I41
sg28
F13765
sbsI165
g2
(g3
g4
NtRp407
(dp408
g7
I0
sg8
g43
sg21
g48
sg27
I41
sg28
F23684
sbsI166
g2
(g3
g4
NtRp409
(dp410
g7
I0
sg8
g10
sg21
g22
sg27
I41
sg28
F12737
sbsI167
g2
(g3
g4
NtRp411
(dp412
g7
I0
sg8
g79
sg21
g84
sg27
I41
sg28
F43791
sbsI168
g2
(g3
g4
NtRp413
(dp414
g7
I0
sg8
g55
sg21
g144
sg27
I42
sg28
F19158
sbsI169
g2
(g3
g4
NtRp415
(dp416
g7
I0
sg8
g36
sg21
g31
sg27
I42
sg28
F35896
sbsI170
g2
(g3
g4
NtRp417
(dp418
g7
I0
sg8
g48
sg21
g144
sg27
I42
sg28
F43377
sbsI171
g2
(g3
g4
NtRp419
(dp420
g7
I0
sg8
g55
sg21
g91
sg27
I42
sg28
F81220
sbsI172
g2
(g3
g4
NtRp421
(dp422
g7
I0
sg8
g36
sg21
g79
sg27
I43
sg28
F28191
sbsI173
g2
(g3
g4
NtRp423
(dp424
g7
I0
sg8
g79
sg21
g84
sg27
I43
sg28
F26913
sbsI174
g2
(g3
g4
NtRp425
(dp426
g7
I0
sg8
g66
sg21
g48
sg27
I43
sg28
F73631
sbsI175
g2
(g3
g4
NtRp427
(dp428
g7
I0
sg8
g43
sg21
g91
sg27
I43
sg28
F72817
sbsI176
g2
(g3
g4
NtRp429
(dp430
g7
I0
sg8
g55
sg21
g48
sg27
I44
sg28
F26811
sbsI177
g2
(g3
g4
NtRp431
(dp432
g7
I0
sg8
g55
sg21
g144
sg27
I44
sg28
F10489
sbsI178
g2
(g3
g4
NtRp433
(dp434
g7
I0
sg8
g66
sg21
g144
sg27
I44
sg28
F63089
sbsI179
g2
(g3
g4
NtRp435
(dp436
g7
I0
sg8
g36
sg21
g84
sg27
I44
sg28
F63345
sbsI180
g2
(g3
g4
NtRp437
(dp438
g7
I0
sg8
g91
sg21
g55
sg27
I45
sg28
F26125
sbsI181
g2
(g3
g4
NtRp439
(dp440
g7
I0
sg8
g84
sg21
g79
sg27
I45
sg28
F52191
sbsI182
g2
(g3
g4
NtRp441
(dp442
g7
I0
sg8
g55
sg21
g66
sg27
I45
sg28
F31559
sbsI183
g2
(g3
g4
NtRp443
(dp444
g7
I0
sg8
g43
sg21
g91
sg27
I45
sg28
F121879
sbsI184
g2
(g3
g4
NtRp445
(dp446
g7
I0
sg8
g36
sg21
g31
sg27
I46
sg28
F7025
sbsI185
g2
(g3
g4
NtRp447
(dp448
g7
I0
sg8
g36
sg21
g79
sg27
I46
sg28
F56907
sbsI186
g2
(g3
g4
NtRp449
(dp450
g7
I0
sg8
g36
sg21
g84
sg27
I46
sg28
F13740
sbsI187
g2
(g3
g4
NtRp451
(dp452
g7
I0
sg8
g48
sg21
g144
sg27
I46
sg28
F14816
sbsI188
g2
(g3
g4
NtRp453
(dp454
g7
I0
sg8
g144
sg21
g91
sg27
I47
sg28
F30056
sbsI189
g2
(g3
g4
NtRp455
(dp456
g7
I0
sg8
g43
sg21
g144
sg27
I47
sg28
F17853
sbsI190
g2
(g3
g4
NtRp457
(dp458
g7
I0
sg8
g144
sg21
g48
sg27
I47
sg28
F106800
sbsI191
g2
(g3
g4
NtRp459
(dp460
g7
I0
sg8
g22
sg21
g10
sg27
I47
sg28
F4492
sbsI192
g2
(g3
g4
NtRp461
(dp462
g7
I0
sg8
g144
sg21
g66
sg27
I48
sg28
F7133
sbsI193
g2
(g3
g4
NtRp463
(dp464
g7
I0
sg8
g36
sg21
g79
sg27
I48
sg28
F48375
sbsI194
g2
(g3
g4
NtRp465
(dp466
g7
I0
sg8
g66
sg21
g144
sg27
I48
sg28
F10066
sbsI195
g2
(g3
g4
NtRp467
(dp468
g7
I0
sg8
g22
sg21
g10
sg27
I48
sg28
F53427
sbsI196
g2
(g3
g4
NtRp469
(dp470
g7
I0
sg8
g79
sg21
g31
sg27
I49
sg28
F16707
sbsI197
g2
(g3
g4
NtRp471
(dp472
g7
I0
sg8
g22
sg21
g10
sg27
I49
sg28
F12576
sbsI198
g2
(g3
g4
NtRp473
(dp474
g7
I0
sg8
g91
sg21
g55
sg27
I49
sg28
F4967
sbsI199
g2
(g3
g4
NtRp475
(dp476
g7
I0
sg8
g36
sg21
g84
sg27
I49
sg28
F41973
sbsI200
g2
(g3
g4
NtRp477
(dp478
g7
I0
sg8
g31
sg21
g79
sg27
I50
sg28
F38866
sbsI201
g2
(g3
g4
NtRp479
(dp480
g7
I0
sg8
g31
sg21
g36
sg27
I50
sg28
F2480
sbsI202
g2
(g3
g4
NtRp481
(dp482
g7
I0
sg8
g84
sg21
g36
sg27
I50
sg28
F53693
sbsI203
g2
(g3
g4
NtRp483
(dp484
g7
I0
sg8
g31
sg21
g36
sg27
I50
sg28
F2232
sbsI204
g2
(g3
g4
NtRp485
(dp486
g7
I0
sg8
g10
sg21
g22
sg27
I51
sg28
F3669
sbsI205
g2
(g3
g4
NtRp487
(dp488
g7
I0
sg8
g84
sg21
g79
sg27
I51
sg28
F23572
sbsI206
g2
(g3
g4
NtRp489
(dp490
g7
I0
sg8
g84
sg21
g79
sg27
I51
sg28
F11718
sbsI207
g2
(g3
g4
NtRp491
(dp492
g7
I0
sg8
g66
sg21
g48
sg27
I51
sg28
F10076
sbsI208
g2
(g3
g4
NtRp493
(dp494
g7
I0
sg8
g36
sg21
g84
sg27
I52
sg28
F42568
sbsI209
g2
(g3
g4
NtRp495
(dp496
g7
I0
sg8
g66
sg21
g48
sg27
I52
sg28
F127874
sbsI210
g2
(g3
g4
NtRp497
(dp498
g7
I0
sg8
g10
sg21
g22
sg27
I52
sg28
F27707
sbsI211
g2
(g3
g4
NtRp499
(dp500
g7
I0
sg8
g10
sg21
g22
sg27
I52
sg28
F5419
sbsI212
g2
(g3
g4
NtRp501
(dp502
g7
I0
sg8
g31
sg21
g84
sg27
I53
sg28
F10622
sbsI213
g2
(g3
g4
NtRp503
(dp504
g7
I0
sg8
g84
sg21
g31
sg27
I53
sg28
F119339
sbsI214
g2
(g3
g4
NtRp505
(dp506
g7
I0
sg8
g66
sg21
g43
sg27
I53
sg28
F8446
sbsI215
g2
(g3
g4
NtRp507
(dp508
g7
I0
sg8
g84
sg21
g36
sg27
I53
sg28
F29546
sbsI216
g2
(g3
g4
NtRp509
(dp510
g7
I0
sg8
g10
sg21
g22
sg27
I54
sg28
F14197
sbsI217
g2
(g3
g4
NtRp511
(dp512
g7
I0
sg8
g36
sg21
g79
sg27
I54
sg28
F6493
sbsI218
g2
(g3
g4
NtRp513
(dp514
g7
I0
sg8
g43
sg21
g48
sg27
I54
sg28
F21948
sbsI219
g2
(g3
g4
NtRp515
(dp516
g7
I0
sg8
g144
sg21
g43
sg27
I54
sg28
F51415
sbsI220
g2
(g3
g4
NtRp517
(dp518
g7
I0
sg8
g144
sg21
g91
sg27
I55
sg28
F29942
sbsI221
g2
(g3
g4
NtRp519
(dp520
g7
I0
sg8
g66
sg21
g48
sg27
I55
sg28
F23700
sbsI222
g2
(g3
g4
NtRp521
(dp522
g7
I0
sg8
g31
sg21
g84
sg27
I55
sg28
F17250
sbsI223
g2
(g3
g4
NtRp523
(dp524
g7
I0
sg8
g66
sg21
g55
sg27
I55
sg28
F37254
sbsI224
g2
(g3
g4
NtRp525
(dp526
g7
I0
sg8
g43
sg21
g48
sg27
I56
sg28
F29437
sbsI225
g2
(g3
g4
NtRp527
(dp528
g7
I0
sg8
g84
sg21
g36
sg27
I56
sg28
F12044
sbsI226
g2
(g3
g4
NtRp529
(dp530
g7
I0
sg8
g10
sg21
g22
sg27
I56
sg28
F5275
sbsI227
g2
(g3
g4
NtRp531
(dp532
g7
I0
sg8
g91
sg21
g144
sg27
I56
sg28
F32456
sbsI228
g2
(g3
g4
NtRp533
(dp534
g7
I0
sg8
g66
sg21
g48
sg27
I57
sg28
F8367
sbsI229
g2
(g3
g4
NtRp535
(dp536
g7
I0
sg8
g10
sg21
g22
sg27
I57
sg28
F13536
sbsI230
g2
(g3
g4
NtRp537
(dp538
g7
I0
sg8
g66
sg21
g43
sg27
I57
sg28
F28926
sbsI231
g2
(g3
g4
NtRp539
(dp540
g7
I0
sg8
g48
sg21
g66
sg27
I57
sg28
F9839
sbsI232
g2
(g3
g4
NtRp541
(dp542
g7
I0
sg8
g36
sg21
g84
sg27
I58
sg28
F23173
sbsI233
g2
(g3
g4
NtRp543
(dp544
g7
I0
sg8
g91
sg21
g48
sg27
I58
sg28
F9758
sbsI234
g2
(g3
g4
NtRp545
(dp546
g7
I0
sg8
g144
sg21
g43
sg27
I58
sg28
F36430
sbsI235
g2
(g3
g4
NtRp547
(dp548
g7
I0
sg8
g36
sg21
g79
sg27
I58
sg28
F46484
sbsI236
g2
(g3
g4
NtRp549
(dp550
g7
I0
sg8
g66
sg21
g48
sg27
I59
sg28
F31243
sbsI237
g2
(g3
g4
NtRp551
(dp552
g7
I0
sg8
g43
sg21
g91
sg27
I59
sg28
F8817
sbsI238
g2
(g3
g4
NtRp553
(dp554
g7
I0
sg8
g55
sg21
g43
sg27
I59
sg28
F6448
sbsI239
g2
(g3
g4
NtRp555
(dp556
g7
I0
sg8
g36
sg21
g84
sg27
I59
sg28
F57326
sbs.